(lp0
(lp1
S'just had din with my bro and dad before he leaves for six weeks '
p2
aS'negative'
p3
aa(lp4
S"I did. That's what all that babble was about. "
p5
ag3
aa(lp6
S'@misskepik you look so pathetic honey... '
p7
ag3
aa(lp8
S'@midnightmovies Get thee to a DVD player '
p9
aS'positive'
p10
aa(lp11
S"havin trouble loggin back in? Clear your &quot;cache&quot;.....   You'll be up to &quot;Tweed&quot; in a jiffy.."
p12
ag10
aa(lp13
S'woo Doctor Who special starting.... now!! '
p14
ag10
aa(lp15
S'so sleepy  Going out to dinner soon!'
p16
ag3
aa(lp17
S'@thetrudz like wow Google '
p18
ag3
aa(lp19
S'thinks SG is wonderful '
p20
ag10
aa(lp21
S'just woke up cause i have a cold '
p22
ag3
aa(lp23
S'God I feel like I havent slept in Days!! '
p24
ag3
aa(lp25
S'@the_prodigy I cant wait for you to be on tour heading Romanian Felsziget Fesztiv\xc3\xa1l.... hope to be there and party with you!!! '
p26
ag10
aa(lp27
S"@iradiate: beautiful FB lines to start off a beautiful day! For some reason fb wouldn't let me post a cooment to your status "
p28
ag3
aa(lp29
S'I miss my sister...... '
p30
ag3
aa(lp31
S'Cell phone temporarily out of commission while I deal with Verizon.  My phone is awful '
p32
ag3
aa(lp33
S'@imsoapee Hang in there. I can be there in about three more hours. '
p34
ag10
aa(lp35
S"Bad day not to look at the forcast before dressed. It's gonna be 80 and I'm wearing long sleeves "
p36
ag3
aa(lp37
S'Just had an omlette! Not a fan of eggs but dads good in the kitchen and we need to go shopping so there is no food in the house '
p38
ag3
aa(lp39
S'Sitting in my course, no sign of the hot guy and now I have nothing to look at while the woman is talking uninteresting stuff. '
p40
ag3
aa(lp41
S'Watching some more desperate housewives. So far behind. Ugh. '
p42
ag3
aa(lp43
S'note just chatin to someone who i love called simon '
p44
ag10
aa(lp45
S'@brenda_song brendaaa, brazil loves you. '
p46
ag10
aa(lp47
S'@mdd360 sorry guys I meant fathers day is tommorow '
p48
ag3
aa(lp49
S"Stupid G-Code didn't work, so I got like ten minutes of Good News Week and missed the end of Supernatural "
p50
ag3
aa(lp51
S"@Bryan_D_Smith I'm looking forward to it.  It's my first horror con so treat me gently!  "
p52
ag10
aa(lp53
S"So... I just learned a very valuable lesson. Even though it's only 70 degrees here in Cali... You can still get a major sun burn "
p54
ag3
aa(lp55
S"What did I tell ya'll about my lakers baby!! "
p56
ag10
aa(lp57
S"@kaelacastelucci Ahhhhhhh from the little searching I did looks like mp3's can't b ringtones "
p58
ag3
aa(lp59
S'@tompegg  thankyou lol'
p60
ag10
aa(lp61
S'@zelciia No rock. Very boring breakfast! Croissant and coffee. Nada. '
p62
ag3
aa(lp63
S'@bbcrad I miss you by the way. '
p64
ag3
aa(lp65
S"Glad there's not a ton of sketchy people on my bus. I'll be back in Buffalo at 9:30 tonight. Then summer session starts in the AM "
p66
ag3
aa(lp67
S"Watching Tele  So Bored Wish I Was In America Now :'("
p68
ag3
aa(lp69
S'@KirstyJoWithers argh i thought she looked amazingggg '
p70
ag10
aa(lp71
S'@remembersg is a photo project on remembering Singapore as we grow. Done at community level. By the people, for the people.  join us!'
p72
ag10
aa(lp73
S'@hotforwords nyquil  probably'
p74
ag10
aa(lp75
S'nothing to do '
p76
ag3
aa(lp77
S'So, everything on my mac is gone. All my music, movies, and everything awesome. Tonight is dedicated to getting all of it back '
p78
ag3
aa(lp79
S'had a good night, and hopes this summer stays fun exciting!!! ps Demi is recording Camp Rock 2 WHAT!!! i wanna hear '
p80
ag3
aa(lp81
S'Hmmm I need to review my previous 3500 words, and aim to write another 4000 by the end of the day. '
p82
ag3
aa(lp83
S'Is so excited about Army Wives 2nite '
p84
ag10
aa(lp85
S'4 mile walk home. Ipod battery is dead. Fail. '
p86
ag3
aa(lp87
S"@bogdant yepp, it tastes really delicious. I got it from the local EDEKA, it was like \xef\xbf\xbd3,99 for some ml but it's worth it! "
p88
ag10
aa(lp89
S"@Ameeeen i know! i'm embarassed that those ppl even got into the bash "
p90
ag3
aa(lp91
S'@KILA21 dang i cant look at it all the way through?! aww shuccks!  haha but thats cool'
p92
ag3
aa(lp93
S"Omg, I've been ay work 4 hrs and this is my first tweet!  Mondays are so busy and all my cases are messy.  "
p94
ag3
aa(lp95
S'Summary of weeklong gospel meeting: met more of our family in Christ, someone gave his life to Jesus, changed lives and big hugs. '
p96
ag10
aa(lp97
S'5th in eurovision last night '
p98
ag10
aa(lp99
S'My credit score is higher than 40% of the population and the star is at gold '
p100
ag10
aa(lp101
S'New Blog about a potential cake diaster!!  Ahhhh!    www.mandicrocker.blogspot.com'
p102
ag10
aa(lp103
S'@hiroko6 Tanjoubi omedetou! Did I get it right? Enoy  your special day. '
p104
ag10
aa(lp105
S'@dkmashino lots of me to go around too  http://twitpic.com/6b2a0'
p106
ag10
aa(lp107
S'LOL I LOVE seeing tweets that say GO REDWINGS! SCORE!! And I HATE THE REDWINGS, GO PENGUINS!!! At the very same SECOND '
p108
ag10
aa(lp109
S'Another loser: just lost the game  http://tinyurl.com/nm4y3l'
p110
ag3
aa(lp111
S'Last ride with my baby girl alexus '
p112
ag3
aa(lp113
S'@jonjordan w00t! Glad to hear it! Though I am missing watching it outside the Igloo by a day '
p114
ag3
aa(lp115
S"@garry1bowie pop in to Tesco and say hi! I'm working till 7, need cheering up! "
p116
ag3
aa(lp117
S'@omerKaplan thank you... '
p118
ag10
aa(lp119
S'hello again '
p120
ag10
aa(lp121
S'Off to work '
p122
ag3
aa(lp123
S'Sooooo early - off to teach my class at church this morning '
p124
ag10
aa(lp125
S'Pressly Anne Hamm misses her mommy while she is in Texas  http://apps.facebook.com/dogbook/profile/view/6480360'
p126
ag3
aa(lp127
S'@addie_c  this movie is so sad!'
p128
ag3
aa(lp129
S'@wylmite705 when kevin was playing piano  your head is right below me &gt;.&lt; ahhhh lol'
p130
ag10
aa(lp131
S'Man, the rain is pouring down... I wanted to get my tan on today '
p132
ag3
aa(lp133
S'@mileycyrus http://twitpic.com/6shtr - so peacful. '
p134
ag10
aa(lp135
S'@sevgli anyway... so what was the topic '
p136
ag10
aa(lp137
S'started updating my iPHONE but i left my power cord at home  sadly, this is the demise of my phone for the day UNLESS i go get the cord...'
p138
ag3
aa(lp139
S'im totally creepin on sterling knight.. yumm hehe! '
p140
ag10
aa(lp141
S'akkk--i need some major help with a design bug on my blog.  can someone ping me for some wordpress love before I cry?'
p142
ag3
aa(lp143
S"Oh well... I can't make cupcakes because we don't have enough eggs. "
p144
ag3
aa(lp145
S'@melody you sound like me. '
p146
ag3
aa(lp147
S'UGH! where is the pizza i ordered!!! '
p148
ag3
aa(lp149
S'@Mikey_894 u are always mean to me '
p150
ag3
aa(lp151
S'@Jean_Pierce OOC:  Okay.  Let him know we miss his smiling, guffawing face.  '
p152
ag3
aa(lp153
S'running outta peanut butter and jelly jam  but petenut butter and jelly would do tooo @petewentz'
p154
ag3
aa(lp155
S'ok my twitter is going funny...hmmmm more like grrrrrr @May7evn that wasnt meant for you...my bad '
p156
ag3
aa(lp157
S'i really want my nose pierced... but my mom wont let me. '
p158
ag3
aa(lp159
S"@geekachu i feel your pain - s'what my mish is for today "
p160
ag3
aa(lp161
S'hell yeah TGIF but im on-call '
p162
ag3
aa(lp163
S'need to upgrade FB connect, but I gotta go now  .'
p164
ag3
aa(lp165
S"can't get New Day from iTunes UK! "
p166
ag3
aa(lp167
S"@Gastonator hey hun. I'm pretty good  just doing some study  Gonna try and get close to 100% on my finals "
p168
ag10
aa(lp169
S'@OLMMark of course I remember that '
p170
ag10
aa(lp171
S"@Soulcialite @workathomenow @FeliciaFett @LianneFarbes @Poison_Ivy4 @SassyStilettos Unless it's in VA, thurs is hard for me "
p172
ag3
aa(lp173
S'@balliztik510 I work for myself, so I look at every job that comes my way - music videos, websites, folios, clothing etc '
p174
ag10
aa(lp175
S'Not a good day for our old dog - refuses to eat anything - never been through this before - so tough to watch '
p176
ag3
aa(lp177
S"Beyonce was so amazin last nite, wany go again i really hope she comes back soon :'( Best concert ive ever been at "
p178
ag3
aa(lp179
S'chidisan: Genevieve and Forest Whitaker at award show  http://tinyurl.com/dmdm4d http://tr.im/ki72'
p180
ag10
aa(lp181
S'@haykuro yeah, count me as one of the fools hyped for the wrong reason. '
p182
ag3
aa(lp183
S'@Thatreal504 nuffin  maybe swimming!!!!'
p184
ag3
aa(lp185
S"@VioletsCRUK aye u are  White on it's way woohoooooo"
p186
ag10
aa(lp187
S'Mine began last night but I have been having electrical problems AND AC problems since I got home yesterday...Having to deal with that! '
p188
ag3
aa(lp189
S'@AlexAllTimeLow im excited for your Melbourne one, it needs to be Saturday already. '
p190
ag10
aa(lp191
S'@ThatKevinSmith i wish so much i could go to the carnegie hall show   but i live in st louis and i am just a college teacher, no $$'
p192
ag3
aa(lp193
S"@catnmouse77 Well I've about given up on FB.  ARGH!!  "
p194
ag10
aa(lp195
S"@KyleeBelle: sts isn't playing anymore. I'm texting anthony right now. "
p196
ag3
aa(lp197
S'@THEREALJMAC lmbooo! Heck yeah..smh..I hate that '
p198
ag3
aa(lp199
S'@iheartpreston but of course! thanks for coming out to the tweetup! '
p200
ag10
aa(lp201
S'@juhasaarinen what? I do not speak Finnish or what that was, hehe '
p202
ag10
aa(lp203
S'tweeterizing from a mobile '
p204
ag10
aa(lp205
S'@WeeLin @KrystalSim Am damn excited about that new Resi. I LOVED Resi 2! '
p206
ag10
aa(lp207
S"@nick_carter  http://twitpic.com/3kygd Here's one of the pics from my camera! I'll email the other ones to Lauren "
p208
ag10
aa(lp209
S'I LOVE CHICAGO.   Tonight was AMAZING!!'
p210
ag10
aa(lp211
S'How is KFC out of chicken. What is the world coming too '
p212
ag3
aa(lp213
S'@mileycyrus have a safe flight and have fun!! '
p214
ag10
aa(lp215
S'Right, things I really must do! Incidentally, my Amazon ranking last night: 27,504. This morning: 4,056. '
p216
ag10
aa(lp217
S'@EmilyL219 hahahaha jonas was prettttty good, yeah kevin isnt so bad anymore guys '
p218
ag10
aa(lp219
S"Watching it storm in Hawaii at Turtle Bay.. Sadly it's only through a webcam. "
p220
ag3
aa(lp221
S"MissKatieRose it's almost 9am and to word from you! "
p222
ag3
aa(lp223
S"sad I'm going to have to go now and miss the end  will catch up on the website later I guess #nlab"
p224
ag3
aa(lp225
S"I might have a pilonidal cyst...  (don't google it. You'll vomit.)"
p226
ag3
aa(lp227
S'@limmeister Sorry to hear  Not sure what to say, but hope you and your fam will find strength &amp; comfort during this difficult time *HUGS!*'
p228
ag3
aa(lp229
S"@mandamilmo enjoy mexico. I'm not enjoying my self diagnosed swine flu "
p230
ag3
aa(lp231
S'@PompeyHendo glad you took the crap weather with you. Today was glorious in the Lakes '
p232
ag10
aa(lp233
S'is using today as a crappy revision/hwk day '
p234
ag3
aa(lp235
S"@kjerstia try and find the photo's that im uploading though - bet ya cant.  And thats the first time you have not got what im saying i ..."
p236
ag10
aa(lp237
S"@starringbuttons poor bb  at least you'll get it back in the summer..."
p238
ag3
aa(lp239
S'@pawloskyz Get 100 followers a day using www.tweeterfollow.com Once you add everyone you are on the train or pay vip '
p240
ag10
aa(lp241
S'@RussbyStarlite Ah, the glorious life of a puppy '
p242
ag10
aa(lp243
S"@AdrianaMarshall well then don't pick them out and stay here with your friends. lol jk i know u can't do that. "
p244
ag3
aa(lp245
S'Just had the worst tuna sandwich. On the upside, I have plans for drinks in the city already '
p246
ag10
aa(lp247
S"Going to see @markreadmusic tomorrow  can't wait to finally see him perform his own music live"
p248
ag10
aa(lp249
S"@always_v Awwww.  I hope whatever's wrong with it gets fixed! I guess that means we wont be seeing him tonight?"
p250
ag3
aa(lp251
S'@wendi916 I would '
p252
ag10
aa(lp253
S'Ryan has the morning off and is loving it '
p254
ag10
aa(lp255
S'almost time to go back to real life. The family leaves today '
p256
ag3
aa(lp257
S'@Delta224 No me this time  haha'
p258
ag3
aa(lp259
S"@ickleoriental hahahha.. U obviously don't hv one!! But maybe u can give me advice?  Fdw.. Foreign domestic worker "
p260
ag10
aa(lp261
S'@kim_bach thanks for the #protip! will do so right now '
p262
ag10
aa(lp263
S'Good morning twitter world '
p264
ag10
aa(lp265
S'listen my song from my i-pod '
p266
ag10
aa(lp267
S'watching jay leno, 2nd to last episode '
p268
ag3
aa(lp269
S"@kiwibrit I couldn't make today.  jetlag had me awake at 6am, then passed out at 9am. Ugh."
p270
ag3
aa(lp271
S'night night twits! im so glad I will be waking up to a saturday off work!! printer has broke though '
p272
ag3
aa(lp273
S'Goodmorning '
p274
ag10
aa(lp275
S'im listening to So Far So Great  @ddlovato'
p276
ag10
aa(lp277
S"@UlunkJoesandy oh. haha. ) I don't exactly know if who they are. lol. ) But it's all good now. "
p278
ag10
aa(lp279
S'@nicko236 I cant relax! something isnt right. it doesnt feel right!!!!   '
p280
ag3
aa(lp281
S'Paintballing is fun yet is very paintfull '
p282
ag3
aa(lp283
S'hayever is wrecking havoc  '
p284
ag3
aa(lp285
S'@deannaraybourn Hehe; I was only just contemplating sending off an email this afternoon.  Decided against it since I had nothing to say.'
p286
ag10
aa(lp287
S'@Dannymcfly http://twitpic.com/3iqyf - Tom are you Twittering on Twitter???? I think soooooo '
p288
ag10
aa(lp289
S'@dreambig906 I sang that with two of my friends for graduation... exactly 3 years ago today... makes me cry every time I hear it '
p290
ag10
aa(lp291
S"@Cookleta okay i'll surely ahve fun  i can't believe tis the last tym i'm meeting them  okay bye"
p292
ag3
aa(lp293
S"I have returned. It's 83F in my house. Gross "
p294
ag3
aa(lp295
S"PL\xc3\x84\xc3\x84\xc3\x84H!!! Boring..... I can't think up enything else here!!! hyv\xc3\xa4 et enkkuukaa en\xc3\xa4\xc3\xa4 ees osaa "
p296
ag10
aa(lp297
S"@samboaquino i miss u soo much!!! i'm going to watch 'growing up with baby' and 'gone with the wind' just for you! "
p298
ag3
aa(lp299
S'@tinkcupcake howdy '
p300
ag10
aa(lp301
S"@MisterRo I would happily send you my copy except I don't believe in sharing bad books with good people. That's mean. "
p302
ag10
aa(lp303
S'@MrsBeckie Thanks  I hope it all goes well today!'
p304
ag10
aa(lp305
S"I think it's unfair I have to miss the sun  all places of work should be closed an writing essays should not be allowed when it's sunny!"
p306
ag3
aa(lp307
S'http://twitpic.com/6925s - Im a fairy  Themed week in school^^'
p308
ag10
aa(lp309
S'now we are also on twitter  follow us to know the latest!'
p310
ag10
aa(lp311
S'@irasocol Yay! Those are great ideas &amp; need blog-level recognition; your tch training ideas are so important; keep up the good work '
p312
ag10
aa(lp313
S'BOUT TO HEAD OFF TO TRACK PRACTICE '
p314
ag10
aa(lp315
S"2.5 days until I'm on my way to South Africa!!!!  Too bad I missed the Rugby today   Bulle Bulle Bulle! hehe"
p316
ag3
aa(lp317
S'added 5 hindi songs to his playlist. '
p318
ag10
aa(lp319
S'In class '
p320
ag3
aa(lp321
S"I think I caught the fever...I'm freezing !!! "
p322
ag3
aa(lp323
S'is animating '
p324
ag10
aa(lp325
S'@tommcfly Tom, please say HOLA MEXICO just a once please '
p326
ag10
aa(lp327
S'@LittleWideWorld  thanks! looks like we have a site: @_Trevornick_ details being figured out for first ever #tweetcamp!'
p328
ag10
aa(lp329
S'http://twitpic.com/6irw5 - Happy Birthday, @mydesire  I made this for ya'
p330
ag10
aa(lp331
S'Haha my family are having a BBQ today, IN THE RAIN '
p332
ag10
aa(lp333
S'http://twitpic.com/7r169 - I already miss my hair! Not happy with my haircut '
p334
ag3
aa(lp335
S"I've got a sore throat "
p336
ag3
aa(lp337
S'unhappy as. bf not here  cant talk to him untill tomorrow. then im going away for 4 days, cant talk to him through that either. ill D:'
p338
ag3
aa(lp339
S'ugh had a day off for ONCE on tuesday and my stupid sorority-thingy called and said i had to work  and until 1 am! :|'
p340
ag3
aa(lp341
S'@jonasbrothers http://twitpic.com/5w7cr - Wow, I wish I was there '
p342
ag3
aa(lp343
S'AAAHHHHHH!!!! Sometimes you just got to yell... It makes you feel better! '
p344
ag10
aa(lp345
S'@Billie0127 word!!!  Looking forward to it!  '
p346
ag10
aa(lp347
S". @kellysue Jeez! Sounds like a typical LA night. We're having similar fun up in West Seattle.   Criminals can #suckit"
p348
ag3
aa(lp349
S'If I keep losing followers, I will be in that 80 Percent Of Accounts too  http://bit.ly/l1YZJV'
p350
ag3
aa(lp351
S'@Meli42 i say stick with the dark beer! '
p352
ag10
aa(lp353
S'ahhhhhaaaaaaahhhh! the dentist is gonna hurt my teeth! '
p354
ag3
aa(lp355
S'Oh my friend Bre tried out for Australian Idol, but didnt get in. I wanted a famous friend '
p356
ag3
aa(lp357
S"@RealDMitchell I'm originally from the Witney area and am the same age. I loved growing up in Oxon and had a similar childhood to you "
p358
ag10
aa(lp359
S"@ClaireFeely welcome back I hope you had a brilliant time which I'm sure you did "
p360
ag10
aa(lp361
S"My cantaloupe is icky and I'm almost out of hummus. This saddens me "
p362
ag3
aa(lp363
S"@pilky ...as those are the only ones with actual PS2 hardware. Unfortunately, I don't think those models were ever available in non-NTSC "
p364
ag3
aa(lp365
S"@stevecairney That's a bummer "
p366
ag3
aa(lp367
S'@katmangubat Just me and parents  Saw the beach, temples &amp; monkeys. Got to hold a python! Though the one I held in Manila was way bigger'
p368
ag10
aa(lp369
S"@kaylajagalherr no she's leaving soon cause she has work in the morning "
p370
ag3
aa(lp371
S'sewing party at my house during intersem. bleach your own fabric '
p372
ag10
aa(lp373
S'For the first time in many years, my birthday meant more then just  another notch on the belt. Thank you guys '
p374
ag10
aa(lp375
S'@nvade thanks, ndra.. masih under development  re: indogigs web'
p376
ag10
aa(lp377
S'@cazp09 aww cool  bet your all excited  has em got a preference ? xx'
p378
ag10
aa(lp379
S'Watching the logies '
p380
ag10
aa(lp381
S'@KCLAnderson No problem. Glad to hear it '
p382
ag10
aa(lp383
S'i always enjoy watching A.S.A.P. every sundays. '
p384
ag10
aa(lp385
S"@tommcfly can I have some of your nice weather? It's raining here "
p386
ag3
aa(lp387
S'@thscrv Lindo nome o dela, Tia Thais '
p388
ag10
aa(lp389
S"I got chills when Bill told Sookie she was his miracle @AdamOrtega, and I havent seen it since 07  &amp; I say he's a rip cuz they're similar"
p390
ag3
aa(lp391
S'@boywonder101 @3CB @louizah mornings?!  @PinkM @Intelligensia Sorrys!! '
p392
ag3
aa(lp393
S'@gjmyaya I think u need some sleep. Your starting to hallucinate and come up with some crazy shit, lol. Crazy woman.  '
p394
ag10
aa(lp395
S"Just trying out my new Twitterville theme  don't know what to call it though..."
p396
ag10
aa(lp397
S'Mtv movie awards  hey '
p398
ag10
aa(lp399
S'@songbirdtree .....  at least you have a bf..... now my friends are posting baby pictures'
p400
ag3
aa(lp401
S'$44.30 cheapest delivery to order the Sam &amp; Max Celebration special  REALLY want it, you really need a UK store @telltalegames'
p402
ag3
aa(lp403
S'Its as easy as breathing. '
p404
ag10
aa(lp405
S'Another hour of work!!! '
p406
ag3
aa(lp407
S'@emilyjanewilson haha I just saw your tweet!! See ya tomorrow!! '
p408
ag10
aa(lp409
S"@emilyylin Emily! A bit too much wine, don't ya think? Haha..  glad your having fun!"
p410
ag10
aa(lp411
S'@cassusriff Same place as always. Good ole AT&amp;T.  Still hustling those iPhones.'
p412
ag10
aa(lp413
S'@ngeny they will almost certainly come back empty-handed  @3CB maybe Muite and his crew are seeking attention not the maumau'
p414
ag3
aa(lp415
S'says my legs are aching so badddddd.  http://plurk.com/p/12eomq'
p416
ag3
aa(lp417
S'My paper is online!    It will be published (on paper) on july! '
p418
ag10
aa(lp419
S"@_HeatherBailey  Good luck!!  How exciting.  Can't wait to see what you have coming. "
p420
ag10
aa(lp421
S'Paddy Cake chocolate chip cookies (I just ran 5.5 mi, so :-P), decent but not discernibly better or worse than say, Whole Foods or SBUX. '
p422
ag3
aa(lp423
S'@RyanSeacrest Not sure if you see this!  But please, ask Adam if he is gonna work with either QUEEN or K.I.S.S --- Thanks bunches !!!'
p424
ag10
aa(lp425
S'Omg............   Four am was a bad choice. '
p426
ag3
aa(lp427
S"Is looking for a dress for her friend but can't find it "
p428
ag3
aa(lp429
S'as are their bacon cheeseburgers! delicious! '
p430
ag10
aa(lp431
S"Windows live ad on facebook is very cool looking. Altho it's made in flash "
p432
ag3
aa(lp433
S'Wah, your love interest in the next video? ...no bueno '
p434
ag3
aa(lp435
S"I'm really sad honor society is officially gone "
p436
ag3
aa(lp437
S'i have poop on my shirt and a insanely cracked screen on my iphone. daaaang. '
p438
ag3
aa(lp439
S"really looking forward to the sat's tomorrow...not. seaside afterwards should make up for the four hours of torture "
p440
ag10
aa(lp441
S'I love @therealsavannah! Thank you SO much for saying &quot;hi to Jenn &amp; Laura&quot; yesterday in Arcadia! My friend Shannon surprised me w/the vid '
p442
ag10
aa(lp443
S"All luv tweeps.... My eyes will soon defeat me  I'll holla in a few hours. Happy Monday baaaabee!"
p444
ag10
aa(lp445
S'Im at my job orientation...i came too early, now im gonna be board. '
p446
ag3
aa(lp447
S'@ddlovato http://twitpic.com/3lwfk - Have fun in spain!!! We love u! Next time come to Barcelona u would love it! I see u june 13 '
p448
ag10
aa(lp449
S'@Bones_Fans Thanks! You too! Night! '
p450
ag10
aa(lp451
S'@littlebakery ooh...pretties! '
p452
ag10
aa(lp453
S'is waiting for her roast dinner  and has been up for agess'
p454
ag10
aa(lp455
S"Applying to be a 911 Dispatcher is kind of tempting (the pay at least)...but I'm kind of sick of phone jobs. "
p456
ag3
aa(lp457
S'Seriously.  I just want to go to sleep! '
p458
ag3
aa(lp459
S'@nicolerichie I agree....no heat here '
p460
ag10
aa(lp461
S'taking spy!shots.. Of the council dude cutting down my fav tree   http://twitpic.com/61f94'
p462
ag3
aa(lp463
S'Photo: aww i like this. i actually love taking photos  http://tumblr.com/xdr21r85z'
p464
ag10
aa(lp465
S"Tired....don't feel like working today....it's raining to... "
p466
ag3
aa(lp467
S"@jeffpulver maybe the journalists and editors who'll be there will help spread the word "
p468
ag10
aa(lp469
S'@Matt_Tuck MY FAAAAAAAAAAAVE '
p470
ag10
aa(lp471
S'@bevashwell  Why thank you kind lady! I actually hope we get 6 '
p472
ag10
aa(lp473
S'@john_yeo Thanks for the follow, John. Looking forward to your updates '
p474
ag10
aa(lp475
S'The Lions had to hang in there at the end, still undefeated though   #Lions'
p476
ag10
aa(lp477
S"I'll just keep wishing and dreaming. "
p478
ag10
aa(lp479
S'@jsanborn Your welcome '
p480
ag10
aa(lp481
S'Is cold and tired, and lonely '
p482
ag3
aa(lp483
S"Why won't my NYT US news RSS work in Google reader? "
p484
ag3
aa(lp485
S'@nesquicus simon said aidan wasnt as gd as last night tho  ooh FINALLY vlog!  and yes diversity were AMAZING!!! AHHHH!!!!   '
p486
ag10
aa(lp487
S"@maleesha Plan to take my gal there this weekend - she's the expert (I'm a burger guy)  Will let you know what she thinks!"
p488
ag10
aa(lp489
S'my nights get here way tooooooo fast '
p490
ag3
aa(lp491
S'www.myspace.com/danipetri just friend request me '
p492
ag10
aa(lp493
S'@TYRESE4REAL http://twitpic.com/6om61 - Aww such a cutie,,, too adorable... GOD BLESS!!!! XOXO '
p494
ag10
aa(lp495
S"@punkrockchic Yeah i've been watching to shoot a wedding party w/ something in a store with carts. or at the detroit zoo. "
p496
ag10
aa(lp497
S'@Schantzman87 Okay thank you '
p498
ag10
aa(lp499
S'@veriette : Some of us have to shave it coz we go bald '
p500
ag3
aa(lp501
S'@alyssagregus No big deal or anything, but Michael Thot (from Kid Nation) FINALLY accepted me on facebook.  \xe2\x99\xa5'
p502
ag10
aa(lp503
S'I just heard that there is a divorce in the family, this sort of things are sooooo sad. '
p504
ag3
aa(lp505
S"2 exams left 9 days 'till denmark "
p506
ag10
aa(lp507
S'@aquakat37 its true. Natalie is at disneyland. Amanda is at the zoo. You guys are at the mall. I have to clean the house '
p508
ag3
aa(lp509
S'#followfriday @CMoz and @appsandhats for the best #iPhone reviews around '
p510
ag10
aa(lp511
S'Okay @xoxo_jazz u dnt win yet all u need is 1 mo prsn!! '
p512
ag3
aa(lp513
S'Prostate cancer survivor on hormone treatment on his brief as a woman. Funny &amp; compulsory reading, esp if u r a bloke.  http://tinyurl ...'
p514
ag10
aa(lp515
S'headache  hope my day will better tomorrow'
p516
ag3
aa(lp517
S'@amazing_sauce hehe you can kick my professor in the head. thanks. '
p518
ag10
aa(lp519
S'@Freddy1990 i do that all the timee! its sucks to wake up on a very good dream. and i say it focus get on that dream again!!! '
p520
ag10
aa(lp521
S'@Mcticktock oh if i can come for free then i dont see why not '
p522
ag10
aa(lp523
S'ENOUGH GUiTAR HERO FOR ME TONiGHT. OR THiS MORNiNG LOL [FiNGER CRAMPS] ...OFF TO READ THE COUNT OF MONTE CRiSTO [ FAV. BOOK ]    '
p524
ag10
aa(lp525
S'@Mizz_Jojo Yes that jiminy!    I think I need my beauty sleep. It was a pleasure chatting wih you too JoJo!  Buenos Noches!'
p526
ag10
aa(lp527
S'X Web hosting is down just now '
p528
ag3
aa(lp529
S'Off to bed .. Sweet dreams everyone  .. Busy weekend getting ready for our trip .. YAY! .. Nighty night ..'
p530
ag10
aa(lp531
S"Once today is finished I'm off for the weekend ! Woo Hoo "
p532
ag10
aa(lp533
S'GW Day 1! What are YOU doing? '
p534
ag10
aa(lp535
S"@CeeCeeJayez yeah I know xD, I like ne-yo's bit  miss independent..2 the fullest!"
p536
ag10
aa(lp537
S"MADD at slow drivers early this morning!!! I'm hungry "
p538
ag3
aa(lp539
S'Oh no. Thinking...not a good sign '
p540
ag3
aa(lp541
S'Taking a nap. I feel like poopyyy. '
p542
ag3
aa(lp543
S"Let's pray that I don't fall asleep on the way home... "
p544
ag3
aa(lp545
S'sick of chest infection, sick of volunteers and sick of tidying. This is NOT what a Friday should be '
p546
ag3
aa(lp547
S"Missing @CDAWGLINLEY  SO much, i can't deal with it any longer  i need my codykins"
p548
ag3
aa(lp549
S"Terminator Salvation is not getting good reviews  I am always suspicious when reviews don't get advanced viewing http://tinyurl.com/ptb5xz"
p550
ag3
aa(lp551
S'OMG massive influx of HS friends in Twitter lol! Hai guiiiseee! '
p552
ag10
aa(lp553
S"My puppy's in the vet hospital overnight awaiting surgery because he broke his leg. "
p554
ag3
aa(lp555
S'---- jus  came back from lavish lounge... best tyme '
p556
ag10
aa(lp557
S"@Dani_face. Ugh that sucks. Good luck tho. You'll have some replies to read when you get done at least. "
p558
ag10
aa(lp559
S"Thanx @bigrobnasty for effing my day up! LOL j/k. Good meerning! Loved the NJ Finale last nite, wish it wasn't over  Who watched??"
p560
ag3
aa(lp561
S'@MadCrossMyTees cant buy it now. saving money. '
p562
ag3
aa(lp563
S"http://twitpic.com/6gr9t - Shit. The hot glue is breaking. I guess I'll use silicon. "
p564
ag3
aa(lp565
S'SCHOOL IS OVER! - it has been a week since it was over   i am V E R Y happy!'
p566
ag10
aa(lp567
S'ouch  my body is hurting so much! i got orange shorts and a baby bluee sweatshirt though '
p568
ag3
aa(lp569
S"It's so hottttt in my house  "
p570
ag3
aa(lp571
S"the best song ..''the climb'' ! congratulations @mileycyrus you're the best!!!! "
p572
ag10
aa(lp573
S'@cocoa1990 oh im sorry! I forget you dont watch it live.  damn me'
p574
ag3
aa(lp575
S'@sammieepaige okay.  i thought sleep made your head ache worse. @_@'
p576
ag10
aa(lp577
S'Watching Twlight with comentary '
p578
ag10
aa(lp579
S"kudos to my first day of senior year in college + first day of True blood's second season "
p580
ag10
aa(lp581
S'i think my personal computer is broken '
p582
ag3
aa(lp583
S'jobs are so hard to get atm  @beckywithlove'
p584
ag3
aa(lp585
S"Back at the office! Need me?? Come see me or call me cause I fo sho can't leave  Wait how am I getting home?"
p586
ag10
aa(lp587
S'@jeffmccord ahh come on! The weather I great.... And it is my birthday month!! '
p588
ag10
aa(lp589
S"@withgoodworks 'tis all my fault. I kept everyone up :S "
p590
ag3
aa(lp591
S"fuuuuuun at charo's whoohooo @lacheeeks is still the best "
p592
ag10
aa(lp593
S"If I hit mi brother &amp; sister in my house,no one c't asked abt human rights or humanity, its nt a violence..cos its my inner house probs.. "
p594
ag3
aa(lp595
S'is up and moving.  . Graduation tonight and seeing my Love.'
p596
ag10
aa(lp597
S"this is boring coz no one's really tweeting when i tweet coz everyone's in US and im stuck in australia!  it's not fair!"
p598
ag3
aa(lp599
S'First day of school tomorrow! '
p600
ag3
aa(lp601
S"spinning @avfkw yak/merino from last month's club shipment, love it "
p602
ag10
aa(lp603
S"DE's studying and will be home in two days "
p604
ag10
aa(lp605
S'I thank God for coffee '
p606
ag10
aa(lp607
S"... I wonder when you get home 'cause I'm waiting for so long "
p608
ag3
aa(lp609
S'sad just sad day. '
p610
ag3
aa(lp611
S'@LilPecan I doubt anyone would hate someone for being a Libertarian if they understood. Republicans have given us all bad names. '
p612
ag3
aa(lp613
S'@bohoe WIFI cards for free but dongles? Greenbacks only my friend... or whatever the euro is known as '
p614
ag10
aa(lp615
S"@chevale  looks like u have to stay up all night to do the assignments  hehe no I'm not sleepy. still online &amp; twitting! ;D"
p616
ag3
aa(lp617
S'@xanabioticx I eat too much junk food '
p618
ag3
aa(lp619
S"@stardustdelilah yep it's raining so unless it stops, no fireworks "
p620
ag3
aa(lp621
S'@thisgoeshere oh shit  i cant screencap! :O took a picture instead'
p622
ag3
aa(lp623
S'Drunk hiccups WTF '
p624
ag3
aa(lp625
S'@aplusk had never heard this song before! it was awesome!! thanks '
p626
ag10
aa(lp627
S"police have given me a criime ref number, gonna ring back monday if keys still missing and they'll report it as theft!  joy oh joys!!"
p628
ag3
aa(lp629
S'i miss ma ipod fuck u abbie fa taken it  i wan ma babyyyyyyyyyyy'
p630
ag3
aa(lp631
S'Why wouldnt you want big booobs? i would die for some... '
p632
ag10
aa(lp633
S'guna play some gears, then pizza time '
p634
ag10
aa(lp635
S'sch oo l  !  kindaa  irritated  ,,  bt  it  aint  a  thang  baby  '
p636
ag10
aa(lp637
S'wish i was a senior for senior ditch day!! have to go to school '
p638
ag3
aa(lp639
S'Oh no! Epic fail on Beef burgundy with horseradish dumplings.  They  were like little white turds in an otherwise respectable casserole '
p640
ag3
aa(lp641
S'Headache  off to bed'
p642
ag3
aa(lp643
S'Soar throat, headache...summer cold is here. '
p644
ag3
aa(lp645
S"@MJJNews @MJJNews what's the duel today? "
p646
ag10
aa(lp647
S'going to school in just a minut - I REALLY DO NOT WANT TO! '
p648
ag10
aa(lp649
S'Magic do me one favor beat lakers ass! Poor bron bron '
p650
ag3
aa(lp651
S'this song makes me cry i should maybe stop listening to it but '
p652
ag3
aa(lp653
S"@jmbisbee I don't think I've ever gotten to leave early on a Friday "
p654
ag3
aa(lp655
S'my nose hurts and it looks ike ive ben snortng coke.. '
p656
ag3
aa(lp657
S'Why is today not starting out so great? '
p658
ag3
aa(lp659
S'Shutting down for the night. Will watch Syoerbad until I fall asleep. '
p660
ag10
aa(lp661
S"@zzevilgeniuszz I'm not scared...I just don't want you to cry about me getting a higher score.  "
p662
ag10
aa(lp663
S'@purplejellybean  tks D'
p664
ag10
aa(lp665
S"@Steake How's school London's gorgeous! "
p666
ag10
aa(lp667
S'@charlyefenty :-O Oh now see that hurt  Innocent my azz!!!'
p668
ag3
aa(lp669
S'Tune in tomorrow for the next exciting #Iceland fact! '
p670
ag10
aa(lp671
S'Crashing.  CT in the AM, then visiting friends.  '
p672
ag10
aa(lp673
S'@CarnivalBunny Are You serious? You never told me about no BF '
p674
ag3
aa(lp675
S'Getting ready for school! yah  But only 3 weeks left!!!!!!!!!!!!!! '
p676
ag3
aa(lp677
S'@taylorswift13 I wanna do that!! '
p678
ag3
aa(lp679
S"the brush i need is one that needs some serious cleaning  but it's too late at night"
p680
ag3
aa(lp681
S'has learned a new juggle(/bounce?) for christie  yeyee.. 5 wins nadagdag sakin and 2 loss  http://plurk.com/p/z2fhe'
p682
ag3
aa(lp683
S"it's going to be a busy Friday - and I am working on the bank holiday - yippee "
p684
ag3
aa(lp685
S'@RizzoTees LOL, point at yourself and laugh!  '
p686
ag10
aa(lp687
S'@fat_rose She is beautiful. '
p688
ag10
aa(lp689
S'@Narelle_NZ ouch they can be a pain  get them at work with the bag tags and boarding passes at time ...'
p690
ag3
aa(lp691
S'ok, calling it a night.  have a good one tweeters '
p692
ag10
aa(lp693
S"Back from first Youth Group meeting and can't wait to go rollerskating in a week's time.  So excited "
p694
ag10
aa(lp695
S"fuuuuuuuuuck! can't make CRANK MOB tonight.. "
p696
ag3
aa(lp697
S'@lclaurenconrad http://twitpic.com/49ck3 - thats so cool! we dont have that in Australia, shame haha '
p698
ag3
aa(lp699
S'I WANNA MARRY A DJ yall got any DJz Available ? except @DJTGUTTA lmao  )'
p700
ag10
aa(lp701
S'A good run in the morning is good for the soul... and the heart '
p702
ag10
aa(lp703
S'@unicornkid i burned my chemistry physics and music books. it was amazing '
p704
ag10
aa(lp705
S'@bews Awww  Named after the cartoons by the same name?'
p706
ag10
aa(lp707
S"The DVD burner on my new Dell 6500 laptop isn't supported by iTunes, and I cannot burn CDs!     I'll have to look into that later."
p708
ag3
aa(lp709
S'NO MORE SCHOOL  YEAAA!'
p710
ag10
aa(lp711
S"@gfalcone601 My crazy dream is that one day you follow me in twitter,I don't know why but It would be so fantastic.Hi teddy friend "
p712
ag10
aa(lp713
S'@VoiceofCritics Thats exactly what Im gonna watch LMAO. So...Im assuming its good '
p714
ag10
aa(lp715
S'dont work the same on twitter  booooooo'
p716
ag3
aa(lp717
S'Goodmorning '
p718
ag10
aa(lp719
S'wonderland this weekend? ! '
p720
ag10
aa(lp721
S'@icasocot You can sync your tweets with Facebook thru the selective twitter status app! '
p722
ag10
aa(lp723
S'@joannayoung Sun shining here '
p724
ag10
aa(lp725
S"I'm very honored to be lectoring at the wedding of two friends, but does it always have to be 1Cor:13 ? "
p726
ag10
aa(lp727
S'@xKerplunkx I hate you! My last exam is on 24th June. '
p728
ag3
aa(lp729
S"@curlygirlyML yeah that sounds good. We should lay out before bc it'll most likely be raining after just like everyday!!! "
p730
ag3
aa(lp731
S'http://bit.ly/2IV80i  - Rhino talks about JavaZone -  haha '
p732
ag10
aa(lp733
S"@mackenzeepierce well everyone can't be smart and beautiful like you  going to do some work now before bed. Sweet dreams. Nice 2 talk 2 u!"
p734
ag10
aa(lp735
S'My newly created cache (http://is.gd/wxT6) already vanished after 3 days. Hope that I can find it back. If not, I need to archive it '
p736
ag3
aa(lp737
S'Once again registering for classes- one of the ones I registered in has been canceled. '
p738
ag3
aa(lp739
S'watching a movie and relaxing '
p740
ag10
aa(lp741
S'Really needs to do my roots but I have event to go to in 3 weeks!! Damn my job '
p742
ag3
aa(lp743
S'roasted chicken, tomatoes and rice makes a hearty family dinner, and mango to round it off '
p744
ag10
aa(lp745
S'http://lights-love.com/ NEW video interview with LIGHTS at Give it a Name - go check it out!  (via @kaylalightslove)'
p746
ag10
aa(lp747
S'Windows 7 RC official from MSDN now installed using Boot Camp. Sound drivers not working '
p748
ag3
aa(lp749
S'@SteveMoyes Morning Steve, I wish the sun would come out round here!  Got an apiary visit this afternoon - beekeeping under brollies ... '
p750
ag3
aa(lp751
S'is totally covered in mosquito bites. Owww  &lt;*Ruthalyn*&gt;'
p752
ag3
aa(lp753
S'@UnderoathBand Johannesburg, South Africa; wants to see you guys again! Are u feeling it? '
p754
ag10
aa(lp755
S'Listenin to music tryin to figure out what to get into tonight...Prolly the club '
p756
ag10
aa(lp757
S'@AshaMinaj was i invited?..nooooo '
p758
ag3
aa(lp759
S'@cazling need my address...to stalk me ? ;) i am working on ur drawing...but i suck @ life. '
p760
ag3
aa(lp761
S"@marniejb Yeah, in this particular client. I relaunched and it's fine now. "
p762
ag10
aa(lp763
S"@markseesyou lucky u were sober for once! lol jks. i've never been RBTed "
p764
ag3
aa(lp765
S"tired from work. don't want to go back  can't I ust be rich instantly????"
p766
ag3
aa(lp767
S'@abcalifornia thats sad '
p768
ag3
aa(lp769
S'is digging deep to find ambition to organize notes, write a history paper and begin studying for finals.. but the bed is waaaay too comfy '
p770
ag10
aa(lp771
S'@designingrock   what is an M.U.? and put a photo rockstar! '
p772
ag10
aa(lp773
S"@jessiemona word, you preach? That's awesome  ! I'm sure you did wonderfully !"
p774
ag10
aa(lp775
S'Going to bed. Got a long drive in the passenger seat tomorrow. LOL. Then I gotta hear it from the wifee.  Sorry, babe. I love my Nellie!!!'
p776
ag3
aa(lp777
S'@missoliviaa I was thinking the same thing, but to my tangers of course '
p778
ag10
aa(lp779
S'@gandmetz oui mon petit poisson! i will do so  A x'
p780
ag10
aa(lp781
S"new problem: humane society doesn't take animals until 9am. so the cat is stuck in an office, meowing, for another 2.5 hours. "
p782
ag3
aa(lp783
S"@room704 yeah where's my funny one... "
p784
ag3
aa(lp785
S'gonna try and relax ....Parents coming down for a cookout ...then Ryan is working off duty '
p786
ag3
aa(lp787
S"@pollypearson Good luck! Have a great evening. Sorry I couldn't make it. "
p788
ag3
aa(lp789
S'@Spidersamm hahah shut up  ill text you random pick up lines woo, ily x'
p790
ag10
aa(lp791
S'Another beautiful day @ nyc '
p792
ag10
aa(lp793
S'going to bedd  text mee'
p794
ag10
aa(lp795
S'FUUCK WHY CANT I LAND ANY TRICKS ON MY SKATEBOARD, I CAN SPIN THEM AND SHIT I JUST CANT SEEM TO LAND THEM '
p796
ag3
aa(lp797
S'Misses her work peeps '
p798
ag3
aa(lp799
S'Awake. Felt like I slept for years. '
p800
ag10
aa(lp801
S'Although delicious, Orbit Positively Pomegranate gum totally stinks up my cupboard and makes everything in it taste fruity.  '
p802
ag3
aa(lp803
S'@Didagod not yet. way behind on song checkage  will do today. #promise'
p804
ag3
aa(lp805
S'@craigclarke1984 Bad times brotha. '
p806
ag3
aa(lp807
S'@Azeleen *g* yeah i think. in rl they get that certain face  on the net, its more difficult 2c... but as i said i dont get offdended fast'
p808
ag10
aa(lp809
S'Still watching IT...R.I.P. Jonathan Brandis '
p810
ag3
aa(lp811
S'I ripped the crotch of my jammies '
p812
ag3
aa(lp813
S'@marcusfoster1 Poor Marcus.... '
p814
ag3
aa(lp815
S'@midnightevent - i hate u! lady gaga followed you, hmmmph!  jk'
p816
ag10
aa(lp817
S"would like 2 announce that i'm day off 2morrow &amp; planning on wearing shorts &amp; tee shirt &amp; burning as best I can  I may even have a drink"
p818
ag10
aa(lp819
S"I can't sleep...that damn nap screwed me up! "
p820
ag3
aa(lp821
S'@ACY1 thank u '
p822
ag10
aa(lp823
S'your first two kids!!!!!! '
p824
ag3
aa(lp825
S'@usmcwife8999 thanks! they are really old - i need to do another one, with more recent photos, with better camera '
p826
ag10
aa(lp827
S'@wilw I rarely get good cofee  let alone cofee at all'
p828
ag3
aa(lp829
S'i cant get in.  i have the same password and user dammit FML'
p830
ag3
aa(lp831
S'and now Im sad cause I dont think my pic is showing up '
p832
ag3
aa(lp833
S'Soundfix in Brooklyn cleaned out of most the goodies in 90 minutes.  #RSD09'
p834
ag3
aa(lp835
S"@SunnyDeelight You're kinda cute. "
p836
ag10
aa(lp837
S'Watching me some saturday night live after today i gotta record it cause i gotta be at work at 5 sundays '
p838
ag3
aa(lp839
S'@fallinfromstars cool  sounds fun. Wish we had one of those.'
p840
ag10
aa(lp841
S'@IWCharters Well enjoy your run.  '
p842
ag10
aa(lp843
S'I just caused people problems lmao and i laughed for eleven minutes straight. '
p844
ag10
aa(lp845
S"@tynie626 aww!! cute pics of the boys, i take it you missed them   im surprised there wasn't some sort of mob frenzy!"
p846
ag3
aa(lp847
S'Sleepy time then back to London in the a.m. '
p848
ag10
aa(lp849
S"@OfficialAS sorry  I've been TRYING to finish this assignment. EPIC fail there  how was your day?"
p850
ag3
aa(lp851
S'So my tweet twitters, I am off to the big wide world of Wally Mart. No list made, so, my wallet is at jepardy  Later to you, twitter on'
p852
ag10
aa(lp853
S'@garnuth &amp; I are about to begin our 1st Chinese lesson from the comfort of our living room. This is going to be an adventure. '
p854
ag10
aa(lp855
S"@cassowaryjewel it didn't get about 50 today "
p856
ag3
aa(lp857
S'playing with my baby rats!!!!!! ooh they are so cute '
p858
ag10
aa(lp859
S"@paulg23 we're in the punter pub on Cheltenham lane - come and join us here at the wedding reception. "
p860
ag10
aa(lp861
S'@glenda815 Sounds like a good day for the kiddoes to lay on a palette and watch a LONG movie so mom can have some downtime! '
p862
ag10
aa(lp863
S'@aplusk man... how do you get 2 million and I got.... 27?.... give me some followers '
p864
ag3
aa(lp865
S"can't stop watching slow loris videos on youtube "
p866
ag3
aa(lp867
S'@Moriqua143 I hope u 2 have fun! '
p868
ag10
aa(lp869
S"so... i need to join that RK comm someday soon!  I feel like I'm missing so much!"
p870
ag3
aa(lp871
S"I  can't go to the MMVAs tomorrow...a few reasons that twitter will not let me explain...hopefully by some miracle I'll be able to go "
p872
ag3
aa(lp873
S"Watched Sweeny Todd during Tequila Taco Tuesday - thus dubbed by Caitlen and Ruth after an amazing trip to Wal-mart, Maurice's and the DI "
p874
ag10
aa(lp875
S'Yay!! I just got my new car!!! Thank u lord '
p876
ag10
aa(lp877
S'I have an exciting, long day tomorrow.... Time for bed  xoxo'
p878
ag10
aa(lp879
S'@DJKidFamous thanks for the love sweety '
p880
ag10
aa(lp881
S'no milk... so how about water + heavy cream to make oatmeal? verdict? tastes like eating butter '
p882
ag3
aa(lp883
S'@diana_mazzone There is something wrong with the entry site....it is temporarily down. '
p884
ag3
aa(lp885
S'@sunky Oh damn, and @_pants_ was getting all excited too... playing co-op I mean... on Rock Band. '
p886
ag10
aa(lp887
S'I love Brandy fans '
p888
ag3
aa(lp889
S'hahaha hey look its junior and Garyyyyy!  oh good times. http://twitpic.com/6spud'
p890
ag10
aa(lp891
S"But _____'s mom loves me, so she'll quit "
p892
ag10
aa(lp893
S'@redblublur Haha, in some ways, yups, a loooooooong time ago '
p894
ag10
aa(lp895
S'I wish I could see my mommy 2mar. I feel terrible. '
p896
ag3
aa(lp897
S'@CupidsEscorts ah life is tough.. though it could be better when drinking Krug.. salute '
p898
ag10
aa(lp899
S'My neighbours are cretins '
p900
ag3
aa(lp901
S"I think it's great the kids can still play outside at 7 p.m. "
p902
ag10
aa(lp903
S'Glad to see that inFamous has been getting good reviews.  Very tempted to buy it now.'
p904
ag10
aa(lp905
S'off to amherst for the day '
p906
ag10
aa(lp907
S'ugh stomach ache!Z '
p908
ag3
aa(lp909
S'\xe5\x9c\xa8facebk\xe9\x96\x8b\xe4\xba\x86\xe5\x80\x8bpost\xe6\x8e\xa8beyond\xe9\xa6\x96\xe6\xad\x8c(\xe9\x80\xa3\xe8\x87\xaa\xe5\xb7\xb1\xe7\x9a\x84\xe6\x84?\xe8\xa6\x8b\xe9\x83\xbd\xe7\x84\xa1\xe5\x8a\xa0), \xe7\xb5?\xe6\x9e\x9c\xe8\xa2\xab\xe4\xba\xba\xe6\x80\x92\xe9\xa8\x8e\xe5\x8a\xab.... \xe4\xbb\xb2\xe8\xa6?\xe6\x9c\x89D\xe4\xba\xba\xe6\x88\x91\xe4\xbf\x82\xe5\x94\x94\xe8\xad\x98\xe7\x9a\x84!   http://plurk.com/p/xzezm'
p910
ag3
aa(lp911
S"@kelsetsilcox damn, it's out of stock on the only legit site that has it "
p912
ag3
aa(lp913
S"haaaaa haaa. I could say something.. but I promised I'd stop* with that said night night twitts.. "
p914
ag10
aa(lp915
S'Ive slept for about 13 hours so far today! '
p916
ag10
aa(lp917
S'@Camcamycam Anyone who thinks WoW is somehow worse off than it was in 2004 has a bad case of rose-colored lenses. '
p918
ag10
aa(lp919
S'JUST woken up. 9 hours sleep seems to have helped '
p920
ag10
aa(lp921
S'Banda music, tacos, familia at the park. What a lovely day! '
p922
ag10
aa(lp923
S'Well as long as he is aware he is a house of crazy twatters '
p924
ag10
aa(lp925
S"I'm at school!  francisco, Jomar, And Trystin are all like &quot;Jason&quot;  eeeeeewwww!!!"
p926
ag3
aa(lp927
S'My back is killing me '
p928
ag3
aa(lp929
S'@TomFelton thx for information, Jade! hope everything goes well '
p930
ag10
aa(lp931
S'@that_rueb_kid ahh! Boo! That sucks.  haha come here! Lol all of our providers have contracts with twitter!'
p932
ag3
aa(lp933
S"I've forgotten how much fun I used to have with these girls put together. I'm in a good mood! &amp; already back to my old sleeping times "
p934
ag3
aa(lp935
S'@jeyowenji I guess so. '
p936
ag3
aa(lp937
S'ah. had a great day. end up eating chocolate cake. '
p938
ag10
aa(lp939
S"school ended today i'm sad, mad, frustrated, irritated, mopey, and i'll definately miss my friends! "
p940
ag3
aa(lp941
S'@putriberendam My son found the flyer: Waffle Factory @ SingPost Ctr, #B1-03A. Waffles, Spaghettis, soups, local food, special drinks. '
p942
ag10
aa(lp943
S"@AboveAllFabric wow! you've been tweeting all night!! looks like you totally made up for the day "
p944
ag10
aa(lp945
S'Radiohead, Hail to the Thief &quot;2=2=5&quot; good song '
p946
ag10
aa(lp947
S'@f0rkins0cket Okie dokie. Sounds good. I need to fricken find my yearbook. That means someone stole mine or someone has two. '
p948
ag3
aa(lp949
S'you make me happy ^^ '
p950
ag10
aa(lp951
S"After trying to persuade some Bellmorons to attend, it appears I won't be watching MTV shoot their Emerson quidditch promo today "
p952
ag3
aa(lp953
S'damn. i forgot hippo my iPod!!! '
p954
ag3
aa(lp955
S"@HanaStephenson not much - emails again and had driving lesson today and test tomorrow  and than I'm done! I will be! "
p956
ag10
aa(lp957
S'I guess Target no longer sells Caribou Coffee.  '
p958
ag3
aa(lp959
S'If you arent doing anything tonight hit up the bowling alley. '
p960
ag10
aa(lp961
S"It pisses me off that my PC can't cope with having Photoshop &amp; iTunes running at the same time "
p962
ag3
aa(lp963
S"I'm enjoying Mr Ross, having fun talking to Tom Hanks.  2 clever, funny men in suits.  Cool.  "
p964
ag10
aa(lp965
S'9AM. just woke up. slept at 2AM. had the scariest nightmare. '
p966
ag3
aa(lp967
S"I sleep so much yet I'm always still so tired. Good thing I can sleep late again tomorrow! "
p968
ag10
aa(lp969
S'@hanabana09 Mhm.  We need to hang soon.'
p970
ag3
aa(lp971
S"@karlerikson Drunk call me and I'll come get you.  "
p972
ag10
aa(lp973
S'@JonathanRKnight glad u made it back 2 LA safe..sorry ur trip was hell..i guess it was day of hell 4 both of us  maB 2morrow will b better'
p974
ag3
aa(lp975
S'@Laurenn26 ignore my last tweet n I am sorry for supposedly rapping your cousins  please forgive me'
p976
ag3
aa(lp977
S'it is not a day to be office day, it is a day to be fun day.... and I have meetings...  and emails... of course'
p978
ag3
aa(lp979
S'_____easton is soooo full of life . loves it! eh, oh yeah eatin at popbelly, then movie at 7:10. -fast &amp; furious 3 ? lol    '
p980
ag10
aa(lp981
S"@mandisaofficial  You were there and I missed it. Couldn't afford WOF Hartford this year. Waiting for Boston again.  "
p982
ag3
aa(lp983
S'@lexigeek Glad I could help! '
p984
ag10
aa(lp985
S'@lein_  Leiiin I can play the introoo '
p986
ag10
aa(lp987
S'Ouch. My left thumb hurts. Too much mouse usage, I guess '
p988
ag3
aa(lp989
S"@GuitarGirl91692 Hey, Lauren, how goes it?  I'm so excited that I got a new computer, but not happy I mess up my printer in the process.  "
p990
ag3
aa(lp991
S'busy writing my next blog post and suddenly realize i forgot to eat duck rice in M\xc2\xb4sia. '
p992
ag3
aa(lp993
S'i already miss you monica  &lt;3 &lt;3'
p994
ag3
aa(lp995
S'Now that I understand why Kutner died on the show, I feel better  I was uber pissed/sad last night, LOL! #house'
p996
ag10
aa(lp997
S'is talking to Philip on the phone!! '
p998
ag10
aa(lp999
S"(&quot;,)20 Today! :o old and shit =( Lmao!  (via @Ria_09)  LOL that ain't old!!! happy bday pretty lady "
p1000
ag10
aa(lp1001
S'Eating jelly beans  havent had them for so so so long!'
p1002
ag10
aa.