(lp0
(lp1
S'@rachelpascoe hey hey, good show, ps our old mini is back home, looking mint and i dont want 2 sell it '
p2
aS'negative'
p3
aa(lp4
S"I'm no longer a sophomore.  Junior year is bringing new things. I'll be on 24/7 now. Hit me up and check out  http://bit.ly/esGIQ"
p5
ag3
aa(lp6
S'Chemistry - C at best. Shite. '
p7
ag3
aa(lp8
S'@karlily wowoweeeeeee!!! Congrats!!! banana dance!!! *applause applause* '
p9
aS'positive'
p10
aa(lp11
S'@RaphaelAraujo1 good morning, friend! '
p12
ag10
aa(lp13
S'@janabelle_xo yeah if im awake '
p14
ag10
aa(lp15
S'@kpatthethird goodnight lovely talking to you.. until we tweet again!  sorry the temptation was there to say that'
p16
ag10
aa(lp17
S'NO 3G!  Damn Storm!  If you need to talk to me today, you better text me.  '
p18
ag3
aa(lp19
S'i think mac studio fix broke me out '
p20
ag3
aa(lp21
S'How am I supposed to sleep with this loud thunder?  My sleeping schedule is so fucked up... I had a very good night though. Thank you =]'
p22
ag3
aa(lp23
S'http://twitpic.com/7veqo - goooodbye 8th grade '
p24
ag3
aa(lp25
S'@_Dannii_ yeah to bad if she didnt lol jj nah she would write back to you dani its all good '
p26
ag10
aa(lp27
S" I ate too much. Now I can't sleep because I feel sick...and there are a lot of sirens."
p28
ag3
aa(lp29
S'sol just arrived!!!!! '
p30
ag10
aa(lp31
S"Going to Tri with Inky laterrr.  Yey! Hope it'll be fun. "
p32
ag10
aa(lp33
S'XBOX Live is down. '
p34
ag3
aa(lp35
S'i am not getting twitter updates from people i am suppose to get! So out of the loop  Del Mar Fair was fun--too much funnel cake &amp; cows'
p36
ag3
aa(lp37
S'ouch to hang nails... '
p38
ag3
aa(lp39
S'@emj307 @maxine_c thankies '
p40
ag10
aa(lp41
S"now up my grandparents  hope everyone's ok x"
p42
ag10
aa(lp43
S"@VictoriaDeButy sad we didn't get to play this summer "
p44
ag3
aa(lp45
S"@kahilee That makes us smile...keep your eyes peeled...a few changes coming soon   Hope you'll buy our book too! "
p46
ag10
aa(lp47
S'@SteveRoderick ohh ouchie, sounds kinda crappy. '
p48
ag3
aa(lp49
S'totally  fell asleep dressed and all the lights on lol. its weird sleeping in my own bed when i  havnt in a while. and alone at that '
p50
ag3
aa(lp51
S'why does the sun make me itch? '
p52
ag3
aa(lp53
S'thanks to m babes im wearing a black sweater that smells great! @jammerserdelyi miss u '
p54
ag10
aa(lp55
S'Trying to deal with this horrible tummy ache.....i hope to feel better soon '
p56
ag3
aa(lp57
S'@Tekee yeppers new name - got it all worked out   '
p58
ag10
aa(lp59
S'@cyclingdiva Nearly time for the Dauphine! Lots of yummy climbing there '
p60
ag10
aa(lp61
S'YES. THIS IS WORKING AGAIN '
p62
ag10
aa(lp63
S"@katepena that's what we did "
p64
ag10
aa(lp65
S'i gotta do a project but i dont wanna '
p66
ag3
aa(lp67
S"Can't set WDS on my routers  does anyone know anything about that?"
p68
ag3
aa(lp69
S'#KPWTSylt and out the main event...  doubles here I come!'
p70
ag3
aa(lp71
S'@fearfuldogs apparently habituation is a weak form of learning, mmm hmmm! '
p72
ag10
aa(lp73
S'today i received some very devastating news. DD discontinued my blueberry bagel. '
p74
ag3
aa(lp75
S"damn i didn't finish watching beaches ! so i wiki-ed it this morning, poor Hilary "
p76
ag3
aa(lp77
S'Wow, I feel Weird. A guy looking up how to make his hair shinier. HaHa Is this normal guy behavior? '
p78
ag10
aa(lp79
S'sitting at home wishing my baby was next to me '
p80
ag3
aa(lp81
S"I would be making my final E3 video right now if I wasn't so goddamn tired. Jet leg is funny like that. I'll have it up sometime tomorrow "
p82
ag10
aa(lp83
S'--#fact : i never knew how to hop a fence... so wen shit happened &amp; niggas used to run&amp;hop fences i always chilled like i wasnt scared. '
p84
ag3
aa(lp85
S"@itsikalfon it's a low level message system think sms over internet. like voip. it's smsoip  with more functionality for public smsing.."
p86
ag10
aa(lp87
S'Is writing reports on a saturday night... how sad! '
p88
ag3
aa(lp89
S'@KalanMusic Article is kinda long and starts out a little slow but has a lot of really good stuff if you stick with it '
p90
ag10
aa(lp91
S'@DavidArchie aww Danny Gokey was voted off  i actually want him to be in the finals..'
p92
ag3
aa(lp93
S'@jeff25624 oOo, that sounds AMAZING!    I might have to try that SOON!'
p94
ag10
aa(lp95
S'@Dean_Big I see you got your swag on poppi  Yeah I knew you would like it, he is a genius with them lyrics. I was like dayummm'
p96
ag10
aa(lp97
S'@_Stephhh_ i would die, like..i havent seen him since friggin march .. way over due  and to see him comb through those locks of his .. omg'
p98
ag3
aa(lp99
S"On the plane heading to San Fran to sing at Kristi Yamaguchi's Always Dream foundation event! "
p100
ag10
aa(lp101
S"@JaySDaughtry yeah, it's for the spring semester which ended a month ago. and nooo i don't have a job yet  but other than that its good!"
p102
ag3
aa(lp103
S'@gulpanag you both looking good.. '
p104
ag10
aa(lp105
S"@theDebbyRyan Heyyy! could you pleasee give me a shoutout?? love you loads!!!! my name is Sana  i'll support you forever  xo"
p106
ag10
aa(lp107
S"gahhhh!!! enrollment o_O it's crazy tiring. but i bet i'll miss it when i graduate. i bet i'll miss everything when i graduate!! "
p108
ag3
aa(lp109
S"@Tuburculosis How lovely for you, I'm in my pj's at home "
p110
ag10
aa(lp111
S'Just Finished a Review of Codemasters FUEL for xbox 360.  Visit www.Game-pad.net for GAMING knowhow. '
p112
ag10
aa(lp113
S"@msange.... don't hate me but im taking TWO night courses next semester! Monday, Tuesday, Wednesday, Thursday are OCCUPIED! "
p114
ag3
aa(lp115
S' gooodnight.'
p116
ag3
aa(lp117
S"@mugzy050 I'm working  then gonna chill and watch my new movie. Need a relaxing movie!"
p118
ag3
aa(lp119
S"I'm falling alseep.. eeks! @DeathKindler I love you, I really do.&lt;3 I guess I might talk to you June 1st, or you can call me anytime. "
p120
ag10
aa(lp121
S'@_supernatural_ Ah  So really, all you do is post erotic pics of Jared and Jensen? '
p122
ag10
aa(lp123
S'hopping in the shower,  @ricandhislife you can help me tidy my room  its a shit hole, mums fucking friends'
p124
ag10
aa(lp125
S'@solangeknowles awwww yur a awesome mother keep up the good work '
p126
ag10
aa(lp127
S'@josydaisyJKgirl thanks! The waffle house was AMAZING!  sorry u were not there '
p128
ag3
aa(lp129
S'@chelzmae he really does suck bigtime HAHA! okay, bbye :* '
p130
ag10
aa(lp131
S'@MissPhellps06 Wow! Europe sure is popular this summer '
p132
ag10
aa(lp133
S"all my tweets have #squarespace and i still haven't won an iphone "
p134
ag3
aa(lp135
S'i said i dont believe in choosing between people so yea now im single '
p136
ag3
aa(lp137
S"i wish i had never seen the picture of the env3  now i don't know what i want"
p138
ag3
aa(lp139
S'At rickys with jacks family '
p140
ag10
aa(lp141
S'In bed snuggling with carjean '
p142
ag10
aa(lp143
S'Summer... Vacation time.... That means if you need somebody then he is probably on vacation and no one could replace him '
p144
ag3
aa(lp145
S'@AnnieAreYouOhK Wow.  Cool pics ... Florida looks almost as beautiful as cali '
p146
ag10
aa(lp147
S"@kristinusvi I love that you are following everyone from the hills, oprah, ellen and me.   You should follow Aubrey O'day. nite nite"
p148
ag10
aa(lp149
S"My backyard now looks as put together as my front yard and I think i'm done w/ new for the season - now time to keep it all looking good "
p150
ag10
aa(lp151
S'whole summer this year '
p152
ag3
aa(lp153
S'@deannaaa I know  I saw that fan one today though, so it was nice watching it!'
p154
ag3
aa(lp155
S"@photobird i've been worrying that i'm going bald for years and years because i lose so much hair! good news: i still have a lot up there "
p156
ag10
aa(lp157
S'My stomach frequently feels ill after eating in our cafeteria. '
p158
ag3
aa(lp159
S'@WzeroMN No, I just want to see Cleveland steamroll the Lakers. But the Magic are beating them...  WTF happen to the Cavs?'
p160
ag3
aa(lp161
S'Resting rules '
p162
ag10
aa(lp163
S"I can't help but think that Mosley's TV interview will only fuel the flames of the auguments   #formula1"
p164
ag3
aa(lp165
S'Sundays race has still not posted results...WHY??? come on people.  Eugene had results posted a few hours later. '
p166
ag3
aa(lp167
S'Time for bed  Peace out!'
p168
ag10
aa(lp169
S"@TheRyanHallWay Was at the Apple store today and I didn't see you "
p170
ag3
aa(lp171
S'@Sunshinelayouts VAGINA times 23467898764328467856!!! Hahah. '
p172
ag10
aa(lp173
S'@fivetwosix and @greysiapolii *grumpy jealous face*... '
p174
ag3
aa(lp175
S'i probably just did that \\/ wrong but idc, its the thought that counts haha '
p176
ag10
aa(lp177
S'Daisy Of Love!  Replay? Yeah. :/'
p178
ag10
aa(lp179
S'@timringel congratulations! Even me couldnt do it better.. with my bike '
p180
ag10
aa(lp181
S"@Kdvb1aka_Kimber Yes... I'm just happy she didn;t write &quot;to daddy&quot;. I'd have died. I told her Shep can't be her daddy! sheesh  lol"
p182
ag10
aa(lp183
S"@eiruko Ew  we've had a few like that... oh... god..."
p184
ag3
aa(lp185
S"@brookepedia i think i have to work up to doing pilates again, haha. i'll keep that in mind "
p186
ag10
aa(lp187
S"i'm applying for a job at Hooters tomorrow. wish me luck! "
p188
ag10
aa(lp189
S'@PartyPleaser Well, I went with the LS! version of Chances and The Look for tonight '
p190
ag10
aa(lp191
S'Please switch think with thing '
p192
ag10
aa(lp193
S'@kayesayswhat What happened to Nica, btw? '
p194
ag3
aa(lp195
S'@anab0t and!! I bought stuff today... I bet you would like  whatever I bought... I reckon you would! '
p196
ag10
aa(lp197
S'Out at customers site repairing a View deployment. Weekend was not long enough '
p198
ag3
aa(lp199
S'With the family having a BBQ '
p200
ag10
aa(lp201
S'@Willie_Day26 yo i was there  you guys skillled itttt i love you guys !'
p202
ag10
aa(lp203
S'Good morning, Twitter bugs '
p204
ag10
aa(lp205
S'just saw two wrecks on the way home '
p206
ag3
aa(lp207
S'I lost.  oh well.'
p208
ag3
aa(lp209
S'Stood down  how bloody stupid is schools  these days ; i be a little shit so they give me a vacation from school wtf ? allsweet with me '
p210
ag3
aa(lp211
S'@paulmwoods not good.  ill tell you about them next time we chat on facebook or whatever...'
p212
ag3
aa(lp213
S'cooking a roast dinner, not looking forward to the end of the weekend '
p214
ag3
aa(lp215
S'@HeatherWilson No. That was what came up when I clicked &quot;paste.&quot; '
p216
ag10
aa(lp217
S"@manny7 I've flirted with the idea of actually getting a 360 just so I can have the widest competition...  Still considering it though "
p218
ag10
aa(lp219
S'@samin sure, will pick up them for you '
p220
ag10
aa(lp221
S'mmm bread and cheese sandwhiches and sweet bread...so good! Berrets home  oh and french candies!'
p222
ag10
aa(lp223
S'I really want a coffee toffee twisted frosty '
p224
ag3
aa(lp225
S"The sun finally came out and I'm off to work. "
p226
ag3
aa(lp227
S"@gfalcone601 - probably the video of 'The Glass Slipper'. Its the only thing of my nana that I have  x"
p228
ag3
aa(lp229
S'@Jensonb My ISP caps my connection now from 6pm-12am everyday. Perfect timing for when the live shows start streaming '
p230
ag3
aa(lp231
S'An amazing take!!! Now everyone send no-rain vibes to set please '
p232
ag10
aa(lp233
S'@PLUKEBEATS awww ur so sweet sayin that  hey how r u been sayin hi 2 u on yahoo and no response u been busy?'
p234
ag10
aa(lp235
S"@akaczers ok missy u r working too much tell Reitmans I'm by myself, maybe they'll let u go outta pity...nah you're right didn't think so "
p236
ag3
aa(lp237
S"Holy mother.  Just got home from the Relay for Life.  I've never successfully pulled an all nighter. "
p238
ag10
aa(lp239
S'@lucasartsgames MONKEY ISLAND 5! GRIM FANDANGO 2!  KOTOR 3 SinglePlayer, NEW KYLE KATARN GAME!!!  Sorry, just got too excited, I guess.'
p240
ag10
aa(lp241
S'finds following a few of her favorite commedians a little depressing. Especially when they rub in the fact that they have money now. '
p242
ag3
aa(lp243
S'is in the need of the rev '
p244
ag3
aa(lp245
S'i wish i was just tan i hate doing fake tan '
p246
ag3
aa(lp247
S'Listening to theCubicleMan (Douglas Knudson) at #360Flex ... &quot;The Great Mashup&quot; ... interesting so far. '
p248
ag10
aa(lp249
S"@herroshayna I'm babysitting for like 2 hours "
p250
ag3
aa(lp251
S'@DazzleMeThis Good luck '
p252
ag10
aa(lp253
S"@danheretic Too bad you don't live near me, my husband is selling his bike. "
p254
ag10
aa(lp255
S"Holy fuck i'm tired as hell "
p256
ag3
aa(lp257
S'@maviswee new ones today.. is zebra.  change alr.'
p258
ag10
aa(lp259
S'@BobaTheFett  so sorry'
p260
ag3
aa(lp261
S'My pics from #140conf today: http://bit.ly/141Z0v - sorry about the poor BlackBerry Bold shots. Left my SD card for proper camera at home '
p262
ag3
aa(lp263
S'Bored already... Gonna watch Sex and the City to entertain myself a little '
p264
ag10
aa(lp265
S'On my way to second class but its like a mile away that sucks '
p266
ag3
aa(lp267
S"@coffee_bee perhaps you should get a holiday home in the northern hemisphere, then you'd never need to experience a winter again "
p268
ag10
aa(lp269
S' dont have time for SHIT anymore..'
p270
ag3
aa(lp271
S"Ahhh a nice hot shower.  I bet rosanne wishes she could take one!    LOL Nite everyone I had a fun day! (I'll get u new glasses ash!)"
p272
ag10
aa(lp273
S'Is oh fuck! Need twice as much as I thought in my medical physics exam!!! Woops!!!! '
p274
ag3
aa(lp275
S'Watching chamber of secrets  and no im not sad lol'
p276
ag10
aa(lp277
S"@VampireGrills Are ou going to the casting call on  Sat?If you can't make it you can e-mail your pic and some details. I'm working on sat "
p278
ag3
aa(lp279
S'@Whitney_ATL Yes... I just got it back duude!  &amp; Im sure it wasnt towed.. got the theft on camera but cant see dudes faceprayers plskthx'
p280
ag3
aa(lp281
S"Ian can't be replaced that easily. "
p282
ag3
aa(lp283
S'hrmm...not as hot in person.  still...HOT'
p284
ag3
aa(lp285
S"@nattnightly   I couldn't agree more.  Total and complete awesomeness.  "
p286
ag10
aa(lp287
S'is hoping christy drives to park city  and not me! '
p288
ag10
aa(lp289
S'my darlin\xc2\xb4s sad  and i feel fucked up  i miss him sooooooooooo bad ...BABY I love You'
p290
ag3
aa(lp291
S'Stupid rain. My hair looked great until i left the house. '
p292
ag3
aa(lp293
S'@ibsidszombie your welcome '
p294
ag10
aa(lp295
S"@kimmiemeissner Gotcha.  I'm afraid based on Mary Murphy's tweet earlier today (@hottamaletrain) that the disco wound up in the bottom.  "
p296
ag3
aa(lp297
S"We even aren't allowed to have our cell phones turned on and &quot;they&quot; prefer to have us turn off the radio/music as well. We don't though "
p298
ag10
aa(lp299
S'last noight? one of the bests in my whole life '
p300
ag10
aa(lp301
S"Listening to Eminem's new album, got leaked a few days ago #Relapse. Pretty good "
p302
ag10
aa(lp303
S'@ridingcoach beautiful, wish I knew German  '
p304
ag10
aa(lp305
S"@SelectedTweets You're one of those &quot;independent women&quot; who has to do everything for herself.  You make it so hard for a man "
p306
ag3
aa(lp307
S'My head hurts '
p308
ag3
aa(lp309
S'@ylatan omg hope nobody is hurt! its a worst nightmare scenario to fall with the baby.. just thinking about it gives me chills.. '
p310
ag3
aa(lp311
S'Was not very social this weekend due to toothache. Going to visit the dentist tomorrow '
p312
ag3
aa(lp313
S"@webhostinghelp You're probably right, but I wanted to see how it is, and since it's cheap and refundable it's not going to do any harm "
p314
ag10
aa(lp315
S"@ChEmIcALbUlLeTs You're not silly at all "
p316
ag10
aa(lp317
S"@NikkiBenz you mean you couldn't get out of the ticket like in a Brazzers scene? "
p318
ag3
aa(lp319
S"OMG i'm actually doing tech support at 1:13am.    Does it ever end?"
p320
ag3
aa(lp321
S'sooo tired, waterpark wore me out '
p322
ag10
aa(lp323
S'@howdomedia why cant i direct messaage you? '
p324
ag3
aa(lp325
S'SAM Broadcaster has sent out update that MAY fix my encoder issues. If so, will be back live on air maybe tomorrow.  fingers crossed.'
p326
ag10
aa(lp327
S'@thanr \xe0\xb8\xae\xe0\xb8\xb2\xe0\xb9\x86 ... \xe0\xb9\x80\xe0\xb8\xa1\xe0\xb8\xb7\xe0\xb9\x88\xe0\xb8\xad\xe0\xb8?\xe0\xb8\xb5\xe0\xb9\x89\xe0\xb9\x80\xe0\xb8\x82\xe0\xb8\xb5\xe0\xb8\xa2\xe0\xb8\x99 Twit \xe0\xb8\xa2\xe0\xb8\xb2\xe0\xb8\xa7\xe0\xb9\x80\xe0\xb8\xa5\xe0\xb8\xa2\xe0\xb8\x84\xe0\xb8\xa3\xe0\xb8\xb1\xe0\xb8\x9a\xe0\xb9\x80\xe0\xb8?\xe0\xb8\xb5\xe0\xb9\x88\xe0\xb8\xa2\xe0\xb8\xa7\xe0\xb8?\xe0\xb8\xb1\xe0\xb8\x9a Known Issue \xe0\xb8\x84\xe0\xb8\xa3\xe0\xb8\xb1\xe0\xb8\x9a ... \xe0\xb8\xa5\xe0\xb8\xad\xe0\xb8\x87\xe0\xb8\xad\xe0\xb9\x88\xe0\xb8\xb2\xe0\xb8\x99\xe0\xb8\x94\xe0\xb8\xb9\xe0\xb8\x99\xe0\xb8\xb0\xe0\xb8\x84\xe0\xb8\xa3\xe0\xb8\xb1\xe0\xb8\x9a ... \xe0\xb9\x80\xe0\xb8\xa5\xe0\xb9\x88\xe0\xb8\xa1\xe0\xb8\x99\xe0\xb8\xb5\xe0\xb9\x89\xe0\xb8\xa2\xe0\xb8\xb1\xe0\xb8\x87\xe0\xb9\x80\xe0\xb8\x9b\xe0\xb9\x87\xe0\xb8\x99 Beta Stage \xe0\xb8\x84\xe0\xb8\xa3\xe0\xb8\xb1\xe0\xb8\x9a '
p328
ag10
aa(lp329
S'just watched John Tucker Must Die for the nth time. Still makes me smile. '
p330
ag10
aa(lp331
S"Computer's being slow. It really sucks. Twitter is cool. YouTube is a fun word. Blogtv is kinda addictive. MySpace is also nice. "
p332
ag10
aa(lp333
S"@bedheadchicken I'm not sure how many Kristy's you know, but I'm hoping that update was about this one  Miss you.. let's fix that soon!"
p334
ag10
aa(lp335
S"I'm hungry. I pooped all those 7 plates of sushi I ate "
p336
ag3
aa(lp337
S"Very annoyed by my braces. Cheek is all cut up and can't eat "
p338
ag3
aa(lp339
S'@coxys_opinions thanks  yeah i cant wait. i was gonna go RAH but i was menna being going on holiday so sold my tixs. but im not now '
p340
ag3
aa(lp341
S"I'm sure your niece baked good pastries coz she spent labor, time and love with it. Cool! for Manny P.?? nice one, cool! "
p342
ag10
aa(lp343
S"@Nick_31 aw  &lt;3 I feel for you, I only have one left  she's sharp as a tack though"
p344
ag3
aa(lp345
S'@ebassman Hey Ethan!  x'
p346
ag10
aa(lp347
S'@AliceSantos Hope you had a good day at work '
p348
ag10
aa(lp349
S'...just seen the trailers of &quot;Surrogates&quot;... Mr Willis is back in full force..... likin it... '
p350
ag10
aa(lp351
S'@xxxRobyn awww that sucks '
p352
ag3
aa(lp353
S"I can't believe the cavs lost "
p354
ag3
aa(lp355
S'@aidenmckenna  The REALY boring ones never get nominated! Pis**s me off!'
p356
ag3
aa(lp357
S'is waiting to hear the interview  xx'
p358
ag10
aa(lp359
S'I have way too many applications running - feeling very sorry for my poor Mac '
p360
ag3
aa(lp361
S"It's Happy Star Wars Day, LOL.  May the force be strong with you all.  "
p362
ag10
aa(lp363
S'@sbarton1220 Left around 8PM.  High st in north short north by salon lofts and donatos.  Sorry we missed each other '
p364
ag3
aa(lp365
S"@emilyhughes It's totes gonna be 09's &quot;The Notebook&quot; and the book will be written off as cheap chicklit... but I can't help but hope. Wah "
p366
ag3
aa(lp367
S'@davejmatthews @slessard just wanna be there tonight '
p368
ag3
aa(lp369
S'Ive got no followers here '
p370
ag3
aa(lp371
S"To my followers who are fairly new: What got you to start following me? How'd you hear about me? Just curious. "
p372
ag10
aa(lp373
S'@mitchellsigman Sana boobs, well...maybe the dancing will be easier!  Now must read about your Volta adventure...'
p374
ag10
aa(lp375
S"@aieshalovesu so I went to vickies 2day becuz the semi annual sale started  I'm jus being is honest"
p376
ag3
aa(lp377
S'@needtobreathe I love the new song. '
p378
ag10
aa(lp379
S'@srinathtv what? no macs? '
p380
ag10
aa(lp381
S"@cmcadams Yep, I agree.  It's simply some of the best eats there is! "
p382
ag10
aa(lp383
S"Wish I could say same for my foot...dropped it on it &amp; I'm bruised &amp; swollen "
p384
ag3
aa(lp385
S'@Elricom no wonder its so quiet on here '
p386
ag3
aa(lp387
S'crying for #neda and all the iranian death '
p388
ag3
aa(lp389
S'good morning. off to summer classes. really annoyed. '
p390
ag3
aa(lp391
S'@Katie_McFlyy COME WITH ME PLEASE ! I REALLY WANNA GO AND MY MAM SAID I CAN IF SOMEONE WILL COME WITH ME ! PLEASE ! '
p392
ag10
aa(lp393
S'dinner is done. daddy is happy. life is good.. now, back to greenwood I go. '
p394
ag3
aa(lp395
S"Too bad! No more bottomless margarita at Chili's..  Sad way to celebrate.. "
p396
ag3
aa(lp397
S'watching House and taking  bubble bath '
p398
ag10
aa(lp399
S'just rocked home from maccas, and now signing a petition for big bang to tour aus  LOL'
p400
ag10
aa(lp401
S'@missmalena that sounds awesome!  i have ideas now...! YAY ideas!'
p402
ag10
aa(lp403
S'Seriously hates being sick,  But, my temperature is going down slowly already ;D'
p404
ag3
aa(lp405
S"'bout to eat lunch. scared for August. i got a test to see what grade i'll be in next year. wouldn't b surprised if i ended up in 7th "
p406
ag3
aa(lp407
S"Bummed that I am not smeeping in on Mother's Day "
p408
ag3
aa(lp409
S'Finally heading home.  I had such a blast!'
p410
ag10
aa(lp411
S'@sylver ol\xc3\xa1 !! Bom dia '
p412
ag10
aa(lp413
S"Feeling fluey. Got Hue-style spicy beef soup (amazing) from Good Morning Saigon, but they don't do cafe den (black coffee) "
p414
ag3
aa(lp415
S"@gattaca PM's are often misunderstood "
p416
ag10
aa(lp417
S'ive used titterfox for so long im having trouble switching to tweetdeck '
p418
ag3
aa(lp419
S"I'd love the song Every Part Of Me but it's not been released or leaked HQ full yet "
p420
ag3
aa(lp421
S'i am watching platinum weddings. im soo jelous wish i was rich , with a cute boyfriend , or he could be the rich one '
p422
ag10
aa(lp423
S"@asamidori i guess it's painful grinding for me then "
p424
ag3
aa(lp425
S'i have never wanted my lil civic soo bad '
p426
ag3
aa(lp427
S'got home from school,now staying at linas house no more school this week '
p428
ag10
aa(lp429
S"Ahahahaha and I'm almost at the 800 post mark "
p430
ag10
aa(lp431
S'school.kristen stewart is the best so is robert pattison and the goregeous jacob played by taylor lautner(the reason im seeing new moon.) '
p432
ag10
aa(lp433
S'I have 75 posts to do before launching my blog. You know, the one I planned to launch in July. I hate procrastination  Ok - back to work!'
p434
ag3
aa(lp435
S'@ionacosmetics Ah right.  I am good, not looking forward to cleaning &amp; changing beds, usual mundane stuff! lol Free time later though  xx'
p436
ag10
aa(lp437
S'@angierue D day? sorry, being nosy  But yay!'
p438
ag10
aa(lp439
S'@xBabyV http://bit.ly/eZNRb  choose this one  hehe'
p440
ag10
aa(lp441
S'@kjerstia I have a really annoying headache and pretty much every bone in my body hurts but Im alright. '
p442
ag10
aa(lp443
S'@new_ish and she appreciates everything you do! '
p444
ag10
aa(lp445
S"Should I go to bed ? But it's still so early! "
p446
ag3
aa(lp447
S'I LOVE boat houses!  Cary Grant and Sofia Loren would approve   http://twitpic.com/6p1ur'
p448
ag10
aa(lp449
S'Oh no! Im sick.. Just realized my tinkerbell clock has run out of batteries &amp; it will 4ever be 11:46 '
p450
ag3
aa(lp451
S'Ahhh, yes, Billie Piper when she was a popstar. Love that whitegirl dancing  \xe2\x99\xab http://blip.fm/~7gser'
p452
ag10
aa(lp453
S'Planning on going shopping later and get my nails done so i can look my BEST tomorrow for my 1st DAY!! EXCITED!!!!  '
p454
ag10
aa(lp455
S'@xdenise sometimes kids are the best teachers '
p456
ag10
aa(lp457
S"I was so excited for the US OPEN but now I'm just left disappointed with shitty weather. "
p458
ag3
aa(lp459
S"@MzUnNiQu3 heyyy stranger! How the eff  have u been!?! I'm going lighter for summer!!! "
p460
ag10
aa(lp461
S'finished practice about half an hour ago. Realized that I still know how to play &quot;Waiting&quot; by Green Day.  Life is good.'
p462
ag10
aa(lp463
S"@Zac_Efron Zaaac... i've voted for yooou in mtv movie awards!  love you,  kisses"
p464
ag10
aa(lp465
S'@galaxydazzle No, Mary Poppins '
p466
ag3
aa(lp467
S'Why does my counselor at work keep leaving? (Bonnie? Silence). Here comes #4. I never get the counselor lunches  right b4 reviews too.'
p468
ag3
aa(lp469
S'@missSHANNAbaby Shanna have fun at the concert tomorrow  xoxoxo'
p470
ag10
aa(lp471
S'Again, #followfriday PPL!  @fantomaster @davesnyder @copyblogger @webaddict @debijebi @DrFernKozlow @chrisbrogan @problogger @passionsista'
p472
ag10
aa(lp473
S"@TheAnimeNetwork Aw, too bad.  Couldn't make it to hear my shout-out to TAN.  Oh well "
p474
ag3
aa(lp475
S'Trying to fix my pokemonz '
p476
ag3
aa(lp477
S'@itsprestonm make that, congratulations FOR tweeting '
p478
ag10
aa(lp479
S"@CMajor She will probably not be able to make it.    Her new restaurant gig is swallowing up her weekends.  She's still hopeful, tho."
p480
ag3
aa(lp481
S"In ATL airport and just met four people I'll be working with this summer "
p482
ag10
aa(lp483
S'aw whit i only have a gb left on my 16gb ipod '
p484
ag3
aa(lp485
S'@letmypridebe i still want my prize. '
p486
ag3
aa(lp487
S'first day of class wasss.. fun?  we went to the mall after. lol.'
p488
ag10
aa(lp489
S"I'm seeing &quot;you've got mail&quot; "
p490
ag10
aa(lp491
S'@andysowards good man! Feel better, dude. Just take it easy and it will go a long way to making you feel better '
p492
ag10
aa(lp493
S'Goal: get 500 updates before school on Monday  -- back hurts '
p494
ag3
aa(lp495
S'Let my hectic day begin '
p496
ag10
aa(lp497
S"my picture isn't showing.... "
p498
ag3
aa(lp499
S'@kylieireland @adriannanicole @amberrayne -thx for the noodles for life! '
p500
ag10
aa(lp501
S'missing my john... '
p502
ag3
aa(lp503
S'#musicmonday  im in love with  @daysdifference  Radio Song -http://bit.ly/tg6SS   &lt;-- click and listen pleeeaasssee '
p504
ag10
aa(lp505
S'@Minerveca Goood Morning!!!! '
p506
ag10
aa(lp507
S'@Morendo thanks for picking up the EP already. '
p508
ag10
aa(lp509
S'Just folded laundry... Watching CSI cuz nothing else is on tv   http://mypict.me/4LCk'
p510
ag3
aa(lp511
S"@DerrenLitten Nooooooo! that means no more twitter updates! and no more pics! oh i'm going to cry! cant wait till Sunday tho "
p512
ag10
aa(lp513
S'just joined twitter thanks to my M&amp;M! '
p514
ag10
aa(lp515
S"@DaddyP - I think it's useless to go after each other.  I didn't get anything either.  "
p516
ag3
aa(lp517
S"morrrrrrrrrrrning! i just went out to walk the dog and it is SO freaking hot! it's 10 30 am! and it's not even summer yet "
p518
ag3
aa(lp519
S'Not to worry, noone got that one. Next question starts in 1 minute, get your thinking caps on '
p520
ag10
aa(lp521
S'@MariahCarey Still??  sing sing sing get the record done done done..'
p522
ag10
aa(lp523
S'working again! 3-11. get PAID! '
p524
ag10
aa(lp525
S"http://twitpic.com/7q2dz - This sweet cat wandered into my house for a few hours today, He didn't want to leave  Hope he is OK."
p526
ag3
aa(lp527
S'My brother is finally home! '
p528
ag10
aa(lp529
S'@mingxun88 i was sick, i came late.. '
p530
ag3
aa(lp531
S'My grandma is remembering less and less '
p532
ag3
aa(lp533
S'@kristinalevy OK...now I will really be back in a few '
p534
ag10
aa(lp535
S"@MichelleDom aww love that's not good "
p536
ag3
aa(lp537
S"@billyraycyrus Happy Fathers Day Billy Ray, sorry your in a hotel room for it. I feel bad that you can't be in Georgia for it,  "
p538
ag3
aa(lp539
S'@renailemay No DinoBots coming   http://is.gd/tqcH'
p540
ag3
aa(lp541
S"@musicalchic87 haha, yep jet lag is always a bitch. CRAP, I'm going away wed and I forgot all about the jet lag! "
p542
ag3
aa(lp543
S'have to write three papers today, ugh '
p544
ag3
aa(lp545
S'@jenchau or not. stupid rain '
p546
ag3
aa(lp547
S'@GauravSaha dude offce nahi hai odhar so working out of ccd '
p548
ag3
aa(lp549
S"@BequiJ she fell asleep and didn't answer the phone. Totally not like her. "
p550
ag10
aa(lp551
S'getting a commentry of the BGT results... thanks Ash! '
p552
ag10
aa(lp553
S'dreading going to work tomorrow..  weekends are never long enough'
p554
ag3
aa(lp555
S'@mikerosenhouse did you run into someone I know this weekend? '
p556
ag10
aa(lp557
S'@rwyn  thank you'
p558
ag10
aa(lp559
S'Annaliese is taking a few steps by herself now.... why am I so sad about it?? '
p560
ag3
aa(lp561
S"payday tomorrow and going home for the weekend  we'll see if i make it to sunday this time."
p562
ag10
aa(lp563
S"@heyitskymberly Hi  You don't know me but you telling that girl off kinda made me smile. I was thinking about doing it myself lol"
p564
ag10
aa(lp565
S'really not happy, ich hasse Deutsch  just want to give up now dont even care if i end up working in farm foods forever aslong as im happy'
p566
ag3
aa(lp567
S'@AyumiDangerrr  You win. (I hope they attack your world).'
p568
ag10
aa(lp569
S'my sister said yayyy its hannah HOEdown today  haaaa hannah is a hoe apparently hoe.'
p570
ag10
aa(lp571
S"6 days...6 days until I turn 23. Celebrate or not? Not sure yet.  My lovely @XXCymbalXX won't be able to come anyway...*cries*"
p572
ag3
aa(lp573
S'@cherrybaby2001 Glad you like it! '
p574
ag10
aa(lp575
S"@BritSkipper  You are my first follwer  now help explain to me how this works?! i'm very lost!"
p576
ag10
aa(lp577
S'Should of stayed in bed '
p578
ag10
aa(lp579
S'laying by the pool. not a cloud in the sky! '
p580
ag10
aa(lp581
S"i want to go to old town but i think it's going to rain "
p582
ag3
aa(lp583
S'@stupeur how is that? sorry if i did '
p584
ag3
aa(lp585
S'Well actually, that last statement is irrelevant, because early in the morning for me is late morning-early afternoon for Miss Cubby. '
p586
ag10
aa(lp587
S"@Valv30 Whah?! I didn't comprehend the last question...    You did everything!!!"
p588
ag3
aa(lp589
S'@petewentz  you cut your hairsss off?'
p590
ag3
aa(lp591
S'@crystalunicorn I know, really disappointing, we could not even chase 130, I guess the confidence has been dented badly '
p592
ag3
aa(lp593
S'@Leaferbyblood I decided to be responsible and pay bills instead  *sigh*'
p594
ag3
aa(lp595
S'happy that adam came to visit me '
p596
ag10
aa(lp597
S'Taylor Swift looking pretty in pink at the CMA Festival  http://bit.ly/ifU2C'
p598
ag10
aa(lp599
S"11:11 pm - I wish Shane didn't have to go home "
p600
ag3
aa(lp601
S'Thx for the Mixtape  &quot;Hey,shut the fuck up boy!You are starting to piss me off&quot; I&lt;3Gina. +http://tinyurl.com/... \xe2\x99\xab http://blip.fm/~8b8zv'
p602
ag10
aa(lp603
S"I'm dying to see the reaction on their faces  .. its going to be FUN gedan begad "
p604
ag10
aa(lp605
S"At Mikado's with Mary and her family. And i just got a splinter from my chopsticks "
p606
ag3
aa(lp607
S'@ktmaillis jealous of your iphone  i want'
p608
ag3
aa(lp609
S'@tommcfly talk about signings '
p610
ag10
aa(lp611
S'At work on this glorious day  but have to say I have had some nice people in looking at Marks beautiful furniture'
p612
ag3
aa(lp613
S"@SusiieeeQ aha fuck knows! I kinda thought this was legit for a second, then realised he's doing I'm A Celebrity in the US so makes sense "
p614
ag10
aa(lp615
S'is stuggling to keep the eggs down. '
p616
ag3
aa(lp617
S'Wizards with Selena '
p618
ag10
aa(lp619
S'Chemistry exam in 30 minutes.. Not good '
p620
ag3
aa(lp621
S'@Andrealongoria Ive been replaced. '
p622
ag3
aa(lp623
S'@toxiccupcakeCxC LOL have whoopi? Who are u Chuck Woolery? '
p624
ag10
aa(lp625
S'Cast party Later '
p626
ag10
aa(lp627
S'huhu  wat d hell is dis ?!.,i feel like  im damn worthless '
p628
ag3
aa(lp629
S'pina colada sorbet  ima wing my ap world presentation! whoo!'
p630
ag10
aa(lp631
S'@earAsol vegetarian '
p632
ag10
aa(lp633
S'@WeThePeopleCare Talk to me in October '
p634
ag10
aa(lp635
S'morning everyone  Just finished my breakfast coffee, gonna start some things to do. Have a great day!'
p636
ag10
aa(lp637
S"@eternalmaternal Brrr...wearing socks and under a blanky - yesterday couldn't expose enough skin   Craziness!  Sending warm thoughts "
p638
ag10
aa(lp639
S'is off to BALI........ '
p640
ag10
aa(lp641
S'bed time  NIGHT'
p642
ag10
aa(lp643
S'@gisext  I agree! Chandigarh is the best! '
p644
ag10
aa(lp645
S"@heyshezie i noticed earlier  how'd ya come up with it?"
p646
ag10
aa(lp647
S'woooo!!! 2 nk tweeting @jordanknight and @jonathanrknight 3 more to tweet! @DonnieWahlberg @dannywood @joeymcintyre TWEET/TWIT/TWAT US! '
p648
ag10
aa(lp649
S"she is only 2 years and she's the funniest thing when she is dancing! she's sooo happyyyy! "
p650
ag10
aa(lp651
S"@TheCallEditor  That's more like it!  Christmas Music makes ANY day better.    Now if I can just convince the people I work with..."
p652
ag10
aa(lp653
S'Ruff, Ruff, says my sweet little mini chu-weeny dog. Her name is Ziggy and she is just too darn cute for her own good. She says hey guys. '
p654
ag10
aa(lp655
S'@MTVBuzzworthy Oh, crap. That sucks. '
p656
ag3
aa(lp657
S'Good Morning folks have a blessed day '
p658
ag10
aa(lp659
S'@ANJL not a fool, but more like someone nice enuf that realizes how much we luv these guys...do I hear any volunteers  pleeeez'
p660
ag10
aa(lp661
S'Had a great day so far buried a bone in someones tomatoes, spooked a duck and now tea time : Raw Meaty Bones please human !! '
p662
ag10
aa(lp663
S'The shoe is now on the other foot. My poor husband - I accidentally gave him my germs. '
p664
ag3
aa(lp665
S'Hello day off. Hello sunshine '
p666
ag10
aa(lp667
S'spent the weekend at the lake with Taryn and burnt my face to a crisp... everywhere else tanned but I look like a lobster. Oh no... lol '
p668
ag10
aa(lp669
S'@sdotchris lmao! It never fails that u always throw in a goof moment. I love it '
p670
ag10
aa(lp671
S'@postsalot Thanks for the reminder, I think. '
p672
ag10
aa(lp673
S'@thepete i know, i know (sigh) i have deadlines that have to be met '
p674
ag3
aa(lp675
S'@myohmy2boys Tru Dat Tru Dat.. I still care for you though!!!!!! '
p676
ag10
aa(lp677
S"@MrGavinPhillips don't hate your life, there is always someone that has it worse than you do  so cheer up buttercup "
p678
ag10
aa(lp679
S"Takin' a study break to grab lunch w/zee momma at my favorite veggie place!  I wish they had 'em out in LA! "
p680
ag10
aa(lp681
S'Today would be such a good day to go swimming. Too bad i have to work '
p682
ag3
aa(lp683
S'it is 5 am. just waking up have a big test today social studies.looking for # 2 pencils '
p684
ag10
aa(lp685
S"apparently my car smells like Lisa's damp grotty clunge "
p686
ag3
aa(lp687
S"@plbrickner no I don't mind Kent it's just my best friend is going there and Im going to miss her "
p688
ag3
aa(lp689
S"11:19am. Going shopping 4 outfit to tonights beach party :] hopefully i'l get something. Then OUT  Haven't been out in a..week.Dying haha"
p690
ag10
aa(lp691
S'http://twitpic.com/6tn70 - Uhhhhg.. How did I get a middle seat on a FULL plane  oh well.'
p692
ag3
aa(lp693
S'I am STARVIN MARVIN. Another hour untill food! '
p694
ag3
aa(lp695
S"Hey kids! Happy Wednesday, Twittermates. Let's hope for a Barca win this evening "
p696
ag10
aa(lp697
S'@AlexAllTimeLow finallllly  Damned if I Do Ya is fucking genius. Loves it '
p698
ag10
aa(lp699
S"@dharshana @cheth  What's the issue goin on with Twitter Bg guys "
p700
ag10
aa(lp701
S'gnite tworld! may you sleep well. i dont think i will '
p702
ag3
aa(lp703
S"i can't even get the audio streaming  #asot400"
p704
ag3
aa(lp705
S'@squink I need to make one for maself as well. '
p706
ag10
aa(lp707
S"@jordanknight Hi Jordan! Glad You had a great time, I'll be saving for next Year!  x"
p708
ag10
aa(lp709
S'@agnesashianti haha! Agnes dengerin! thank you nes '
p710
ag10
aa(lp711
S"@lamarjmorgan looks like you need a local marketing person. I'm booked for 2 gigs in Vegas that day "
p712
ag10
aa(lp713
S'@lilfootsmommy Oh no '
p714
ag3
aa(lp715
S'i think we all know that by now ..right? '
p716
ag10
aa(lp717
S'@EliseHiggins  same here! Talk with you soon I hope '
p718
ag10
aa(lp719
S'@Thr333 thanks me too '
p720
ag3
aa(lp721
S'@THE_WOCKEEZ Hi guys I love u sooooooooooooo much!!! Its just so sad that I cant go to your presentations  But still U R DA BEST!!'
p722
ag3
aa(lp723
S'@MamaBee4 Good luck girl!!  You can do it!'
p724
ag10
aa(lp725
S"Randomly searching Twitter and came across some Columbo fans.  I love Columbo.  He totally rocks!!  Can't find it on TV anymore.  Bummer!"
p726
ag3
aa(lp727
S"Ain't to sure what i'm ment to be doing on here people "
p728
ag10
aa(lp729
S'@officialTila how come no reply back Tila? '
p730
ag3
aa(lp731
S'I saw &quot;The Pianist&quot; shortly after midnight (missed the beginning about 45 minutes, though...  )'
p732
ag3
aa(lp733
S'@missjeffreestar I hope you will be fine again as soon as possible! '
p734
ag3
aa(lp735
S'Need one more follower to hit 500.  Anyone wanna recommend me to somebody?  '
p736
ag10
aa(lp737
S'@DaveCharest Clearly platform sandals are required with any swim team/prod mtg/zoo camp ensemble. '
p738
ag10
aa(lp739
S"Walking through Lion Wood, Norwich. It's a lovely day  http://twitpic.com/4wvg7"
p740
ag10
aa(lp741
S"@albertjanschol That's not working "
p742
ag3
aa(lp743
S"@wooden_nickels karaoke sounds like fun! I think I'll do it before I go to London. I already know what song I want to sing and everything "
p744
ag10
aa(lp745
S'isPlayer Has Died! Sorry '
p746
ag3
aa(lp747
S'@carocast I have one '
p748
ag10
aa(lp749
S"@rachellovee I understand, technology shouldn't be so complicated "
p750
ag3
aa(lp751
S'Going to the Ellen DeGeneres show tomorrow. Going to see No Doubt perform  Exciting!'
p752
ag10
aa(lp753
S'well this week is goin to b boring....had fun with jonathan today and yesterday...lol.  cant wait til saturday when jonathan is back '
p754
ag10
aa(lp755
S'@DonnyCarson lol I know I know I feel so distraught about it '
p756
ag3
aa(lp757
S'the sun is shining just the way we like it '
p758
ag10
aa(lp759
S'Holy shit, Jo Guest is on Channel 965. She could have been the next Barbara Windsor  still wuld tho obv *pounds chest like King Kong*'
p760
ag3
aa(lp761
S'@ApothecaryJeri  I love Sicilians best damn pizza on the planet [says I] '
p762
ag10
aa(lp763
S'@Jennifalconer yeah with that routine they deserved to win '
p764
ag10
aa(lp765
S"Sister Hottie isn't helping my situation neither  I want to be a good girl someone plsss call 911"
p766
ag3
aa(lp767
S'@BSnasty If you drink a gallon of coffee, I hope your heart explodes.  Love you boo.'
p768
ag10
aa(lp769
S'@tarayqueen too much ads on my blog. '
p770
ag10
aa(lp771
S'Home in Gobles.... My car is dead  hoping its fixed by Thursday so I can go to Wonderland!!'
p772
ag3
aa(lp773
S'@vchat I miss my house and my bed already '
p774
ag3
aa(lp775
S'And the toe will survive '
p776
ag10
aa(lp777
S'@Reaper1969 LOL na. Had to cat h my flight to go back to the A '
p778
ag10
aa(lp779
S"@mrcrowder Ha! I missed that ep! Was this in ref to my not following awful spellers? You're prob right...but I'm an editor by trade "
p780
ag10
aa(lp781
S'@hugslenali took me a week to upload mine lol bloody thing! Have a great Sunday '
p782
ag10
aa(lp783
S'Grr, I forgot I have physical therapy this morning.. Booooo. '
p784
ag3
aa(lp785
S'@chloelees oh no! What product messed up yr face?  I like their solid shampoos.'
p786
ag3
aa(lp787
S'cant frikin hell wait for July to fly. '
p788
ag3
aa(lp789
S'@xbllygbsnii ayee :$ jus wanna go hooooooooome  lol :$. you alright? a know, but keep doing TrendTopics ;p'
p790
ag3
aa(lp791
S'Suppose we will leave.  '
p792
ag3
aa(lp793
S"@HarrietteJ Will miss you once you've moved. Can't believe the day is almost here "
p794
ag3
aa(lp795
S'another assignment down '
p796
ag10
aa(lp797
S'@EdLovesSumo Would have to show up late, and probably empty handed as welll  #LBCTweetUp'
p798
ag3
aa(lp799
S'@IceDivagirl Going for a meal with friends in town, then raving with the family, then going to a fancy dress party with my dance class '
p800
ag10
aa(lp801
S'@_reh: AH! You still alive!  Have great day!'
p802
ag10
aa(lp803
S'just tree weeks until I leave lincoln... '
p804
ag3
aa(lp805
S'@FrshPriince  awesome '
p806
ag10
aa(lp807
S'beautiful afternoon.  too bad I have to work and miss my first fest of the season.  '
p808
ag3
aa(lp809
S"It's raining  Class 12-1, lunch, class 2-4:45, dinner, practicing my spn presentation. Then studying for spn and psych. Boo."
p810
ag3
aa(lp811
S'fuck i have lost my lens cap '
p812
ag3
aa(lp813
S'freetime in psychology class... woohoo? not really... i dont have anyone to talk with '
p814
ag3
aa(lp815
S'Satan is attacking me again, Dad caught a 1.5 pounder today, and I wish I had a sibling my own age. Where are you, God? '
p816
ag3
aa(lp817
S"@workformeonline I didn't understand that   Try commands like 'Buy 30 #tag' or 'Sell 30 #tag'"
p818
ag3
aa(lp819
S'Lax was &quot;fun&quot; '
p820
ag10
aa(lp821
S'@miss_bushido @puina Same here, but had no luck with The Zoo Gang.  '
p822
ag3
aa(lp823
S'@joolzp1 morning my sweet! how are things in ur wonderful country of Scotland! hehe i wanna go to the Festival, wat exactly goes on!? '
p824
ag10
aa(lp825
S'I had a decent weekend I guess. Hopefully next weekend will be EVEN better. I hope this week will go by nicely too. '
p826
ag10
aa(lp827
S'@Heromancer i am here Romeo! but in Italy '
p828
ag3
aa(lp829
S'swollen fr my wisdom teeth gettin pulled!  this sucks but i love the Rx drugs'
p830
ag3
aa(lp831
S'@hollyneufeld love that song '
p832
ag10
aa(lp833
S'What you up to, guys? '
p834
ag10
aa(lp835
S'so excited for NEW MOON '
p836
ag10
aa(lp837
S'OMG OMG OMG UP is soooooo sad  im crying '
p838
ag3
aa(lp839
S'I never knew the trade currency could make you so much money. '
p840
ag10
aa(lp841
S'off to bed people nights '
p842
ag10
aa(lp843
S'@DJCRS will do hun. Yes yes. '
p844
ag10
aa(lp845
S'@reginamae i wish i was w/ you bitches '
p846
ag3
aa(lp847
S'@samanthad Nothing wrong with that samantha '
p848
ag10
aa(lp849
S'Anyone know if Dracula the Musical is coming to UK this year for sure? http://tinyurl.com/l9j3m2 Some lovely music in it. '
p850
ag10
aa(lp851
S'&lt;3 sunny day! one of my bestest n i splurged @ bath&amp;body works.. everything was ON SALE! i slipped her extras ofcourse! hope she likes! '
p852
ag10
aa(lp853
S"My sim is faulty =/ So i can't receive any calls or texts  Upsettinggg."
p854
ag3
aa(lp855
S'@rvamedia Twitter is still being a little snarky on my end. '
p856
ag3
aa(lp857
S"http://lasvegas.craigslist.org/cto/1232876515.html - DREAM CAR!! I WANT IT! But, I don't wanna build the rest of it "
p858
ag3
aa(lp859
S'@Mallory_Joy omg mally me either    boo no coffee and early start tomorrow! what train will you be on?'
p860
ag3
aa(lp861
S'@monkey29992 ng?i d??i prep '
p862
ag3
aa(lp863
S'hola ppl, the kids went home '
p864
ag3
aa(lp865
S'i have the worst tan line,  but at least im tan!'
p866
ag3
aa(lp867
S'i have the corniest bf ever. '
p868
ag10
aa(lp869
S'Mm wispa and coffee nice little break '
p870
ag10
aa(lp871
S'loves his new Twitter-BR-Image '
p872
ag10
aa(lp873
S"hm...bored. I'm so bored....entertain me "
p874
ag10
aa(lp875
S'#CBC.ca slide passed over as &quot;talked about already&quot; '
p876
ag3
aa(lp877
S'@nikc http://www.tweet-r.com/ or .. the command line '
p878
ag10
aa(lp879
S'@phy_LAH just make sure you put different seasonings on it at the right time lol.. save me a piece ! PLEASEEEEEE '
p880
ag10
aa(lp881
S'@staceymeow ...no  kidding, ill still follow u ;)'
p882
ag10
aa(lp883
S"I'm super nervous for badminton. Hopefuly I won't screw up. "
p884
ag3
aa(lp885
S'@xioniximo &quot;stole&quot; is a very strong word - &quot;borrowed&quot; is probably closer to the truth. '
p886
ag10
aa(lp887
S"@ayah080808 Today's ur birthday? Happy Birthday, sis!  God bless! Dapat i-spoil ka ni kapatid na aajao today. Hehe. ;)"
p888
ag10
aa(lp889
S'OK, for reals now...goodnight '
p890
ag10
aa(lp891
S'@PoliticsPenguin well all mine is ATM because one of my earphones died! Nice Bluetooth ones too '
p892
ag3
aa(lp893
S"@jaynesave You're welcome  How'd you celebrate?"
p894
ag10
aa(lp895
S'Something is terribly wrong with my stomach. '
p896
ag3
aa(lp897
S'The screen protector of my F480 is peeling off. Awwww  Khalel gave me a new one though I do not know how to stick it on Penelope'
p898
ag3
aa(lp899
S'@ejmatthews Wow, go in for it! Thanks. '
p900
ag10
aa(lp901
S'dentist  just got my novacane shot  ughhhh'
p902
ag3
aa(lp903
S"@paulpuddifoot Yeah, that really tops it off  I'd recommend it if you get the chance."
p904
ag10
aa(lp905
S'@docmikepogi O, easy lang sa pag-pindot ng &quot;enter&quot;. '
p906
ag10
aa(lp907
S'In line at panda express.  '
p908
ag3
aa(lp909
S'@cowriegirl check this one out  http://www.wacom.com/bambootablet/bamboofun.php'
p910
ag10
aa(lp911
S'@iroccwilliams I sure hope so '
p912
ag10
aa(lp913
S"Dawson's Creek episode 22 - The Graduate, poor Pacey. "
p914
ag3
aa(lp915
S'Oooh, Prototype is out in a little over a week, fuck yeah '
p916
ag10
aa(lp917
S'Gud mornin up and runnin around i must eat now,&amp; then look at some disney  I know work comes first.Im home schooled we r on our own time.'
p918
ag10
aa(lp919
S'Bloody rain  I have to go out and I will get all soggy '
p920
ag3
aa(lp921
S'@AnnisaAnjani OH so religious! '
p922
ag10
aa(lp923
S"@ElyssaD Ok... It's back up and running now anyway  Thanks"
p924
ag10
aa(lp925
S'@emmacandlish yup it really is  how was your caravaning?'
p926
ag3
aa(lp927
S'@Tamara_B well, shit. Sorry to hear that. '
p928
ag3
aa(lp929
S'Going to bed...having trouble sleeping '
p930
ag3
aa(lp931
S"@jalenrose name your top 2 teams NOT to get the &quot;Chip&quot;  I got '95 Magic and '62 Lakers... Let me guess you got '00 Pacers as one "
p932
ag10
aa(lp933
S'I thought Japanese cars were meant to be reliable.....  MX5 is broke '
p934
ag3
aa(lp935
S'@MarzLuvsNKOTB  thanks!!! '
p936
ag10
aa(lp937
S"Noshit party was great  working in a new track now .... and it's raining in Amsterdam "
p938
ag3
aa(lp939
S'@JF_Kennedy I sold my xbox to get a ps3 '
p940
ag3
aa(lp941
S"@evaangelinaxxx Hey whats up? I been trying to hit you up...what gives we did the interview and now you're like MIA on me dude "
p942
ag3
aa(lp943
S'Is at home sick today ! '
p944
ag3
aa(lp945
S'@L33Tdpunk ...dude. i do that too. i miss seeing orion hanging out every night.  it feels like just last month he was still around!'
p946
ag3
aa(lp947
S'@trekkerguy Whoa, Jared Leto did a cover of Stronger? I must hear that. '
p948
ag10
aa(lp949
S'my head hurts '
p950
ag3
aa(lp951
S"I'm at the beach with scott, marina, tim, and ant lin. there's no sun though "
p952
ag3
aa(lp953
S'Oh god, got to go to the dentist in a bit. Just to top me day off already.  *positive thinking...positive thinking...*'
p954
ag3
aa(lp955
S'so I wake up to find that the creeeeepy Fios mexicans have migrated to my yard. No pool for me today '
p956
ag3
aa(lp957
S'School is suspendeeeddd. Oh no. No Ocean Park tomorrow.  fails.'
p958
ag3
aa(lp959
S'@McJuniors Kinda my ex is spreadin lies about me  Yeah i &lt;3 that song xx'
p960
ag3
aa(lp961
S"@balls187 awesome! We haven't gone to NYC in awhile.. I loved it though. It's close to DC so we have no excuse "
p962
ag3
aa(lp963
S"@noturgirlfri3nd I can't do ne thing I see.. "
p964
ag3
aa(lp965
S'http://twitpic.com/7uqpj - During the load in at F1 in Schools NEC Birmingham...2AM '
p966
ag3
aa(lp967
S'Xbox live is down and i was having fun playing halo '
p968
ag3
aa(lp969
S'@tsattersten  Thanks'
p970
ag10
aa(lp971
S'@kellysparrow btw i was quite surprised about no relationship robert/vittoria. i mean no love\\sex scenes in a hollywood film=weird '
p972
ag10
aa(lp973
S'Im extremely disappointed with the mikey show.....you cant go if youre under 21...damn my 20 year oldness. That just killed my mood '
p974
ag3
aa(lp975
S'c jasmine n ata ang pinaka  maraming updates dito s twitter.....i mean yung messages..... '
p976
ag10
aa(lp977
S'@_Amber_Renee I will call you tomorrow though...for sure. '
p978
ag10
aa(lp979
S'Off to petclub to buy the kitties food. Hopefully the have some new reptiles to look at and maybe bring one home '
p980
ag10
aa(lp981
S'getting ready for the beach this weekend, be back tomorrow. I need more sleep &amp; fooood before I leave... '
p982
ag3
aa(lp983
S'Is in have work bright and early 2mra '
p984
ag3
aa(lp985
S'Thursdaymorning blues, been sick all night... '
p986
ag3
aa(lp987
S'Just had my cancer jab its making me sleepy &amp; i have work l8r '
p988
ag3
aa(lp989
S'Nice Hahaha   Alfonso Wanted you To Be there to fight with Kamaya! Lol. '
p990
ag10
aa(lp991
S'@lizzieIsCool I have no idea, my mum got of '
p992
ag10
aa(lp993
S'Oh.. I almost forgot the show.. '
p994
ag3
aa(lp995
S'haha   2009 is not a ggood year for louise   xxx'
p996
ag3
aa(lp997
S'@goldfoil ahhhh jealous, those are beautiful amazing. T_T the design is so intricate and awesome. '
p998
ag3
aa(lp999
S'@Lisbeth17 but i dont know how '
p1000
ag3
aa(lp1001
S"Wow, lots of people are having trouble with their new iPhones. Sorry, folks.  Then again, this reminds me why I don't own one at all."
p1002
ag3
aa(lp1003
S'I went 2the store an got my chest measured 2day! Why the heck do I do that? It makes me feel SO bad after! Ughhh!  I need surgery! :/'
p1004
ag3
aa(lp1005
S'@mark_r Aahhhhh all i can get is the updates. I want my f1 '
p1006
ag3
aa(lp1007
S'it is late and i am confused  goodnight moon'
p1008
ag3
aa(lp1009
S'finding something to do '
p1010
ag10
aa(lp1011
S'Unemployed again  *jumps out window*'
p1012
ag3
aa(lp1013
S"@MariJonesMcFly you are? Congratulations then! haha. oh okay. It's nearly midnight here anyway. Bye. Lovely chatting with you. "
p1014
ag10
aa(lp1015
S"I go to sleep, I have school tomorrow, also I'm very tired, Goodnight twitter, goodnight people "
p1016
ag10
aa(lp1017
S'@forkalicious Pantene is my secret.   How come I never heard from you? '
p1018
ag10
aa(lp1019
S'@megmorris yeah...i never really used yahoo...i did use hotmail back when it was just starting out...sadly they deleted my account '
p1020
ag3
aa(lp1021
S'&quot;Fly With Me&quot; \xe2\x99\xa5 linda d+ '
p1022
ag10
aa(lp1023
S'wondering why this world is so fucked. Really have faith the youth today will assist in a better world  no pressure LOL'
p1024
ag10
aa(lp1025
S'@technex you and me both. You try getting Organic traffic from any of the top search engines to a site like that one! '
p1026
ag3
aa(lp1027
S"I might smoke some Salvia for Bicycle Day.. that's the strongest plant I've got on hand. "
p1028
ag10
aa(lp1029
S'Guatemala in uproar after lawyer predicts own murder http://bit.ly/rEVQ Meanwhile British MPs fiddle expenses '
p1030
ag3
aa(lp1031
S'Working behind the scene at a fashion show. Fun! Easy $40 '
p1032
ag10
aa(lp1033
S'@gfalcone601 its so cute that u work with kids your sooooo amazing '
p1034
ag10
aa(lp1035
S'classic  \xe2\x99\xab http://blip.fm/~7fnsj'
p1036
ag10
aa(lp1037
S"won on blockles but then lost again at it.  i'll beat them all again. lol;)"
p1038
ag3
aa(lp1039
S'@cryst_trueblue heyya hows you ?  you got your tickets =O      x'
p1040
ag10
aa(lp1041
S"@roweeeena Nope, the Berry brought us together on the interwebs. But we'll meet for real come October. "
p1042
ag10
aa(lp1043
S'very sad '
p1044
ag3
aa(lp1045
S"Trying to figure out how to use Twitter.......I'm old "
p1046
ag3
aa(lp1047
S"My mum's parents are wonderfully sarcastic. Now I know where I get my sense of humour from "
p1048
ag10
aa(lp1049
S'@_most_wanted_ lol silly boy! I love you '
p1050
ag10
aa(lp1051
S'@sandkatt Nice.  Lmao I went to dinner with my friend and helped her do her registry at Ikea because her fiancee is lazy. Twas fun tho. =P'
p1052
ag10
aa(lp1053
S"@WyldDarkHeart I know, I'm jealous you met him.. I still like him.  I thought he'd be our next president. "
p1054
ag3
aa(lp1055
S'@Dog_Crazy we know that  but some 2legs are not so smart )'
p1056
ag10
aa(lp1057
S'@Stoo182 its jst bamboo, it says on the tag &quot;add some luck and a touch of oriental mysticism to your home&quot; sounds gd 2 me '
p1058
ag10
aa(lp1059
S"@mightyvanessa Drink some coffee. don't do it if you are allergic/ "
p1060
ag10
aa(lp1061
S'OH: @ChristyLCarter prob funnier than fml not gonna lie ... My blueberry wat muffin  http://tinyurl.com/l8zonk'
p1062
ag10
aa(lp1063
S'Wow, the month &quot;May&quot; completely slipped my mind. My vacation just got pushed back 31 days '
p1064
ag3
aa(lp1065
S"&quot;There's nothing wrong with me loving you. And giving yourself to me can never be wrong if the love is true.&quot; &lt;3 Marvin Gaye "
p1066
ag10
aa(lp1067
S'First day of a2 cannot be bothered '
p1068
ag3
aa(lp1069
S'Off to go to school  i thought I would stay home, but I,ll not...'
p1070
ag3
aa(lp1071
S'finally decided on dinner. subs!  yummy'
p1072
ag10
aa(lp1073
S"@nichbuick Quite possible I'm afraid, shouldn't happen but can. I had a set replaced under warranty at &lt;2000 miles last year "
p1074
ag3
aa(lp1075
S'@manojnayak  shld be fine man .. just dont do the moonwalk  '
p1076
ag10
aa(lp1077
S'@arasmus Are you eating my leftovers?!?!? '
p1078
ag10
aa(lp1079
S'@delisiaraceli I am so sorry!  I hope you get better!  Take it easy and  just relax   Call me if you need anything!!'
p1080
ag3
aa(lp1081
S'i need to sell stuff. i need a job. '
p1082
ag3
aa(lp1083
S'pepsi gives me headaches '
p1084
ag3
aa(lp1085
S"Has waved goodbye to her gorgeous man. I'll have to wait a whole week to see him again. "
p1086
ag3
aa(lp1087
S"@feartofaith ditto to what @ashmylee's sayin'. thank ya. "
p1088
ag10
aa(lp1089
S'wish i was a nicer person.  and i wish i swore less too. not a good day '
p1090
ag3
aa(lp1091
S'@ExtraOrdinaryy Thank you '
p1092
ag10
aa(lp1093
S"http://twitpic.com/7gaxc - Oopps! She bashed her cheek on the bedside table on daddy's watch "
p1094
ag3
aa(lp1095
S'@missgiggly i know! thanks! '
p1096
ag10
aa(lp1097
S'@DCPincus I did say Lakers in 6 '
p1098
ag10
aa(lp1099
S'oh no  storm and rain....'
p1100
ag3
aa(lp1101
S'Poor little boy is still sick  still a pretty high fever, over 102'
p1102
ag3
aa(lp1103
S'@smaki1209 i hope it does too  dont let work get you down though'
p1104
ag10
aa(lp1105
S"I'm in love with this song. 'Part of the list' Ne-yo.  Hope my man dedicates this to me. HAHAHAHAH"
p1106
ag10
aa(lp1107
S"@Tyser Hi missy no worries I'm also getting there "
p1108
ag10
aa(lp1109
S'@aerdin last two times at the AMC Waterfront my popcorn has been stale '
p1110
ag3
aa(lp1111
S'@lanterconnie It is   Different combo though...coffee and oats, now coffee and M Davis, gotta love it!'
p1112
ag10
aa(lp1113
S'People at my work are fucking retarded. Makes me feel good about myself '
p1114
ag10
aa(lp1115
S'At the hospital today then shopping with mom  Love you so much.'
p1116
ag10
aa(lp1117
S'@DanTanner always boosts my mood '
p1118
ag10
aa(lp1119
S'@csswizardry post is so old now I have no idea if that is a typo or whether I have accidentally deleted 5 links?!?! '
p1120
ag3
aa(lp1121
S'@micahlaney 4th row! '
p1122
ag10
aa(lp1123
S"why didn't Alexa Chung come on today?   "
p1124
ag3
aa(lp1125
S'@BillHurlbut Bill I missed your tweet yesterday..sorry bout that  My internet has been acting weird and just got updates this AM..How RU?'
p1126
ag10
aa(lp1127
S'Toga party was fun. Unfortunately the Toga part was optional, so only a few hardcore togas  #fb'
p1128
ag3
aa(lp1129
S'excited about the trip to the @fudgecandy87  (Munday) Cornish residence  '
p1130
ag10
aa(lp1131
S"Got home from work @ 9:45 and JUST finished cleaning. Now I need to eat dinner and don't know what I want!!  Ugh...oh well. Might not eat."
p1132
ag3
aa(lp1133
S'@NatalieGrant How terrible!  Such a strong woman for standing up to her captors!'
p1134
ag3
aa(lp1135
S'@shahrukhd In the same way that a motor car was a progression of the horse and cart '
p1136
ag10
aa(lp1137
S"@ThEiCyChiLL can't bing the liquid lay .. suck "
p1138
ag3
aa(lp1139
S"Bigger ain't always Better... @ the dishes.. "
p1140
ag3
aa(lp1141
S'@mizplunderbunny hey there!  how are you? '
p1142
ag10
aa(lp1143
S'my tail light its out  gonna attempt to fix it now, or just watch lucas do it idk :o'
p1144
ag3
aa(lp1145
S'To be *absolutely* clear: there is no debate. '
p1146
ag10
aa(lp1147
S'My room is a tip...I really aint in the mood to do the massive pile of ironing  is gaaaaaaaaaaaaaaaaay!!! i dont want to go to uni 2mo '
p1148
ag3
aa(lp1149
S"Tip: don't leave a box of Krispy Kremes near your cat- if it's senile it may just get them confused for a litter box and wee on them. "
p1150
ag3
aa(lp1151
S'@C00L_BEANS ah I got no idea sorry '
p1152
ag3
aa(lp1153
S'Missing fathers day with daddy for practice and bitesize revision. gcse science tomorrrow ahmyygodd '
p1154
ag3
aa(lp1155
S'@yLalu like someone i know.. '
p1156
ag10
aa(lp1157
S'huzzah! The Go Fug Yourselves girls are on Twitter - @fuggirls. They are truly highlarious '
p1158
ag10
aa(lp1159
S'Cooking is not always fun !! '
p1160
ag3
aa(lp1161
S"Hah another Functionality that NoScript prevented. You will see the wefollow.com fields filled in but won't be transmitted. "
p1162
ag3
aa(lp1163
S'@RaraACTIVE OMG I LOVED IT!! what is gonna happen next?! '
p1164
ag10
aa(lp1165
S'http://twitpic.com/6bm08 - The interview  Thaanks @odiibo'
p1166
ag10
aa(lp1167
S'been poorly for like 6 days  uuuuuuuuuuurgggggggggggggggg'
p1168
ag3
aa(lp1169
S'So hungover and I hate the sunny weather '
p1170
ag3
aa(lp1171
S"ok so I didn't finish the paper, but there's always tomorrow!  another night of sweet dreams..."
p1172
ag10
aa(lp1173
S"@HamzaZafar That's the problem. DNS isn't working  uTorrent and DestroyTwitter are working while everything else is down."
p1174
ag10
aa(lp1175
S"oh and @sup_michaela , that is killer! by the way, I leave in a week, I won't be able to talk to you for 5 days!  what will I do?"
p1176
ag3
aa(lp1177
S'has just came back from dancing, sore feet '
p1178
ag3
aa(lp1179
S'Shopping for party decorations - my cousins graduation party '
p1180
ag10
aa(lp1181
S'&quot;through all the hard times in my life, those nights kept me alive&quot; '
p1182
ag10
aa(lp1183
S'@BHarvCameraMan At OneMidtown with @BHARV @KMHarvey @COKY1324 @greedygenius95 and Jason. (Twitterless) &lt;-- sounds like fun '
p1184
ag10
aa(lp1185
S'@drealoveslife eek yes that would be wonderful! '
p1186
ag10
aa(lp1187
S"@nikki_morris i couldn't believe it when i found it  "
p1188
ag10
aa(lp1189
S'@jennystarship , i dont have your new s/n it was on my cell but i didnt save it, i didnt know your on, IM me? '
p1190
ag3
aa(lp1191
S'On the plane. Only about 3 hours until florida '
p1192
ag10
aa(lp1193
S'@craigyd I broke My MacBook but I got it fixed for free '
p1194
ag10
aa(lp1195
S'my source of entertainment just left. '
p1196
ag3
aa(lp1197
S'i spent my nite in the ER. I was bein nosy an a 4x4 fell on head.. it hurts alot!  '
p1198
ag3
aa(lp1199
S'Disappointed at: &quot;Tiger leader Prabhakaran killed&quot; Say Day for tamilians  ( http://tinyurl.com/omherw )'
p1200
ag3
aa(lp1201
S'Having lunch with my tri team, I forgot how beautiful Miami is! I love this city '
p1202
ag10
aa(lp1203
S'Trying to draw Ichigo. Hahaha, '
p1204
ag10
aa(lp1205
S'My parents love jb haha! my mom thinks theyre adorable and my Dad was busting up laughin wen i showed clips of live chat yesterday '
p1206
ag10
aa(lp1207
S'@Btawiah Hey Tawiah  I did a blog for you on bamalovesoul.com Also would you follow me '
p1208
ag10
aa(lp1209
S'@megansu anytime miss Su. '
p1210
ag10
aa(lp1211
S'@PlanetFlipsyde it will be hear soon  I love ur tumblr'
p1212
ag10
aa(lp1213
S'my hair is SO gross today  i need a shower. stat.'
p1214
ag3
aa(lp1215
S'@lolly2420 OH YES!! Write!! I need to READ!! '
p1216
ag10
aa(lp1217
S"Can't figure out how to make form options that you select show after you submit the form... "
p1218
ag3
aa(lp1219
S"@mileycyrus girl your going on tour and you didn't tell me? make the tickets less expencive so I can go "
p1220
ag10
aa(lp1221
S'@Sabullkaa yes  she say too'
p1222
ag10
aa(lp1223
S'@ShannonElizab  I love that lyric you posted I am Katrina Survivor the lines I sent you are opening for poem I wrote while still in city '
p1224
ag10
aa(lp1225
S"i've got to get going sugaaplum. good night twitter "
p1226
ag10
aa(lp1227
S'@JamesMurphy lol. well you have fun with that. '
p1228
ag10
aa(lp1229
S'I hate doing essays!   Please finish it for me....'
p1230
ag3
aa(lp1231
S'Advertisement: how do you guys handle fax?  i want to receive them via email. no hassle. anyone tried MyFax?  http://is.gd/IO5y ~shazam'
p1232
ag10
aa(lp1233
S'i dont even know why im doing this for  http://bit.ly/JugcH'
p1234
ag3
aa(lp1235
S"@GSemillano oh no. not Subway too!!  and since i'm ordering i can't really see how the salad until they deliver. i'll keep u posted "
p1236
ag3
aa(lp1237
S'@agirlcalledm True  Depressing thought! We are all too busy to enjoy life as it should be.'
p1238
ag3
aa(lp1239
S'Just got home, and am going to bake a cake '
p1240
ag10
aa(lp1241
S'not ready to read tons of books!! huhuhu '
p1242
ag3
aa(lp1243
S'@heykim Thanks for retweeting. '
p1244
ag10
aa(lp1245
S'Girls night with @kja2102! House bunny and root beer floats '
p1246
ag10
aa(lp1247
S"It's like 85 and sunny. Decided to take top off jeep, ride through country and get some cold stone ice cream. Perfect "
p1248
ag10
aa(lp1249
S'stupid song..haha it hurts! '
p1250
ag3
aa(lp1251
S"My mom didn't go to Kroger last night, that means no milk therefore no cereal.  my hopes crushed"
p1252
ag3
aa(lp1253
S'about to bake some cookies....kitty ran away come back '
p1254
ag3
aa(lp1255
S'@djvinceadams you know there is always room for you at our little b &amp;b by the beach '
p1256
ag10
aa(lp1257
S"Urgh, to answer my own question - yes I should be worried. Host's RAM has become faulty.  I can't afford this!"
p1258
ag3
aa(lp1259
S'time to sign off.....peace everyone! have an amazing night and sweet dreams '
p1260
ag10
aa(lp1261
S'Chirping birds outside my bedroom window have kept me up since 6:30. '
p1262
ag3
aa(lp1263
S"@pageoneresults Oh we also do the Quirk eMarketing textbook (CC &amp; free)...but I'd like 2 come up w/ a cool twttr-tool sumtime soon... "
p1264
ag10
aa(lp1265
S'@jakehh oh thank god '
p1266
ag10
aa(lp1267
S'*noice = noise....its the new way to spell... '
p1268
ag10
aa(lp1269
S"@EscapeTheFate Ohmygod! Me and my mates actually cannot wait! we've been waiting for aggggges!  x"
p1270
ag10
aa(lp1271
S'@Yoohoojin no iphone icons in browser '
p1272
ag3
aa(lp1273
S'i worry too much sometimes. '
p1274
ag3
aa(lp1275
S'@xlianax happy birthday! 18! I loveee you '
p1276
ag10
aa(lp1277
S"anyone want two tickets to summerjam? I can't go "
p1278
ag3
aa(lp1279
S'@Belle_Harmony Ah! '
p1280
ag10
aa(lp1281
S'waiting for my uncle to come.  '
p1282
ag3
aa(lp1283
S"@aphiorogue sorry. was gone to Ohio yesterday getting a pair of african greys. Yes, I'm paying attention "
p1284
ag10
aa(lp1285
S'@annawillcock Would love to do that. We will make it one day '
p1286
ag10
aa(lp1287
S"i don't think it's overused  ---&gt;http://bit.ly/3oQKj"
p1288
ag10
aa(lp1289
S'@mashable love this mindnumbing vidiot game.... '
p1290
ag10
aa(lp1291
S'head out to outlet later '
p1292
ag10
aa(lp1293
S"@_annie2 i'll be only going to the LA one. So i'll be seeing u then "
p1294
ag10
aa(lp1295
S"@juanbarnard Morning!  I'm well thanks buddy. I lost my twitter pic last month too, and I had to wait a few days before I could restore it"
p1296
ag10
aa(lp1297
S'@Ylimeemily what happened?! '
p1298
ag3
aa(lp1299
S'@mazebr The reality of book publishing is there are many months between end of writing and final printed book on bookshelf '
p1300
ag3
aa(lp1301
S'@bethaquotaholic Yup - yesterday  Have any quotes special for a b-day?? '
p1302
ag10
aa(lp1303
S"@MrsSpaceman I've run out of them  And I've run out of bacardi gin too. Btw the bandmember was the singer, so what would Freud say? xD"
p1304
ag3
aa(lp1305
S'@rannyhillen yup!! someone did!! '
p1306
ag10
aa(lp1307
S"@roseisroadkill sure! i wouldn't mind..  it's annabelledestiny@hotmail.com"
p1308
ag10
aa(lp1309
S"In work for 40mins  and I'm at star bucks all ready "
p1310
ag10
aa(lp1311
S'@48hoursnz Us first timers got Musical, 48 hours and 50 cans of V later, we got in at 7:00:05. '
p1312
ag3
aa(lp1313
S'man i just realized that i forgot to tivo whale wars!  gotta put that on my todo list!'
p1314
ag3
aa(lp1315
S"Isn't it great when bedtime comes JUST as your patience runs out?  Perfect timing here tonight. "
p1316
ag10
aa(lp1317
S'so pissed that this guy that I used to have a total crush on his a total dopehead now...literally...dope. Saw him tonite..doing dope '
p1318
ag3
aa(lp1319
S'@suziemcdaniel Why are you in pain? '
p1320
ag3
aa(lp1321
S"Iron Maiden special didn't tape "
p1322
ag3
aa(lp1323
S"@amypaulsmom do you use the &quot;recurring dates&quot; for &quot;tasks&quot;?  There is no support for recurring ToDo's apparently in iCal natively "
p1324
ag3
aa(lp1325
S"Awesome night it's booze and rock n roll  just totally good night "
p1326
ag10
aa(lp1327
S"Home and trying to 'blegh' (aka relax) "
p1328
ag10
aa(lp1329
S"Twitter?! I'm already late "
p1330
ag3
aa(lp1331
S'@upscale ...like living here to actually see and learn what they are  Other than that, consume as much as you can, blogs, movies, books...'
p1332
ag10
aa(lp1333
S"@byerk I have Verizon and it was the VZ navigator that wasn't working! "
p1334
ag3
aa(lp1335
S'making a bland dinner. anyone want some? '
p1336
ag10
aa(lp1337
S"@Vicky_T how's sims3?! I wanna get it but my laptop sucks "
p1338
ag3
aa(lp1339
S'I worked out, waxed, cleaned, prayed and studied for mcat today. so productive  yay, now for sleep!!'
p1340
ag10
aa(lp1341
S'time to get ready for work now... '
p1342
ag3
aa(lp1343
S'@marjorielu How are they? Still the same? Aw, I miss you guys. '
p1344
ag3
aa(lp1345
S'sat in the kitchen cooking eggs, in such a bad mood.. what am i going to do '
p1346
ag3
aa(lp1347
S'Its officially my bday. Cheers to me. '
p1348
ag10
aa(lp1349
S'@allstationsdown okay  ill have a listen now'
p1350
ag10
aa(lp1351
S'happy birthday Norway '
p1352
ag10
aa(lp1353
S'doing totally NOTHING today, but enjoying '
p1354
ag10
aa(lp1355
S"oh boy, i'm loving life  ..now can June 27 get here faster so that i can love it even more!!"
p1356
ag10
aa(lp1357
S'sitting next to faz '
p1358
ag10
aa(lp1359
S'my babey bunny just got eaten by a fox '
p1360
ag3
aa(lp1361
S'is working alone! '
p1362
ag3
aa(lp1363
S'Hey!  Woke up today 12:30, and just ate breakfast, now I will try to find someone who wants to go out and do something today '
p1364
ag10
aa(lp1365
S'i love waking up at 4 in the morning and finding tagged photos of me playin a show '
p1366
ag10
aa(lp1367
S"I'm glad that the school year is coming to a close.  In band, we don't have to bring anything... just ourselves.  We're watching movies "
p1368
ag10
aa(lp1369
S'Is at my cousins house '
p1370
ag10
aa(lp1371
S"Met an editor from Event News where I used to work. Really wish I could go back, but their paychecks can't pay the bills. "
p1372
ag3
aa(lp1373
S"miss's chris. a lot "
p1374
ag3
aa(lp1375
S'Sao ko c\xef\xbf\xbd ma n\xef\xbf\xbdo l\xef\xbf\xbdn chat nh?. M\xef\xbf\xbd s?p thi r?i, m\xef\xbf\xbdnh c\xef\xbf\xbdn c? online ho\xef\xbf\xbdi '
p1376
ag10
aa(lp1377
S'@b_snags theres no way i was going inside.. i wish i wasnt that drunk so i could have '
p1378
ag3
aa(lp1379
S'home gettin ready for social studies final '
p1380
ag3
aa(lp1381
S'Thursday? But I still have 2 more days to work '
p1382
ag3
aa(lp1383
S'@brandykill Naw. Not really in the mood for bacon - yet '
p1384
ag10
aa(lp1385
S'Fam jus left da h0use.. miss them already '
p1386
ag10
aa(lp1387
S"@Mrjaydeeone brother still has 96 neon, but engine tore up tranny. Car been sittin for 2 years. He won't let me buy it from him "
p1388
ag3
aa(lp1389
S'there was this tiny little precious dog outside my house. he was so sweet, too. he ran to my neighbors, and they just yelled at him. '
p1390
ag3
aa(lp1391
S'I have a migraine today  !!!'
p1392
ag3
aa(lp1393
S'@Smiles206 I wasnt invited! '
p1394
ag3
aa(lp1395
S'just woke up  work at 4. hanging with friends until then '
p1396
ag10
aa(lp1397
S'Graduation yesterday was pretty cool but mostly i just sweated a lot. packing for Germany now, leaving tomorrow '
p1398
ag10
aa(lp1399
S'Calls in queue...so much for VTO tonight '
p1400
ag3
aa(lp1401
S"@rsm4lsu I'm just cranky! "
p1402
ag10
aa(lp1403
S'#FF @YoungSlapz because his blog is really cool  And he works really hard on it for the ppl who go to it...you all should support it! '
p1404
ag10
aa(lp1405
S'@Bennoda.co.nr awww, Chaz looks so pretty on this pic  http://bit.ly/ZwnUa'
p1406
ag10
aa(lp1407
S'iMovie HD is taking for ever to Import the videos '
p1408
ag3
aa(lp1409
S'http://twitpic.com/7xdu2 - My new desktop pic....   o '
p1410
ag3
aa(lp1411
S'Lydia is cute... but sleepy '
p1412
ag10
aa(lp1413
S"@ i think you're going to be in Edinburgh allllllll week so you should just come over here and hang with us for oneeeee night "
p1414
ag3
aa(lp1415
S"@khairulnz I know it sucks. but i'm just way too bored! "
p1416
ag10
aa(lp1417
S"@marianabizoffi not now, darling.  tell us about the Jonas' concert.. ; )"
p1418
ag10
aa(lp1419
S"@ClaireQA  Hey Sweetie!   I missed you today.  *to Claire's Mom*  Happy mother's day again.  "
p1420
ag10
aa(lp1421
S'@omgzitznina  That was me every day when I worked at Wal-Mart. Fucking retail will do that to you.'
p1422
ag3
aa(lp1423
S'@LadyLenique Please support Electrik Red and sign these http://bit.ly/42zJa http://twitition.com/f5iae Thanks!!! '
p1424
ag10
aa(lp1425
S'@meghornby nothing  i just looked at something now im sad and my stomach feels funny  haha you? x'
p1426
ag3
aa(lp1427
S'wow these r the times i wish i had a man '
p1428
ag3
aa(lp1429
S"Gnight shar   &lt;(' '&lt;)Vega(&gt;' ')&gt;"
p1430
ag10
aa(lp1431
S'@sidin Ahh.. i miss Mumbai Dabelis '
p1432
ag3
aa(lp1433
S"I love being spoiled. I'm a little too old to be spoiled but oh well. "
p1434
ag10
aa(lp1435
S'@LewisM09 I miss you so much x of course I still love you '
p1436
ag10
aa(lp1437
S'@mitchelmusso do you have an england saynow number? Because i cant call the us one '
p1438
ag3
aa(lp1439
S'its really hard to study again '
p1440
ag3
aa(lp1441
S'is at work but terribly sleepy! '
p1442
ag3
aa(lp1443
S'Am so HAPPY it was actually hot and nice out today!  WOO HOO!'
p1444
ag10
aa(lp1445
S'my car is full.  ask vic.'
p1446
ag3
aa(lp1447
S'@DrRus Thank you. On to Herrick and Herbert now. '
p1448
ag10
aa(lp1449
S'Just got my first ball in 19 years and got yelled at to give it to a little kid '
p1450
ag3
aa(lp1451
S'@gu_heffner Damn well goodnight/morning to u....as I head to work  lol'
p1452
ag3
aa(lp1453
S'everyones talking about before the storm now haha '
p1454
ag10
aa(lp1455
S'@YankeeGirl20 @tracicoulter @jengroover I am good too. Just need a day or so notice.   Let the Drink-a-thon Begin.'
p1456
ag10
aa(lp1457
S"Going swimming with Jedi Scouters real soon; I'm stoked. "
p1458
ag10
aa(lp1459
S'@ipadio we have become gr8 fans but how can we get a player on home page? we have to keep embedding new ones '
p1460
ag3
aa(lp1461
S'Waiting for top soil delivery truck. 10 yards and going to spread by hand '
p1462
ag3
aa(lp1463
S"@KristineStClair Oh, I'm sorry to hear that, Kristine "
p1464
ag3
aa(lp1465
S'@mashable Thanks to TweetStats, I confirmed what I long suspected: Twitter is keeping me up way too late!  http://tr.im/kpc1 @tweetstats'
p1466
ag10
aa(lp1467
S"Well, actually I'm not so free. I must clean the house. "
p1468
ag10
aa(lp1469
S'And tomorrow I have to do Accounting Project and 3 more pages for our Damn English paper...yes Prof K damn paper haha  '
p1470
ag10
aa(lp1471
S"@DRAMAndPLEASURE i was team jacob before pa  dude, i'm still posting the finger pic okay XD"
p1472
ag3
aa(lp1473
S"Have a great weekend everybody because I know me and @xadorkablemex3 won't "
p1474
ag3
aa(lp1475
S'@DeeBrownMan  Im up for now. I wana come to New York baby.'
p1476
ag10
aa(lp1477
S'Woke up earlier than I wanted to on my day off '
p1478
ag3
aa(lp1479
S'@missconway good morning from germany  kitty vid ? no.....where can i see it ? i have 2 cats ....so cute but bold as hell *lol*'
p1480
ag10
aa(lp1481
S"@Kyle6767 all's good no complaints - sent Gabbi a fb msg today with details re 18th - would be cool to see ya  How goes it on your side?"
p1482
ag10
aa(lp1483
S'http://twitpic.com/67wwu - Just came back from the gym  hard workout with @ZulanyP and @CarlaPatriciaa'
p1484
ag10
aa(lp1485
S'My blog is lonely  ...www.literarynobody.blogspot.com'
p1486
ag3
aa(lp1487
S"Still waiting for Virginia to reply to the email that I've sent her "
p1488
ag10
aa(lp1489
S'@RealWizKhalifa Sounds like a fun night. '
p1490
ag10
aa(lp1491
S'I might be saying bye to my iPhone for a few days '
p1492
ag3
aa(lp1493
S'Finally hung out with other vegas juggalos. Fun night! '
p1494
ag10
aa(lp1495
S"@rabumiku You're going?? ARG!!! I have to wait until the weekend at earliest... "
p1496
ag3
aa(lp1497
S'&amp; he got away with the girls in the back acting like they are too hot to dance. '
p1498
ag10
aa(lp1499
S'One is Bored with nothing to do '
p1500
ag3
aa(lp1501
S"Roar! Definitely wanted to be at that party last night. So sad I wasn't "
p1502
ag3
aa(lp1503
S'@craziex3 good thanks, just chillin  P.A'
p1504
ag10
aa(lp1505
S'same same, but different (lesesal) nothing to look at, just words in my economic papers '
p1506
ag3
aa(lp1507
S"Mother's Day's no fun when your mom is in the hospital "
p1508
ag3
aa(lp1509
S"Once again I can't follow-back people who are following me, thanks to Twitter's bone-headed limits, sorry Tweeps...  "
p1510
ag3
aa(lp1511
S'Car failed MOT '
p1512
ag3
aa(lp1513
S"Kennywood today!! YAY!! So excited!! I'll tweet from the park! Have a great day Twitter! "
p1514
ag10
aa(lp1515
S'#Q-Tip on the Office speakers @F_i #Stockholm, Perfect way to kickstart the week! '
p1516
ag10
aa(lp1517
S'this will deffinatly make up for that awkward encounter '
p1518
ag10
aa(lp1519
S'Jst got up. Already in a bad mood '
p1520
ag3
aa(lp1521
S'is up, had to take grams to doctor by 8.. no sleeping in for me '
p1522
ag3
aa(lp1523
S"@katyperry aww that's good that you're family is with you  hope you're having fun!"
p1524
ag10
aa(lp1525
S'@miss_sixteen_ ummm i dont really no... well i didnt think it was that bad fingers crossed i did good! what about you?? A+ im sure.. '
p1526
ag10
aa(lp1527
S"I actually don't know what to do "
p1528
ag3
aa(lp1529
S"Feels hungryyy...... Haven't eat @this mornin.. "
p1530
ag3
aa(lp1531
S"@michellelicous I love your picture! :p It's so great. I just love it ! "
p1532
ag10
aa(lp1533
S"Grr thats annoyed me! Photography teachers just told me to go into more detail in annotation on proj before she'd read one word! "
p1534
ag3
aa(lp1535
S'i really miss photoshop '
p1536
ag3
aa(lp1537
S'Summer help - Hire a Teenager - Start your search now  babysitting, picking up, cleaning, meal prep, errands......'
p1538
ag10
aa(lp1539
S'@cmarce very sad '
p1540
ag3
aa(lp1541
S"@brooklynoop Hiyas! Doin' ok, and yourself?? @xdahlia Awwww  I sowwy! Sleep! @Jaaycooxo Lol, niiiiice.  No shame in the Noopy love! lol"
p1542
ag3
aa(lp1543
S'continually (sp) '
p1544
ag10
aa(lp1545
S"@Alex_Le_Trend I know, I know, I'm sorry  Had to change it cuz of peer pressure. So I got one with absinthe and a sexy fairy on for you."
p1546
ag3
aa(lp1547
S"Time to get back to my paintings~it's been a pleasure to twitter this A.M. ~I look forward to twittering/reading more this wknd! "
p1548
ag10
aa(lp1549
S'spanish test tomorrow.  kill me'
p1550
ag3
aa(lp1551
S"@mikearthur I think it's genius (taking shrooms notwithstanding) I'm not sure how well it translates beyond the 1st time, but it's magic! "
p1552
ag10
aa(lp1553
S'@SyntaxC4 I was joking. Someone followed me and had the bio &quot;RSS Media Expert&quot; typical social media blegh '
p1554
ag10
aa(lp1555
S'@CHCatMom not really into those kind of books, but thanks '
p1556
ag10
aa(lp1557
S"@pornlaw damn u on the grill when I'm in Vegas. I luv grilled food. "
p1558
ag3
aa(lp1559
S"@Pattyoboe bozhanov?  definitely watching is way more engaging and less distracting. except er in his case. jury's still out on him for me"
p1560
ag10
aa(lp1561
S'Watching the sun come up with Tess  towards the end of an overnight drive from Boston to Cleveland. Looks pretty in the rear view mirror.'
p1562
ag10
aa(lp1563
S'back and feeling awesome  that was a great weekend '
p1564
ag10
aa(lp1565
S'forgot his shampoo in Sarasota, so now gets to smell like a girl on his first day of work.  #fb'
p1566
ag3
aa(lp1567
S"@CherryBear Sun cream will never happen, I hate the stuff. But I'll remember the crisps for next time "
p1568
ag10
aa(lp1569
S'There is a man using my elbow rest.  http://twitpic.com/5dklt'
p1570
ag3
aa(lp1571
S'Missed the sample people at Costco today. Got here too late. '
p1572
ag3
aa(lp1573
S"I wish i'd had &gt; 5 hours sleep.  Staffing ticketdesk at Goldcoast after work &amp; tomorrow morning.  Should probably lunch-nap in my car now "
p1574
ag3
aa(lp1575
S'Morning tweeps hope you are all having a good morning with this lovely weather we have - sunny sunny '
p1576
ag10
aa(lp1577
S'@triplejmornings Thankyou. '
p1578
ag10
aa(lp1579
S'playing guiter and being bored '
p1580
ag3
aa(lp1581
S"I hate when the kids don't leave me any dinner. And they still did not  clean the kitchen.  "
p1582
ag3
aa(lp1583
S'I hate Twitter. So.. I thought you should know. '
p1584
ag10
aa(lp1585
S'@CoCo_Rene awww honey. my roommates were too passed out to move! lo Siento '
p1586
ag3
aa(lp1587
S'my shampoo smells weird. but my hair is so soft when i use it. hm. so my options are soft hair or good smelling hair.  hates to choose.'
p1588
ag3
aa(lp1589
S'@Tyrese4ReaL no one ever really LOLs! Hahaha eat something yummy '
p1590
ag10
aa(lp1591
S'@K2_is_my_prince plsss and sorry if i offended u before, didnt mean to '
p1592
ag3
aa(lp1593
S"there is no air circulation. i'm melting.  and the icecream did too"
p1594
ag3
aa(lp1595
S"i'll never sleep at 7am again.  but i got Mos Def now, who cares?"
p1596
ag3
aa(lp1597
S"computer taken out of room for ' misbehaving ' and  ' constantly getting detentions. wtf i'll steal it back tonight ! "
p1598
ag10
aa(lp1599
S"@DonnieWahlberg is what I'm reading correct?? NKOTB have cancelled to OZ tour?? please tell me it's not true "
p1600
ag3
aa(lp1601
S'@NiamhSomebody Totally!!  '
p1602
ag10
aa(lp1603
S"can't find that new Haruki Murakami's book anywhere, it was even sold out at the book store at SFC "
p1604
ag3
aa(lp1605
S'Nothing to do.. '
p1606
ag3
aa(lp1607
S'Rain.. Rain.. go away if not this is going to be a difficult camping day  #fb'
p1608
ag3
aa(lp1609
S'Dangit, I forgot to tweet #squarespace today. '
p1610
ag3
aa(lp1611
S'@icarusprakash aaha, kalaika company irukkathae  @chenthil also dropped out. im thinking of going around 1 pm'
p1612
ag3
aa(lp1613
S'http://tr.im/m5RI - Lincoln Mercury. Star Trek and Star Wars or any sci-fi lovers would love it '
p1614
ag10
aa(lp1615
S'Ran outta gas on my way to the station  booo'
p1616
ag3
aa(lp1617
S'@rixx03 oops. i guess i spoke too soon. '
p1618
ag3
aa(lp1619
S'Havent done as much revision as I should have done today  Will have to work harder this week I suppose.'
p1620
ag3
aa(lp1621
S'@droze4 tv is going to rott ur brain donny..! '
p1622
ag10
aa(lp1623
S'goin to work...........fuck..........its holiday here and i gotta work '
p1624
ag3
aa(lp1625
S'David Eddings Died?  How sad  http://www.sfcrowsnest.com/news/arc/2009/nz14000.php'
p1626
ag3
aa(lp1627
S"@SeeJustWhereIAm I'm worried it may all backfire, and then people will think actual kittens are not cute, because of sea kittens... "
p1628
ag3
aa(lp1629
S'@ghawi apparently not without meds... '
p1630
ag3
aa(lp1631
S'@THEDJPHAZE  not cool dude...that shits scary. lol'
p1632
ag3
aa(lp1633
S'@MrMattM Can you show him the Slangaz and book us some time at Hands of God Studios? '
p1634
ag10
aa(lp1635
S"@smiley92 It's very interesting I think.  Have a nice day if I'm not here later to talk to you.  love U"
p1636
ag10
aa(lp1637
S'sister and hubby arrived from UK for holiday. Roll on weds night off out for dinner their treat ah bless! its sure getting hot here. '
p1638
ag10
aa(lp1639
S"@alex32404 i liked the first one, i've seen a few here lately though  the haunting in connecticut was good."
p1640
ag10
aa(lp1641
S"Movie time w/ hubby. Watching Day the Earth Stood Still. He always promises not to fall asleep during movies. He'll be asleep in minutes! "
p1642
ag10
aa(lp1643
S'What a phenomenal dinner I made '
p1644
ag10
aa(lp1645
S'At the HUT with stephaniel '
p1646
ag10
aa(lp1647
S"trying to stuff as much stuff as possible into the packet I'm going to mail home. hating on the air travel luggage restraints! "
p1648
ag3
aa(lp1649
S'goddamn it why am i up so early!!!! '
p1650
ag3
aa(lp1651
S'@hubertsenters your tweet was just included in The Longest Poem in the World www.longestpoemintheworld.com/tweet/14302/ '
p1652
ag10
aa(lp1653
S'i realllllly hope im not sick '
p1654
ag3
aa(lp1655
S"Gentlemen's Club advertised on radio that the have Chocolate Pudding wrestling on Saturday nights... I wanna go... "
p1656
ag3
aa(lp1657
S'ughh so bored '
p1658
ag3
aa(lp1659
S'Thank you  '
p1660
ag10
aa(lp1661
S'@AndromedaH How much does it cost? '
p1662
ag10
aa(lp1663
S'Loves watching romance/romantic comedies but now she wants to cuddle and be held... '
p1664
ag3
aa(lp1665
S'@CSI_PrintChick hehe I can imagine...I would be too! @jonathanRknight is dreamy '
p1666
ag10
aa(lp1667
S'Pissed about my coffee and my cup!  What a horrible way to start the day!  '
p1668
ag3
aa(lp1669
S'Another loser: Earthfest with Ally today  then home; Amandas Grad party? Hell yerrr; oh btw....y.. http://tinyurl.com/n25aln'
p1670
ag10
aa(lp1671
S'i need to, i need to, i neeeeeed to, i need to make you see oh what you mean to me  school drives me crazy xD'
p1672
ag10
aa(lp1673
S'going to look in the refrigerator for a taste snack to eat '
p1674
ag10
aa(lp1675
S"@sixtwosix aww she crawls under blankies!!!  Mine doesn't do that "
p1676
ag3
aa(lp1677
S"@do0dlebugdebz yeah.i want my allowance.they haven't bank in em  . @carlacharisse yes.i'm going next year.B. Ed. in Uni of Auckland"
p1678
ag3
aa(lp1679
S'@cortneyofeden What a cute face '
p1680
ag10
aa(lp1681
S"@marisa1992 hahah i'm super tired, so i'm going to go to sleep, but i'll call ya bright n early tomorrow so we can chillll "
p1682
ag10
aa(lp1683
S"I'm feeling so so stressed up. I think I need rezky's gokil-ness!! "
p1684
ag3
aa(lp1685
S'@chibka ahahahaha  I dont know why but I laughed for like a minute after i read that...'
p1686
ag10
aa(lp1687
S'today is my boyfriends birthday and i dont think that im going ot be able to see him  crying!!!'
p1688
ag3
aa(lp1689
S'@SharoNiley Me too.&quot;I think that you are lovely, I think that you are beautiful...&quot; '
p1690
ag10
aa(lp1691
S'still raining. still bored. still at home  ugh maybe tomorrow it will clear up'
p1692
ag3
aa(lp1693
S'@Elvis8 you should so buy that i would right now!! lol '
p1694
ag10
aa(lp1695
S'@simply_brandon im still slightly hungover '
p1696
ag3
aa(lp1697
S"@milcom_ Good. If I were him I'd be really wary of playing Soderling. But I'm sure he'll manage. Go Fed! "
p1698
ag10
aa(lp1699
S'@icia yes naman chuch you have twitter already! yipee!! '
p1700
ag10
aa(lp1701
S"@RoxanneDawn Beats handbags, honey (flashes/external drives)...and they're more musical "
p1702
ag10
aa(lp1703
S"Heading to pluit hospital... Huuufff, don't like hospital.. "
p1704
ag3
aa(lp1705
S"@MissShellBelle Heeeeeeeey! you're still out there! Good to hear from ya  I'm doing well...still jobhunting though..."
p1706
ag10
aa(lp1707
S'today is Macbook Pro day!.......it will finally arrive! '
p1708
ag10
aa(lp1709
S'@MichelleDewbs damn i want a wispa now '
p1710
ag3
aa(lp1711
S"@anakin1814 If I don't, who will? "
p1712
ag3
aa(lp1713
S"Did anyone vote yet? Can you hear me? I've never gotten a Tweet back, ever since I've been on here, so sad "
p1714
ag3
aa(lp1715
S"Didn't take long to get vacation atrophied.  Lost 11 lbs and my clothes are too big.  Time to hit the gym."
p1716
ag3
aa(lp1717
S"Nap wasn't nearly long enough  But on the way to see Keane with T!"
p1718
ag3
aa(lp1719
S"Morning all,got Hemi's party 2day,gonna b bout 20 kids runnin around  joy joy!! At least sun is out so they can go in garden!"
p1720
ag3
aa(lp1721
S"don't get this twitter thing... "
p1722
ag3
aa(lp1723
S"@Dr_Itor Yeah, it was mentioned.  It was the main reason for the conversation.  I'll have to fill in the details.  "
p1724
ag10
aa(lp1725
S'@susysu  Owns Leeds?  Wow!  You gotta lock that down!  '
p1726
ag10
aa(lp1727
S"@dameenrouge I have been to Tara Thai a few times for friend's birthdays and the food I had was pretty bad. "
p1728
ag3
aa(lp1729
S'@jesssicababesss adddddded '
p1730
ag10
aa(lp1731
S'another boring day at the a1 shop '
p1732
ag3
aa(lp1733
S'Nerding out with people is so much fun. '
p1734
ag10
aa(lp1735
S'my right tricep hurts.....ouch '
p1736
ag3
aa(lp1737
S"Still at GMU. I'm getting ready to go back home "
p1738
ag3
aa(lp1739
S"@DonnieWahlberg Don't forget your Kiwi soldiers in New Zealand!!!  We love you too!!!"
p1740
ag10
aa(lp1741
S"@aral not quite the hordes we saw last year is it? maybe the people who bought then can't renew their contracts yet? "
p1742
ag3
aa(lp1743
S'@Gomerch I wish I could get my mitts on one of those year books! '
p1744
ag3
aa(lp1745
S'Bom dia twitters '
p1746
ag10
aa(lp1747
S'@TGRWorzel Or voting for the English Democrats '
p1748
ag10
aa(lp1749
S"@ladyxayla I can do that myself, it's just that it won't help now because the family tree picture is only taken once and never changes. "
p1750
ag3
aa(lp1751
S'@miraclelaurie Ur number 3 right now in poll, we need more votes! '
p1752
ag10
aa(lp1753
S"@jeremyjaeger LMAO who tellin lies.... first I'm sweet, now I'm a liar?! GREAT Mr. Jaeger, now I'm sad "
p1754
ag3
aa(lp1755
S'Train in Kings Park is 11 minutes late. '
p1756
ag3
aa(lp1757
S'Yall any Italian got twitter?? '
p1758
ag3
aa(lp1759
S'@khaled I liked the article, hope someone in #Nokia reads it and do something about '
p1760
ag10
aa(lp1761
S"@dirty_snowflake Wow really?? that's crazy! I swear I knew what that was since I was like 14... how sad of me "
p1762
ag3
aa(lp1763
S"my best friend and I have decided to rewrite Peter Pan. It's going to be amazing, but tragic, since Peter Pan is actually a dead child. "
p1764
ag3
aa(lp1765
S'Why does my twitt pic not work '
p1766
ag3
aa(lp1767
S"@djprostyle that's a crazy ass pic!!! Wow!!!  "
p1768
ag10
aa(lp1769
S"guess all my the walking,golf,digging has caught up as i'm back to aching all over - thought i was past that- so disappointed "
p1770
ag3
aa(lp1771
S"@sam_dotcodotuk http://bit.ly/3xjC2  try here if you're still having problems "
p1772
ag10
aa(lp1773
S"@whovian99 I remember the pineapple discussion but I didn't put his name with it.  John Smith is a lovely man "
p1774
ag10
aa(lp1775
S'got more than 6h sleep today ... amazing feeling ... almost no confusing present '
p1776
ag10
aa(lp1777
S'The most effective way to remember your wife\xe2\x80\x99s birthday is to forget it once '
p1778
ag3
aa(lp1779
S"going to tarryn's soon for state of origin! "
p1780
ag10
aa(lp1781
S"Can I not use the Blue controller on Scene it? I don't want to use green "
p1782
ag3
aa(lp1783
S'@shanedawson the worst torture ever is not being close to you. '
p1784
ag3
aa(lp1785
S'&quot;You confessed your love undying devotion I confessed my need to be free...&quot; - Justin Timberlake '
p1786
ag3
aa(lp1787
S"@DonnieWahlberg@JonathanRKnight I have to go to bed,I'm too drunk off my cough syrup.to function right now..love ya guys, Melinda   "
p1788
ag10
aa(lp1789
S"'Akira' Project is Dead as a Doornail. http://bit.ly/aarLP  Poopie.  Probably would've been crap anyway."
p1790
ag3
aa(lp1791
S"....k.... 1.7miles south, now.............. \xef\xbf\xbdber 3 Berge muss ich gehn bis der &quot;pss-pss-pss' sound kommt.........(will nich) &gt;&gt;&gt;&quot;MUSS&quot;&lt;&lt;&lt; "
p1792
ag3
aa(lp1793
S'@FF5_Freak910  white vineger will get rid of it  '
p1794
ag10
aa(lp1795
S'No tattoo today    Gotta wait till next time the guy is here!'
p1796
ag3
aa(lp1797
S'WHY WAIT AGAIN? I absolutely HATE waiting! one more chance? i dun think so!!!!! '
p1798
ag3
aa(lp1799
S'Royal Ascot today - Happy Days    few each way shots out there im sure...'
p1800
ag10
aa(lp1801
S'@fantasticfest  Airbender: except for the stunning lack of Asians in the cast http://tinyurl.com/qlfd5w  '
p1802
ag3
aa(lp1803
S"@MariaLKanellis I went shopping today and I had to think about you the whole day !!  You're such a fashion icon \xe2\x99\xa5."
p1804
ag10
aa(lp1805
S'has had a great week (y) thankyou friends(yn) tis my birthday in three daaays '
p1806
ag10
aa(lp1807
S"Want a new shirt too, but I doubt I'll find one in the time I've got.  Wish I'd bothered having my vintage suit altered."
p1808
ag3
aa(lp1809
S"@amirmc yep i'm rather happy with the numbers  we have bios on each attendee and will be requesting full society profiles this week."
p1810
ag10
aa(lp1811
S'@creattica Indeed. It depends on how one codes for the post title  speaking of which... oncontextmenu=&quot;return false;&quot; is a total nightmare'
p1812
ag10
aa(lp1813
S"@ktabin Oh, I hadn't noticed that! You're right. Hmm ... "
p1814
ag3
aa(lp1815
S'in LA with some homies '
p1816
ag10
aa(lp1817
S'What a sunny day again!  Suffering after yesterday though. '
p1818
ag3
aa(lp1819
S'http://twitpic.com/7j0ub - one of those random lunch dates after our thesis preparation/meeting thingie '
p1820
ag10
aa(lp1821
S'@PirateMookie  wish i was still HERE! http://is.gd/rd5C'
p1822
ag10
aa(lp1823
S'Injection in a bit!! Scared '
p1824
ag3
aa(lp1825
S'waiting for Good Game at 8.30  yaaaay bajo &lt;3'
p1826
ag10
aa(lp1827
S"sooo stoked it's saturday "
p1828
ag10
aa(lp1829
S'We are one game down. '
p1830
ag3
aa(lp1831
S'@tranquilista Ugh...I loathe riding by those trucks. Loathe it, loathe it, loathe it, and try so hard not to look into any of their eyes! '
p1832
ag3
aa(lp1833
S'I hate summers.. '
p1834
ag3
aa(lp1835
S"More than wonderful weather, am so hot. Just had a cold shower to refesh. More hours in sun now. I've totally got a tan "
p1836
ag10
aa(lp1837
S'live on stickam.com/itstyleryo COME CHAT! '
p1838
ag10
aa(lp1839
S'@thelema09 @tdnnc @undeclard Oh lord look at this !!!  http://yfrog.com/5fq2ufj'
p1840
ag10
aa(lp1841
S'oh know me.  just always making threads '
p1842
ag10
aa(lp1843
S"is glad it's a clear night... beautiful stars. but i can't see the moon from where i'm laying "
p1844
ag3
aa(lp1845
S'I wish tweetie desktop was coming out for the PC today and not just the MAC  I blame global warming'
p1846
ag3
aa(lp1847
S"Just got home from Kayla's.... go check out the new pics i have on myspace.. look what we have done all day "
p1848
ag10
aa(lp1849
S"Morning all. Can't wait to take these photos "
p1850
ag10
aa(lp1851
S"@atmc35 He has a little bug. Coughing a lot, can't sleep. A little temp too. Mostly he's tired. "
p1852
ag3
aa(lp1853
S'im excited.  its a good day!'
p1854
ag10
aa(lp1855
S'@Cocoa_B Hahahahaha, whatchall do today?  Go to da sto?  Lol.  I kno niecy poo poo is so sooo tired!!  Awww niecy poo '
p1856
ag3
aa(lp1857
S"is thinking there's only 11 and a half weeks til we meet our little man "
p1858
ag10
aa(lp1859
S"@rogertinsley I'm also wearing a hat. Ask Peter McCready about my Klingon Head in San Diego  I've got a picture if you want to see it..."
p1860
ag3
aa(lp1861
S'how come that spain did loss from the usa, strange result, no brasil-spain in the final '
p1862
ag3
aa(lp1863
S'Where did my warm weather &amp; sun go?? Come back to me '
p1864
ag3
aa(lp1865
S'absolutely nothing! '
p1866
ag3
aa(lp1867
S'The swine flu has spead to bayonne  they closed a downtown public school cause of it!'
p1868
ag3
aa(lp1869
S"RU following @theimpactguy?  Let's boost up Murray Grovum's followers today (he seems to be putting out some good content today). "
p1870
ag10
aa(lp1871
S'I HATE THUNDER!! need i say more '
p1872
ag3
aa(lp1873
S'@loisheilig I would love to come put out some feeders for you,  Wish you lived just down the street, but alas, your not '
p1874
ag3
aa(lp1875
S'@MrChank '
p1876
ag3
aa(lp1877
S'damp one today '
p1878
ag3
aa(lp1879
S'@chocobomoshpit @clydechicken I have the beta and I want in! I have weird hours though '
p1880
ag3
aa(lp1881
S'@KellyShibari That was fun! I was in the chat. '
p1882
ag10
aa(lp1883
S'Sitting at pc having breakfast of delightful Greek bread and tea and missing facebook thats down for updating.... '
p1884
ag3
aa(lp1885
S"Julianne Hough is following me? If that's really her then that's way cool. I've had her song in my head all day  "
p1886
ag10
aa(lp1887
S'@lurkey Dying of laughter! That was brilliant   Hahaha!'
p1888
ag10
aa(lp1889
S'@Classy_Ann damn i fell asleep, sorry i checked no video maybe next time you paint bod i can watch broadcast...it woulda been interestin '
p1890
ag3
aa(lp1891
S"@sexyliah lol oh ok--you know I'm gonna be sitting at the airport b4 you so have my sausage egg and cheese mcgriddle ready THANKS "
p1892
ag10
aa(lp1893
S"@swiezes u goin so soon????.... plz chat wid me ma sweet sis... or i'll b lonely.... "
p1894
ag3
aa(lp1895
S'omgosh why is all this SO hard '
p1896
ag3
aa(lp1897
S'@ashbenzo - you were in bring it on in it to win it (or one of them) ,  right? i was at orlando when you filmed it., '
p1898
ag10
aa(lp1899
S'@jezebel314 haha, ok. I have a hell morning too. A whole four hours locked in prison, Imean!! locked in the Olive Garden! I mean, at work '
p1900
ag10
aa(lp1901
S'@BlueEyedGirl18 hah true that '
p1902
ag10
aa(lp1903
S"@Cupcakevendetta I don't play a lot on DUC anymore  I'm buy in school cupcake......How are you?"
p1904
ag3
aa(lp1905
S'@Pastor_T 81 and mostly sunny here today '
p1906
ag10
aa(lp1907
S"@MsZsaZsa hey! I just got home....awww man it was so much fun! Danced so much! but apparently it's every Tuesday "
p1908
ag10
aa(lp1909
S'@_refugee_ /me gets &quot;Your video will start in 15 seconds&quot;, Exiting to watch ... for minutes  #flash #linux #fail'
p1910
ag3
aa(lp1911
S'I dont feel good '
p1912
ag3
aa(lp1913
S'@jwhitehead @ClarissaC108 @GONZOTL @GONZOTL I used to be the US champ at Galaga... That the same?  '
p1914
ag10
aa(lp1915
S'Leaving parents house, no dancing tonight, no crazy ass party, and no plans  ......but the night is still early'
p1916
ag3
aa(lp1917
S'@ohhai_itsashley awesome. '
p1918
ag10
aa(lp1919
S'@TracieMae you could use tweet deck and give me my own column '
p1920
ag10
aa(lp1921
S'@cow12boys3 nice!!! I love how domestic you are! '
p1922
ag10
aa(lp1923
S'@tymoss i only have 16 swagbucks i just started '
p1924
ag3
aa(lp1925
S'@photomernik I need some noms. Go make me some please '
p1926
ag10
aa(lp1927
S"@KellieBach I want chocolate covered strawberries u bitch!! U held out till I left  u melted the dark didn't u urghhhhh!!!!!!  I miss u!!"
p1928
ag3
aa(lp1929
S'No good dreams '
p1930
ag3
aa(lp1931
S'Ohh, mummy is shutting down the puter. I guess that means I have to go  Night to you @morriscat!'
p1932
ag3
aa(lp1933
S'@SackPackies Heyy '
p1934
ag10
aa(lp1935
S'@femmetality no in me as far as talking to me.......im sad......thought we were better than that '
p1936
ag3
aa(lp1937
S'ME is burn monkey atm  and god damn microsoft why is IIS and ODBC on xp so shit! ur wasting my time'
p1938
ag3
aa(lp1939
S'We are driving over water !! On our way to westkapelle !! Dem a bleach '
p1940
ag10
aa(lp1941
S'DQ is a failure... the lady put one brownie at the bottom of my moolatte... this makes me sad '
p1942
ag3
aa(lp1943
S"is wishing all the beautiful mother's an amazing mother's day "
p1944
ag10
aa(lp1945
S'Wishes he was invited to stay for smores '
p1946
ag3
aa(lp1947
S'@Relucs Absulutely gutted that you think I would fail to qualify as a gnome '
p1948
ag3
aa(lp1949
S'@domster Excellent stuff, good start to the hols '
p1950
ag10
aa(lp1951
S'Management meeting, all afternoon! '
p1952
ag10
aa(lp1953
S'@rebeccashearing You are welcome my dear ! '
p1954
ag10
aa(lp1955
S"Well never stop stop stop - Port might have the power to win but crow don't  Goodluck thunderbirds for today's game against vixens"
p1956
ag10
aa(lp1957
S'working in the rain.. '
p1958
ag3
aa(lp1959
S'@foxyma2k9 whats good ma? Having a good sat '
p1960
ag10
aa(lp1961
S'@setamolmax PS: 5th sense? There are five senses. :p Pointing out typos gives me a high!  Hahaha!'
p1962
ag10
aa(lp1963
S"Should consider looking at girl's eyes when liking them, because so many people said so on FB ! "
p1964
ag10
aa(lp1965
S'@apesxessence AMEN me too! Just 2weeks of NOTHING!!! '
p1966
ag10
aa(lp1967
S"@smiley92 I'm back! What r u doing? "
p1968
ag10
aa(lp1969
S"@NikiScherzinger  u r the best! I do showjumping bsja! i've jmped for my country and I luv it so much! I'd give u a shot on my horse! Xxx"
p1970
ag10
aa(lp1971
S'...layout if we want to - which I do! That new one just bothers me. It makes everything harder to find and the pages look all weird. '
p1972
ag3
aa(lp1973
S'@Reglore was it awesome as they say? I gotta wait till stinken thursday '
p1974
ag3
aa(lp1975
S"Good Morning! Getting ready for the &quot;Question of the Day&quot; at 9am (PST) then I'm going back to sleep "
p1976
ag10
aa(lp1977
S'Too early...non mi piace '
p1978
ag3
aa(lp1979
S'@slytherinbunney I did TONS of research &amp; within the variables (some models not being available in DK yet, for instance) it was the best! '
p1980
ag10
aa(lp1981
S"Crap, Father's Day is this weekend isn't it? I haven't shopped for hubby or my dad yet. "
p1982
ag3
aa(lp1983
S'It was a great day diving, viz is getting better but sadly no Whale Sharks today '
p1984
ag3
aa(lp1985
S"@Domulka ohh, I see, that sucks!   I'm just so glad that theyr consert tonight its on TV! "
p1986
ag3
aa(lp1987
S'@msicomputer I see the MSI Wind U115 is on sale now. Any coupon codes? '
p1988
ag10
aa(lp1989
S'@mandeemorrison that sucks  feel better lovely'
p1990
ag3
aa(lp1991
S'@tenelilli I bought an extra sandwich just for you!  #watchchuck #chuckmemondays'
p1992
ag10
aa(lp1993
S"Checking out a bunch of new (to me) podcasts over the next few days because I'm bored and the gaps between the ones I like are too big "
p1994
ag3
aa(lp1995
S'my throat hurts. '
p1996
ag3
aa(lp1997
S'@unrealmusik Those videos shows what a horrible and dark world we live in and how little some people value other peoples lives. '
p1998
ag3
aa(lp1999
S"4:19 AM for me... i'm growing tired  #asot400"
p2000
ag3
aa(lp2001
S'@CamiEguiluz yeah i hope too '
p2002
ag10
aa.