(lp0
(lp1
S"@mrserven and @donnyerven are the best! I'm beyond grateful for them! "
p2
aS'positive'
p3
aa(lp4
S"@moose73 Ooooooooo 80's fashion &amp; hairstyles....so chic "
p5
ag3
aa(lp6
S'http://bit.ly/4i46RR  STRIKE is the best ever ever ever '
p7
ag3
aa(lp8
S'@tommcfly  aww tomm      guys dont be sad , i hate that they still love you xxxx and so do we, not your fault &lt;3333'
p9
aS'negative'
p10
aa(lp11
S"Is it just me or does john mayer tweet a LOT. Maybe he's very lonesome if he seems to talk to us strangers as much as his friends? Sad "
p12
ag10
aa(lp13
S'Really enjoyed the White Eagle show - thanks to Angie, Lisa, and (of course) Todd!  See you tomorrow night, 9 pm, at the Thirsty Lion!  '
p14
ag3
aa(lp15
S"@oyvind it's the same on my iPhone. perhaps it's fake AT&amp;T? :p note: roaming tends to get expensive :p Telenor sends sms at 1000nok / day "
p16
ag3
aa(lp17
S'@tangledhelix Dammit, stop interfering with my crotchety, pedantic streak. Also, I hate AIX. Fuck you, filesets! '
p18
ag3
aa(lp19
S'@Tsarnick You best know it! Life On The Murder Scene '
p20
ag3
aa(lp21
S'@fleckman sounds fair - and balanced  - Flecks...btw...I have really appreciated Sen Cornyn, R-TX comments about Sotomayor'
p22
ag3
aa(lp23
S"On my way home had fun at laurens grad party I'm so proud of my boo graduating college tyme to go lay w/ tha hubby werk in the a.m "
p24
ag10
aa(lp25
S'@aimeeleejones I have 14000... Good luck '
p26
ag3
aa(lp27
S'im not allowed to carry my cell in my pocket while am at work! sad sad day '
p28
ag10
aa(lp29
S'@musictoyourlips i am begining to think he just hates NYC.  But chicago was confirmed?'
p30
ag10
aa(lp31
S'@mwinterbottom replacement for the pit golf buggy '
p32
ag3
aa(lp33
S'@ElenaBerrino Dude... I puffy heart you. That just made our day '
p34
ag3
aa(lp35
S'Decided to get up and made very crispy bacon sarnie '
p36
ag3
aa(lp37
S'so ready to not have to deal with high school drama.. but going to miss my seniors... '
p38
ag10
aa(lp39
S'@patrickswayzed Funny! Have the movie unopened as a VHS tape- U R gonna make me buy a DVD &amp; CD- Great 4 Summer driving ! Great 4 Anytime! '
p40
ag3
aa(lp41
S'school email needs to be faster. '
p42
ag10
aa(lp43
S"Those &quot;go green!&quot; grocery bags should come with shoulder pads or something. Srsly. S' phone is livingroom, I'll get it soon.  Arms hurt. "
p44
ag10
aa(lp45
S'@barayas i love you too  &lt;3'
p46
ag10
aa(lp47
S'@explodedsoda because twitter is run by communists '
p48
ag10
aa(lp49
S'@emmy_563 youtube  LOL... hopefully...'
p50
ag3
aa(lp51
S'Trying to fix my nose ring  I dont want to take it out!! anyone how how to get rid of that horrible bump next to it??'
p52
ag10
aa(lp53
S'listening to my ipod waiting for my brothers to finish with the dentist. right now the song is heartless-kris allen '
p54
ag3
aa(lp55
S'@mileycyrus http://twitpic.com/6dvj4 - you are always amazing, and congratulations ! '
p56
ag3
aa(lp57
S"@lolankford oh no! I just left the trunk show...not gonna see you  it's still going til 3."
p58
ag10
aa(lp59
S"night total clear, pedro into a realit show ! cryin' like a baby right now. "
p60
ag10
aa(lp61
S"@suicidequeen Sorry Hun,I'm getting out at around 4-5. Hope you see this. "
p62
ag10
aa(lp63
S'Sigh y is foo foo tei always freaking packed. Gosta wait forever again. '
p64
ag10
aa(lp65
S'@SuperiorEgo  I will be having to recommend the anger managements for you, Mr. Ego. '
p66
ag3
aa(lp67
S'Hopefully, going to Bellwoods later on YEAA '
p68
ag3
aa(lp69
S'@markmancao Good Good. Enjoy your day buddy. Hope you do something fun. '
p70
ag3
aa(lp71
S'Bored, apathetic, probably other things.  http://ff.im/3AFk5'
p72
ag10
aa(lp73
S'Hanging out with vanessa '
p74
ag3
aa(lp75
S'yea. the lakers are good. so many ifs  oh well. NFL soon...'
p76
ag10
aa(lp77
S'@manicmai FOR NOW FOR NOW FOR NOW HOW AM I GOING TO HANDLE IT! HOW ARE YOU GOING TO HANDLE IT! AHHH OMGOSH. '
p78
ag10
aa(lp79
S'@joesabino 6 hours with it in the trailer behind me. '
p80
ag10
aa(lp81
S"It's so hot that what is left of my brain has dribbled out into my keyboard...eeerggghh "
p82
ag3
aa(lp83
S"Good morning. I'll have a Taco Mamacitas review up by tonight. I forgot #Lost was on last night "
p84
ag10
aa(lp85
S"@cassowaryjewel hehe, well, if he didn't know about it that's probably good. "
p86
ag3
aa(lp87
S"Okay, I've had wayyy too much fun the past couple days. Tomorrow I'll be hitting the books  Goodnight/morning."
p88
ag10
aa(lp89
S"hope all the teachers in my school feel better  haa I'm curently getting my hair fixed  bueno bye."
p90
ag3
aa(lp91
S"It's days like this that make me forget how much I miss Thailand  http://yfrog.com/6qluej"
p92
ag3
aa(lp93
S'I hate Biochem bad, real bad Michael Jackson '
p94
ag10
aa(lp95
S'@DJ_QUAKE awww '
p96
ag10
aa(lp97
S"I feel like I've been punched in the jaw  Hope the wisdom-less is all worth this!"
p98
ag10
aa(lp99
S'@Vannaboink I HAVE PROBLEMS WITH LJ HAHA. Its only me '
p100
ag10
aa(lp101
S'@mileycyrus Cheer up, love. Life is beautiful. '
p102
ag3
aa(lp103
S"@garyvee A huge MAZAL TOV!! \xe2\x9c\xbf I'm sure you'll teach her how to tweet in no time "
p104
ag3
aa(lp105
S'http://twitpic.com/55ewk - die spd beim red nose day '
p106
ag3
aa(lp107
S'@TurtleV Good Morning. Thought I was bumped into that &quot;everyone else&quot; '
p108
ag3
aa(lp109
S'Having Lunch with Sis!  Yum '
p110
ag3
aa(lp111
S'Got the new update for I tweet is so effin cute! '
p112
ag3
aa(lp113
S'@tommcfly '
p114
ag10
aa(lp115
S'@Cody_K As she should be! '
p116
ag3
aa(lp117
S'Hedge clippers? check. Phone out of fridge? check. Orange work vest? check. Good day? Lets hope  so '
p118
ag3
aa(lp119
S"@PercythePigeon  #knitters I will Percy! But I can't make a Percy until July 1st. I am not allowed to buy yarn until then "
p120
ag10
aa(lp121
S'I have a headache. '
p122
ag10
aa(lp123
S'I do not like working 24 hours in a 32 hour window. Feeling sleepy! Gotta love the Army  Good luck today @followtheblonde...'
p124
ag10
aa(lp125
S'Divine road-side-stall fruit, amazing fresh apples, mandarins, gripes, cashews and macadamias  next up fresh oysters yuummm!'
p126
ag3
aa(lp127
S'trying to take in a little sun before it goes to bed '
p128
ag3
aa(lp129
S'@kaiterz3000 haha thats exactly how i felt when i got back from arizona. it sucks '
p130
ag10
aa(lp131
S'@kayce_m thankyou soo much babes! means alot! '
p132
ag3
aa(lp133
S'have got buttery tiger roll crumbs all over my keyboard '
p134
ag10
aa(lp135
S'I am like so sleepy right now, gotta go to work '
p136
ag10
aa(lp137
S'yay my net is now back working. although think my laptop is dying now '
p138
ag10
aa(lp139
S"i feel pretty tonight. this is special for me. i'm not usually pretty in my head. thank-you. goodnight flatterers. "
p140
ag3
aa(lp141
S'5 Minutes until i get food! '
p142
ag3
aa(lp143
S'@maeneyak wow, that sounds crazy  pretty cool'
p144
ag3
aa(lp145
S'@EEpopz ahaha yeah. because you have to tweet everything that pops in your head. it makes twitter more fun '
p146
ag3
aa(lp147
S'@abartelski do they know how the fire started yet?? So sad '
p148
ag10
aa(lp149
S'@LaurenConrad man , i wish i was at that signing but i still have school '
p150
ag10
aa(lp151
S'@Ryankfm listened to you this morning on breakfast  makes my day!'
p152
ag3
aa(lp153
S' cant sleep because my dumb arms itch so bad. FML i cant wait to go to the doctors'
p154
ag10
aa(lp155
S'@ web-cast class.., tweeting ar0und.. '
p156
ag3
aa(lp157
S'@MrMattM Can you show him the Slangaz and book us some time at Hands of God Studios? '
p158
ag3
aa(lp159
S'@Hintonian Who are they gonna get to replace her? '
p160
ag10
aa(lp161
S'Still waiting for my anticipation to come back '
p162
ag10
aa(lp163
S'this is a useless tweet just so I can get to my 200th tweet. '
p164
ag3
aa(lp165
S"sitting watching the rain, things didn't turn out how i thought they would "
p166
ag10
aa(lp167
S'Omg This Day Is Going Soooo Slow Lol '
p168
ag3
aa(lp169
S'@HOTTVampChick what r u soooo excited about? '
p170
ag3
aa(lp171
S"@DanniPlastic book. They didn't have a new book when I went to Camden, NJ earlier this month. "
p172
ag10
aa(lp173
S'Rafa Nadal is out of french open  *sniff sniff*'
p174
ag10
aa(lp175
S'@pcmacsmackdown I wrote up how I created the transparent Dock in OSX right here: http://bit.ly/192HyZ  1337 sk!11z not needed '
p176
ag3
aa(lp177
S"Patriot's Day...Sox playing early game  Looking for a sweep."
p178
ag3
aa(lp179
S'Goodmorning! Enjoy your brand new day! '
p180
ag3
aa(lp181
S'Goodmorning from Amsterdam, Centerfold is back with there new single Take Me Make-up and Hair by me '
p182
ag3
aa(lp183
S"@k_sam @rhino75 @kefinparis Thanks, guys! It's nerve racking to speak French when they are recording you. "
p184
ag3
aa(lp185
S"Boo. I finally get a free moment to log into #freerealms and make my character and it's bouncing Apseth as a name. "
p186
ag10
aa(lp187
S"Can't decide between Fuzzball and Project Natal  http://fuzz-ball.com/twitter"
p188
ag3
aa(lp189
S'Awesome day: Great pizza, peace carrot cake, Tranformers and hanging out with my BEST Friends.  Downfall: puked all the food. '
p190
ag10
aa(lp191
S'@DonnieWahlberg  love you too D!!!'
p192
ag3
aa(lp193
S'isPlayer Has Died! Sorry '
p194
ag10
aa(lp195
S'i hope i can talk to my boo tonight '
p196
ag10
aa(lp197
S'i`m working '
p198
ag10
aa(lp199
S'Yuju! Tengo 100 Followers! '
p200
ag3
aa(lp201
S'Summertimeball today  &lt;3'
p202
ag3
aa.