(lp0
(lp1
S'Bout to watch alvin and the chipmunks and eat ruffles  http://myloc.me/400U'
p2
aS'positive'
p3
aa(lp4
S'Good morning twitterland!  Have a nice day everyone!'
p5
ag3
aa(lp6
S"@lameBIRDIE @xCraziiChiicax @Fuzzy2230 yo ppl!jst wanted to say bye  i will not be tweetin anymore til my exams r over.pray for me.bye :'("
p7
aS'negative'
p8
aa(lp9
S'@DublinIrishFest It is SUCH a bummer that Gaelic Storm is only playing Friday! I hope we get them back for all weekend next year. '
p10
ag3
aa(lp11
S"I'm going home and taking a nice warm relaxing bath. My back is killing me. From my shoulders to my tailbone. "
p12
ag8
aa(lp13
S'Iron man v superman. Really hoping the cavs can save themselves and win tonight. Down by 10 in the second '
p14
ag8
aa(lp15
S'@kn0thing, did you let the alien get run over by a tank? '
p16
ag8
aa(lp17
S'Just finnish an exam in first period was pretty intense but hopefully i passed it. God is the only one that will help me with my exams '
p18
ag3
aa(lp19
S'@shoelover79 Condolences '
p20
ag8
aa(lp21
S'@LyzzyBee oh!!! good luck for tomorrow then  x'
p22
ag3
aa(lp23
S"@mitchelmusso can't wait! "
p24
ag3
aa(lp25
S'@NeimaOmar yeah and all his vids '
p26
ag3
aa(lp27
S'ahh I love the vicar of dibley '
p28
ag3
aa(lp29
S'@Hatz94Music We got a guy in the chat now lol. '
p30
ag3
aa(lp31
S'@arianneross all good here thanks you? @Dojie whats tues? @Lt_Algonquin  wooo you live  lol.'
p32
ag3
aa(lp33
S'@hamsterwatch Great to see you on Twitter.  I love that show and always read your updates.  '
p34
ag3
aa(lp35
S'@HilaryPerkins sounds good...pappar WHAT???? '
p36
ag3
aa(lp37
S'it has come to my attention that i cannot marry @thatguynamedtom until after i finish grad school so i can get financial aid '
p38
ag3
aa(lp39
S"i'm on msn! and aim, so let's chat ^^ send me your screenames/msns "
p40
ag3
aa(lp41
S'Wish I had off today, not really in the working frame of mind. I do have off tomorrow though. All this closing sux '
p42
ag8
aa(lp43
S'@DiamondBlue wow!! babe sounds like a rough day!! '
p44
ag8
aa(lp45
S'been in work for 7.5 hours, only 13.5 to go!! '
p46
ag8
aa(lp47
S'Packing bags for Panipat '
p48
ag3
aa(lp49
S'Is it impossible for me to be ALWAYS with him for the rest of my life? '
p50
ag8
aa(lp51
S'I have a headache... '
p52
ag8
aa(lp53
S'listenin to eksi n herbsie tear up da mic on glorious summers day!!! shame i gotta work tho!! lol '
p54
ag3
aa(lp55
S'@AtM24  thanks babe! I used to be really self cautious about them'
p56
ag3
aa(lp57
S"off to the shops, back soon!  hopefully the sun will come back out while i'm walking "
p58
ag3
aa(lp59
S'i need a friend that is kind and loyal to me and somone that i can trust and tell anything to, i dont have one of thos friends '
p60
ag8
aa(lp61
S'@Descentia I can handle it! The lovable sidekicks never get stressed! '
p62
ag3
aa(lp63
S'hair  miss it'
p64
ag8
aa(lp65
S'Apologies to those who missed the first cut, it really was getting too hard to follow you all. '
p66
ag8
aa(lp67
S"@drunkenmonkey87 yeh it's pish! Just heading to work now and got got a bit soaked! "
p68
ag8
aa(lp69
S'@TMobile_Chris I just mean I had a few too many  owww... my head.'
p70
ag3
aa(lp71
S'just finished watching jon and kate and they are splitting up '
p72
ag8
aa(lp73
S'wants to chat with you  sexy girls because i like it ....'
p74
ag3
aa(lp75
S'Lazy mornings, crazy days and zapped out evenings... - Its so much better @ home '
p76
ag3
aa(lp77
S'@karmachord   Lets hope it gets better as the day goes on...'
p78
ag8
aa(lp79
S'@JonathanRKnight You are absolutely ADORABLE! '
p80
ag3
aa(lp81
S'my cat just killed my gold fish '
p82
ag8
aa(lp83
S'@xKevinx I almost lost my headband these people are rough '
p84
ag8
aa(lp85
S'Hola Twitter. It seems like a lovely day today. A lovely day which I wont be enjoying as I must do a boatload of homework today! '
p86
ag8
aa(lp87
S'I been up since yesterday morning,,,    i cnt sleep..'
p88
ag8
aa(lp89
S"@nerdsrocket that's my roommate's all-time favorite book "
p90
ag3
aa(lp91
S'no hoax... just the induction '
p92
ag8
aa(lp93
S'OMMM a month today until @maaaarit arrives  and a month tomorrow until @_SandBox and @Emmalii get here! EXCITED!!'
p94
ag3
aa(lp95
S"@amyjade_ i'm not allowed!  i'm gutted. i would dress up as the little boy and make someone else be the dad :L"
p96
ag8
aa(lp97
S"Saturday will be the worst Saturday I've had in ages "
p98
ag8
aa(lp99
S'ok so i admit!!! i have a crush on u!!!!!!!  lol'
p100
ag3
aa(lp101
S'hair, grow back! '
p102
ag8
aa(lp103
S"G'night everyone. Sleep well. I know I won't. "
p104
ag8
aa(lp105
S'pissed why the fuck do i do horrible when im w/ ppl '
p106
ag8
aa(lp107
S"@HeartSong01 Me too. I'm stuck here for another two hours. "
p108
ag8
aa(lp109
S'@humorzo Ah, bummer. Guess my corrupting influence is unavoidably spreading through the twitterverse. I can live with that '
p110
ag3
aa(lp111
S'@4everBrandy youre so beautiful by the way, i love your new profile pic!!!!! God i wish i can be amazing like you!!!! '
p112
ag3
aa(lp113
S'Finally, one of the projects is just DONE! Ace ace ace! yeyyy - but i still have two other ones. '
p114
ag8
aa(lp115
S'@yaymelissa i totally wanted to go watch the hangover today with you '
p116
ag8
aa(lp117
S"Grr. Hearing how great Pixar's Up is, but it doesn't open in UK until September. What happened to worldwide simultaneous releases dammit? "
p118
ag8
aa(lp119
S'@Tehlem0n not my fault  I was watching first and he had the nerve to come and shout at me that FOOOOOL. '
p120
ag8
aa(lp121
S"@JonathanRKnight nope, they don't sell babies....I want one too...the only issue is finding someone who is man enough "
p122
ag8
aa(lp123
S'lips r dry from playing mi clarinet.. grr cant fine any chapstick '
p124
ag8
aa(lp125
S"@fatalinjection It is here: http://bit.ly/ERuTf He hasn't updated in a long while though "
p126
ag8
aa(lp127
S'just hit the gym, now home for a cupcake and a coffee and getting ready for michis birthday tonight '
p128
ag3
aa(lp129
S"@corpsygirl indeed it is not  plus why bout my trip from Galway back to Dublin? I'll die without my music.. Gotta buy some tomorro..."
p130
ag8
aa(lp131
S'@chiaraaaa awwww it was a good fish  thats sad. do u know how it died? rip taylor scala'
p132
ag8
aa(lp133
S'@gracewlee haha...i thought you meant 4.5 mile range from campus!  '
p134
ag3
aa(lp135
S'Getting my hair done. Everybody says I have A LOT of hair!!!! They were all gushing about it!! '
p136
ag3
aa(lp137
S'@Markhoppus  dude... its worse with a seven year old and a five yr old who think jack in the ass toys rule the damned world! '
p138
ag8
aa(lp139
S"On the train to work. Only a 3 hour shift and I'm in the mood for work "
p140
ag8
aa(lp141
S"@lemondrop60 oh man that is a hard life... So summer school isn't looking to good... richland never e-mailed me back... "
p142
ag8
aa(lp143
S'@pamfidler been a great monday! Sunshine...and only 2 rooms left for today..have all laundry done but 2 loads, and put new curtains up! '
p144
ag3
aa(lp145
S"Vacuum zip lock bags must be the next best thing after sliced bread. Packing for 3 hours and it's been insane. 3am already "
p146
ag8
aa(lp147
S'@Serenaf66 @StephenGradwick  Thank you for the #charitytuesday shout '
p148
ag3
aa(lp149
S'@shashamarissa i woke up today with a craving for spaghetti bolognese '
p150
ag8
aa(lp151
S'http://twitpic.com/6qgk2 - Patsy the beast! '
p152
ag3
aa(lp153
S'Watching Kung Fu Panda on a Sunday morning... kind of enjoying myself '
p154
ag3
aa(lp155
S'Cant wait until I can download the hills finale!!!!! omg still cant believe Lauren is leaving '
p156
ag8
aa(lp157
S'Back to work after 5 days of small holidays. It will be to hot in next days... And the wind so typical of this time of the year has come '
p158
ag8
aa(lp159
S'@AlexisKnowles oh haha  dude my sims just died in a fire xD'
p160
ag3
aa(lp161
S"So glad it's Friday!! Now to relax and do nothing....yeah right "
p162
ag3
aa(lp163
S'@RickVanMan  thanks rick, your right this is addicting  ok now im gana force my self to go to sleep. after one more twitter XD'
p164
ag3
aa(lp165
S'@StreetRodRider lol your #robotpickuplines are hilarious '
p166
ag3
aa(lp167
S'Welcome @overheardatmoo - newest @designerstalk sponsors '
p168
ag3
aa(lp169
S"There are some ants in my pants, I'm being totally serious too. "
p170
ag8
aa(lp171
S"@paguilar you lucky dog, i will be spending my night with #ems8076 and that's almost as cool as those salt shakers "
p172
ag3
aa(lp173
S"@jnabongo lol, i don't do belle isle when it's nice out. ninjas don't know how 2 act! have fun  but @gabifresh let's go out later 2 nite!"
p174
ag3
aa(lp175
S'I really wanted a thunderstorm tonight '
p176
ag8
aa(lp177
S"I'm sad I sent some feedback to Taco Bell and they never got back to me. "
p178
ag8
aa(lp179
S'@sharonlynee stop rubbing it in  when u gonna upgrade, so I can get urs? Somebody clowned me 4 having a pc a few weeks ago. Hurts my soul'
p180
ag8
aa(lp181
S'All my friends and family is hanging out in the old quebec, but i am not '
p182
ag8
aa(lp183
S'is stay at campus tonight  , anyway add my MY SPACE --&gt; http://www.myspace.com/noviant thxxxx'
p184
ag8
aa(lp185
S'@AllieMunchkin D: oh noes  he is going to hurted me.'
p186
ag8
aa(lp187
S'is sick today '
p188
ag8
aa(lp189
S'@beckie0 hey there, im watching your blogtv show  please can you sing wicked?  '
p190
ag3
aa(lp191
S'Heading to union square for some lunch and sunshine on my day off '
p192
ag3
aa(lp193
S'@b50 am not. Conference room is occupied '
p194
ag8
aa(lp195
S'@marginatasnaily kat ! iv poped on to check how we are doin in ms twitter world.we are doing GOOD!!  xxx'
p196
ag3
aa(lp197
S"anyways...... I think I'll go to bed now gotta work early like always  NIGHT!"
p198
ag8
aa(lp199
S"OMG, what a horrid night... I doubt I've slept more than 1 continuous hour.  I really need to get over this Flu.  Everything hurts!  "
p200
ag8
aa(lp201
S'Thinking of what to write in here '
p202
ag3
aa(lp203
S"Use 2 king waking me up round 8-830 2 use da bathroom, looked on da floor and he wasn't der "
p204
ag8
aa(lp205
S'@panache we should get together and swap tupperware sometime. '
p206
ag3
aa(lp207
S'fighting with my dumb ass best friends  it hurts really bad'
p208
ag8
aa(lp209
S'is done with high school and is at home relaxing now '
p210
ag3
aa(lp211
S"@TheRealFloydL Now that's real honesty!!!  "
p212
ag3
aa(lp213
S"@a_snow:  aw i really hope you can go. I'm very excited. But you might not be able to go and emily probably can't go. This is making m ..."
p214
ag8
aa(lp215
S'@AndiFashion its hard to after work '
p216
ag8
aa(lp217
S'Breaks and lunches suck here.  I miss my old Subway and break room '
p218
ag8
aa(lp219
S'@GordonHughes we saw a wee waterspout last year in the Baltic but I would like the thrill of seeing a Tornado. Safely '
p220
ag3
aa(lp221
S'watching the hills  sad its ending.. tired.. so much homework for tomorrow.. then my tan  gotta get ready.. lol'
p222
ag3
aa(lp223
S"@RemiDanaeJ HEY YOU LOL. I can't beleive I joined this, I have no followers, i'm such a loser  hahah"
p224
ag8
aa(lp225
S"Geez. @xZullyZombiex's bed was dirty. Had to clean it myself. // Guess I'm singing by myself tonight. "
p226
ag8
aa(lp227
S"@jackmcdade Cufon uses html canvas, which can't be inside a button or input "
p228
ag8
aa(lp229
S"I've not slept yet but I thought I'd write that as Police Shift 8a-8p starts soon, bad times Georgie! "
p230
ag3
aa(lp231
S'i just realized there were so many unread twits especially from @aaddiiss and @ichaan. bytw @aaddiiss spoiler kid nih! gw kan blum nonton '
p232
ag8
aa(lp233
S'history homework !  x'
p234
ag8
aa(lp235
S'Not seeing the potential of all this FREE traffic? You might need to check your own pulse!   http://tinyurl.com/qqw2yd'
p236
ag3
aa(lp237
S"@droach75 - They don't have the Indian one on iPlayer "
p238
ag8
aa(lp239
S'I  missss you Chriss, rip baby '
p240
ag8
aa(lp241
S'@caspes Are we still hanging out Saturday night?  xoxo'
p242
ag3
aa(lp243
S'@sunilshenoy Get 100 followers a day using www.tweeterfollow.com Once you add everyone you are on the train or pay vip '
p244
ag3
aa(lp245
S'@AdeleMcAlear ;) btw i have the monsters with me. in fact they been to Oz and NZ too! yet I forgot to take photos of them out and about! '
p246
ag3
aa(lp247
S'srry bby sister....  i found my batman game in my purse '
p248
ag8
aa(lp249
S"hulu desktop is going to be my reason for procrastination from now on.. they shouldn't have made it! "
p250
ag3
aa(lp251
S"Just set one of my Perito Moreno pics as a desktop.  It's a nice reminder of what I've been up to for the last 4 or 5 months "
p252
ag3
aa(lp253
S'@MISFITxxx im jealous. I wish I could go. '
p254
ag8
aa(lp255
S'Make-up... Check! Morning News meeting... Check! HUGE day with massive amounts of really cool stuff........................ CHECK! '
p256
ag3
aa(lp257
S"@exhilarating take care. should be cheerful coz you're the lucky one. "
p258
ag3
aa(lp259
S'@zoeface shes all i want, and ive waited so long! '
p260
ag3
aa(lp261
S'@marvinsanchez http://twitpic.com/6705z - SUCH a loser, but yes....good job mofo. '
p262
ag3
aa(lp263
S'@bubblecat Lucky! i totally want M&amp;S barbecue wings '
p264
ag8
aa(lp265
S'@nikdannysangels i know.  i thought about that after you left.'
p266
ag8
aa(lp267
S'Home  shit. Bad flight, too much Jack. Bad head. Oh dear'
p268
ag8
aa(lp269
S'@MariamUAE awesomeness '
p270
ag3
aa(lp271
S"@rtzmb Where you be?! I ran around everywhere in Steuben and couldn't find you. "
p272
ag8
aa(lp273
S'@MakeupByRere I work for them '
p274
ag3
aa(lp275
S'@mina_roxx im not on the computer right now '
p276
ag8
aa(lp277
S"Didn't wake up happy  I have a frown on my face. Ughhhh not excited for class."
p278
ag8
aa(lp279
S'@OhowFUN Be sure to send the post to me, Eric. '
p280
ag3
aa(lp281
S'@kirstenin sitting in the sun with an ice cold southern comfort and lemonade reading my book '
p282
ag3
aa(lp283
S'I love the guy who asked Almine to post the most recent current pod meditations As they come. Oh that was me!    http://tinyurl.com/qp3b6h'
p284
ag3
aa(lp285
S"Just landed in NYC. Finally!!! Andrew is sleeping. So won't see him tonight. "
p286
ag8
aa(lp287
S'Hey, @lostzombies--check out what @mindykaling just posted. '
p288
ag3
aa(lp289
S'@TereneJ LOL seriously! '
p290
ag8
aa(lp291
S'WEEKEND!! so many things to do, not many time '
p292
ag8
aa(lp293
S"Giving my 2000-2008 Playlist a whirl, on right now is Jessica Simpson's &quot;I Think I'm In Love With You&quot;. I miss 2000. "
p294
ag8
aa(lp295
S'fire alarm gone off  I need to get closer to the kitchen  and cook properly'
p296
ag8
aa(lp297
S"@kittylair lol! Awesome! I won't be there until tomorrow at the earliest. Saturday at the latest.  Boo working!"
p298
ag8
aa(lp299
S'the hippie van disappeared from that car place on monroe street!  oh so disappointing.'
p300
ag8
aa(lp301
S'Happy Sunday Evening to all my friends and followers!! I have been so busy but feeling much better! Will be around all week!! '
p302
ag3
aa(lp303
S"@jacqueline47 it's wonderful on the grill "
p304
ag3
aa(lp305
S'@BrittanieMarie lmao look @ u haha morning babe, think ill listen 2. &quot;soooo dammmnn goooood&quot; Yum @ @SongzYuuup  ... Yuuuuuuuup! lol'
p306
ag3
aa(lp307
S"I don't want saturday to come "
p308
ag8
aa(lp309
S'@elizabethduffy That part is so depressing.  And later on too. But it will get really good at the end, I promise!'
p310
ag8
aa(lp311
S'@hipsterrunoff u will never lose me '
p312
ag8
aa(lp313
S'we can get a temporary tattoo. I would be totally sad if he died. '
p314
ag8
aa(lp315
S"aahh .. where have sunny days gone  ? It doesn't look like summer out there at all!! :p"
p316
ag8
aa(lp317
S'The Wolfeboro Area Chamber of Commerce now has a twitter! '
p318
ag3
aa(lp319
S"I really hate Monday's "
p320
ag8
aa(lp321
S"It's now thundering "
p322
ag8
aa(lp323
S'Hey guys. Just had a well long bath lol. Is anyone elses MSN playing up? '
p324
ag8
aa(lp325
S"@SheNICE2 wow. i'm adopting that 'scope as well  oh so true..."
p326
ag3
aa(lp327
S'www.m.tweete.com requires frame:  twitter not opening on phone!!!'
p328
ag8
aa(lp329
S'@WTFitsroz I am lost. Please help me find a good home. '
p330
ag8
aa(lp331
S"@phildev Hey mista! I was there. But I didn't go upstairs.  Wish I knew you were there. Would have had a drink with ya! "
p332
ag8
aa(lp333
S'@acrylicana did you decline my friend invite on facebook? '
p334
ag8
aa(lp335
S'@Executivefocus in the order you posted. Thats a lot a drive time '
p336
ag3
aa(lp337
S"@mrelihan I keep promising myself that I'll learn a new language would never seem to get round to it "
p338
ag8
aa(lp339
S'@froggie775 nope... everyone was just waiting for you to get back.... ALL CAN RESUME TWITTERING NOW! '
p340
ag3
aa(lp341
S'@grimmers good luck grimmy!!!!!  you will be really good  have a giggle. xx'
p342
ag3
aa(lp343
S'@LaurenConrad but yay for being productive! Excited for your books '
p344
ag3
aa(lp345
S'@Claudz01 what happened to our conference???! haha '
p346
ag3
aa(lp347
S'feel like something is missin '
p348
ag8
aa(lp349
S'good afternoon guys '
p350
ag3
aa(lp351
S'Am so tired I am shaking '
p352
ag8
aa(lp353
S'Need to send emails to 100,000  contacts? Check out EmailUnlimited on http://www.4officeautomation.com '
p354
ag3
aa(lp355
S'@ericMesquivel Jeez man, best of luck out there...   ...although the Punisher/Man-Thing shout out was funny.....'
p356
ag8
aa(lp357
S'finished with one version of SRS '
p358
ag3
aa(lp359
S'survived Musikkfest. horrible sound, nice people  now to record!'
p360
ag3
aa(lp361
S'@naytv Have just come out of the sun &amp; it does help!  Have to face nearly 3hrs of biology exams 2moro!! God help me!'
p362
ag3
aa(lp363
S"today's agenda... - \xe2\x99\xa6 food in town \xe2\x99\xa6 1.15pm concert at Uni \xe2\x99\xa6 Greenhead park w/mates &amp; football  \xe2\x99\xa6 drinks in... http://tumblr.com/xgh1x6kss"
p364
ag3
aa(lp365
S'fabulos that its my simple recuest  hahahhahah the better and the best'
p366
ag3
aa(lp367
S"@Eriiiiiiiiiin  yep  I came running home from my after school IT lesson, and mum got us row B!!!!  it's only a week away now!!!  .."
p368
ag3
aa(lp369
S'@PhillyGirl528 Awww thanks sweetie '
p370
ag3
aa(lp371
S'I have no friends '
p372
ag8
aa(lp373
S"i haven't seen the flicker of light again... "
p374
ag8
aa(lp375
S'hey hey baby its never too late! '
p376
ag3
aa(lp377
S'@MakeUpByTierra  ok... we are going to get it in this week...  plus &amp; need to start shooting for my project...'
p378
ag8
aa(lp379
S'@AmericanWomannn hey how the heck are you? '
p380
ag3
aa(lp381
S'Have you seen this yet? http://tinyurl.com/chgpxx - AMAZING! '
p382
ag3
aa(lp383
S'@Krucial nothing just joined up '
p384
ag3
aa(lp385
S"@cdlowell Not cool of them. Sorry, guys. Can't say as it's unexpected in my experience with AA, but that doesn't make it any better. "
p386
ag8
aa(lp387
S'@tweetheart7 Yes, you should have a look '
p388
ag3
aa(lp389
S'@ssowy Depends on my mood.  Lucky charms.  Chocnut..  Fudgy brownies. '
p390
ag3
aa(lp391
S"I'm tired...&amp; i think i'm getting sick "
p392
ag8
aa(lp393
S'@rikkaxrikka ohhs icic. chat or something? hehes.  im bored too!!'
p394
ag3
aa(lp395
S"@Jdkent I'm going in just before lunch "
p396
ag3
aa(lp397
S'@aphalloides ahhh...  the interesting things i miss out on!    So sweet of you to think of me, darling.   LOL!!'
p398
ag3
aa(lp399
S'@YoungQ I am '
p400
ag3
aa(lp401
S"I'm so excited for my visitor tomorrow!!!  @SallyLovern"
p402
ag3
aa(lp403
S'@cweeezy keep begging! &amp;you should watch it '
p404
ag3
aa(lp405
S'i have a cold that its driving me nuts i couldnt sleep at all last night '
p406
ag8
aa(lp407
S'Got a truck with tire issues on Monteagle I-24  not a good place for tire trouble'
p408
ag8
aa(lp409
S'@ausi1 Cool, I see you made further improvements to header and navigation list. Hope you do well '
p410
ag3
aa(lp411
S'depressed. seriously have NO MONEY, so theres a 99% chance me + @JennyyLouisee are NOT GOING TO SEE MILEY IN DECEMBER. '
p412
ag8
aa(lp413
S'I miss my puppy  http://mypict.me/2VpB'
p414
ag8
aa(lp415
S'i cant believe how much i have to study '
p416
ag8
aa(lp417
S'erggg...   waiting forages to my sony vagas pro 9 video to save to wmv its takeing agesss  '
p418
ag8
aa(lp419
S'@ianweiqiang Interesting Combination  Have a great one ;)'
p420
ag3
aa(lp421
S"somebody buy 'The Bottom Billion' by Paul Collier for me! Its worth 28$!  "
p422
ag8
aa(lp423
S"@Sarah_Lady Susan something, iirc... Have to say I feel the same about the cars... Just don't get it. Or any sport for that matter! "
p424
ag3
aa(lp425
S'what happened to the nice weather yesterday x I woke up this morning to find it all dull and wet '
p426
ag8
aa(lp427
S'@OliviaLeonita Love you to  xoxo'
p428
ag3
aa(lp429
S'[Creedence Clearwater Revival \xef\xbf\xbd Fortunate Son] Hello @adbert, doing well. Thank you for asking. And you?  ? http://blip.fm/~4ju9z'
p430
ag3
aa(lp431
S'I hate living in Melbourne! I want to go back to the mountains with Bridge '
p432
ag8
aa(lp433
S"@BillHarper There's still the toes on your left foot, Bill  You limping yet?"
p434
ag3
aa(lp435
S"@gemeg If only I was going, I'd like to help you with that "
p436
ag3
aa(lp437
S'@tommcfly Hello Tom '
p438
ag3
aa(lp439
S"@BravoBride The link didn't display, could you repost with correct link??????   "
p440
ag3
aa(lp441
S"finally over 100 tweets and i'm just gonna keep on goin "
p442
ag3
aa(lp443
S'Trying to figure out how to do my History thing. '
p444
ag8
aa(lp445
S'@ramblelite  You are true to yourself, you deserve it.   '
p446
ag3
aa(lp447
S"@byronicman Glad to hear someone isn't bored out of their mind. I'm still waiting for Daddy Peter to hold a skin mag up to camera "
p448
ag8
aa(lp449
S'awww @garyvee Congrats Daddy. '
p450
ag3
aa(lp451
S"i like it how i am now broke after splurging on my mother, and can't even afford to get my hair done  oh how being selfless is hard"
p452
ag8
aa(lp453
S'Forgot my tablet this morning, had to be omeprazole from Boots. 8 quid! For 14 tablets! And it takes 3 of them to sort me out '
p454
ag8
aa(lp455
S'@whyinthehell just where the fuck have you been?? '
p456
ag8
aa(lp457
S'Just saw a face that made me '
p458
ag3
aa(lp459
S'@innajunglestyle  a sad time indeed. They will be  selling cocktails next '
p460
ag8
aa(lp461
S"@noobde alright, now you're just playing with my emotions "
p462
ag8
aa(lp463
S'@IAMTROPHY Oh  wish it was me! i wanna cuddle with you :-D, im home also. saving money, im sure im not missing anything at 11 @ night'
p464
ag8
aa(lp465
S"@RoseLoader I'm an IT Consultant / Contractor...just looking for a new job right now, previous contract cut short due to credit crunch "
p466
ag8
aa(lp467
S"going to work on a quick revision of someone's design. It is a guitar and sun. Everything seems to be guitar themed here this week. "
p468
ag3
aa(lp469
S"Wonder why we can't graduate today? "
p470
ag3
aa(lp471
S'@livedesk I feel very safe! Only because I will NEVER fly!!! '
p472
ag3
aa(lp473
S'why is nick jonas so cute?  why. why. why. MACY!! MACY JUST CAME!!! KEV/MACY!!!'
p474
ag8
aa(lp475
S'@stevenmarkorton you loser! no im in the wine vaults twittering you, im the loser '
p476
ag8
aa(lp477
S'home &amp; ready to relax '
p478
ag3
aa(lp479
S'Dropped the Derhawk Noble off at the airport  now headed to LA working the Hori Smoku movie screening for Sailor Jerry, anyone going?'
p480
ag8
aa(lp481
S'81. - todayilived:  http://tumblr.com/xuw1wb0uv'
p482
ag3
aa(lp483
S"http://is.gd/16BB8 Does this mean I can't eat cookie dough anymore? Tollhouse is always better than Pillsbury "
p484
ag8
aa(lp485
S'I may have a girl friend soon! hehe!  '
p486
ag3
aa(lp487
S"@marianbriscoe ha thats cool yea it's for jyske bank in FL Dads been pretty smart the last few years  but I may be biased ;)"
p488
ag3
aa(lp489
S'Having a long island ice tea '
p490
ag3
aa(lp491
S"@MissKsyn being lazy. I wouldn't been home if I actually walked to 14th. "
p492
ag8
aa(lp493
S'ahhhh. back to school tommorow!!! i dont wanna gooooo. '
p494
ag8
aa(lp495
S'@RosieGaga @peyton_scott @nicoleeeeeloves @kjlambert PLEASEEEE someone call me during Before the Storm.  I BEGGGG you? '
p496
ag8
aa(lp497
S'Three hours sleep, not even close to enough '
p498
ag8
aa(lp499
S'Wtf i need to go home n get dress for this party argghhh i still have to go buy an outfit not enough time in this day '
p500
ag8
aa(lp501
S'@annabadtzmaru o boy o boyy!!!  please tell me ur joking about failing them?'
p502
ag8
aa(lp503
S'exercising and then getting last minute homework done, i hate sundays '
p504
ag8
aa(lp505
S'@MichaelDeM caroline was excited for those fireworks haha hope you guys had funnnn '
p506
ag3
aa(lp507
S"@htlovesyou You are not alone in this. And yes, I am one of those people that wants to know exactly what you're up to at all times. "
p508
ag3
aa(lp509
S'trying to channel my creativity '
p510
ag3
aa(lp511
S'@Miki_is_Rad ive heard its not that great ay! hm i mite not see it then...OMG cant wait for TRANSFORMERS 2 to come out  haha xx'
p512
ag3
aa(lp513
S'@woophollie  yeah ik my friend has the time table too  on it it said soundchecks at 4? :O'
p514
ag3
aa(lp515
S"Back to NWA later. Still too lazy but I've got no choice.  I srsly need to get a new phone. SRSLY!"
p516
ag3
aa(lp517
S'@lindsayroulette That is hilarious, I love Conan. '
p518
ag3
aa(lp519
S'@TheChristinaKim Good Morning CK! Wow your in charlotte  thats where I lived for the past 5 years  went to UNCC '
p520
ag3
aa(lp521
S'having a healthy day today ooh banana how exciting! '
p522
ag8
aa(lp523
S'Home! With my dinner, ready for the Hills finale! '
p524
ag3
aa(lp525
S'*sigh* nothing like watching the spanish channel on a wednesday afternoon with my peeps.. '
p526
ag3
aa(lp527
S'@tracecyrus http://twitpic.com/6qep5 - I like it.  looking goodddd.'
p528
ag3
aa(lp529
S"@jessiiswhoiam  alabama wouldn't suck if you were hereeee!"
p530
ag8
aa(lp531
S'OMG I just a got a special Invite to the IMATS in LA.....Thanks Cori!!!  Whos coming???? Let me know pls...'
p532
ag3
aa(lp533
S'aw im hatting this rib shit yo  dont think sleeping on the floor helps well,not, the floor but level to it'
p534
ag8
aa(lp535
S'BOOOOOOOOORRRED!! i want to go shopping  everyone is bloody sick!'
p536
ag8
aa(lp537
S'http://twitpic.com/69239 - Check out my awsome pyjamas!!!  Walmart! Hell to the yes!'
p538
ag3
aa(lp539
S"happy mother's day to your moms "
p540
ag3
aa(lp541
S'@thecalvenigroup outstanding! happy editing. '
p542
ag3
aa(lp543
S'Back is itchy, cant scratch it '
p544
ag8
aa(lp545
S"I'm can't sleep. &amp; bored wit noOne to talk to on Twitter  @RealRalphyG"
p546
ag8
aa(lp547
S'Rice  3 Musketeers. Sky Flakes. Water. Chicken.'
p548
ag8
aa(lp549
S'Glad Susan Boyle lost, she was rather arrogant. Arms are still glowing after a heavy dose of moisturiser '
p550
ag8
aa(lp551
S"@crazyelectron I hear ya! Yea it's pretty good. Cool to see the &quot;background&quot; of where her novels come from. "
p552
ag3
aa(lp553
S"@_meeks_ Omg don't scare me like that "
p554
ag8
aa(lp555
S'@http://twitter.com/mr_short_time Hope your trip home was ok m8 and yes you r right, dont want to go down that rd again.love &amp; leave best '
p556
ag3
aa(lp557
S"@valsartdiary http://twitpic.com/65l40 - OMG so happy for you  Let's punch the bear..."
p558
ag3
aa(lp559
S'My hair looks horrible, i look like a man '
p560
ag8
aa(lp561
S'Maths revision he cant teach   x'
p562
ag8
aa(lp563
S"@PinkBerryGirl Yeah not really ;). J/k we've been killing and converting peeps for #zombie crew "
p564
ag3
aa(lp565
S'@yankeetrini Uh huh...did i tell you when chris and I went to see the hangover the power went out so we got movie passes '
p566
ag8
aa(lp567
S'hy im here too  how did you sleep? XD'
p568
ag3
aa(lp569
S'Just listening to the sound of nothing .... Its nice. Wish I felt better '
p570
ag8
aa(lp571
S"@andreamylla it's actualy an old car but still very very nice "
p572
ag3
aa(lp573
S'Chevy is at the vet  poor lil girl xx http://apps.facebook.com/dogbook/profile/view/5914914'
p574
ag8
aa(lp575
S"@xBBx Thank God it's not only me that realised that, imagine what a few more months of tweaking will do to it "
p576
ag3
aa(lp577
S'@jabberwik Exactly.  Great quote.  '
p578
ag3
aa(lp579
S'Gotdamned pain pills did it again. 4 hours wasted. :-/ I wanted to go to Luckie tonight '
p580
ag8
aa(lp581
S"Bonjour, j'mappelle Amy...erm oh fuck! What's the rest? I hate French oral exams "
p582
ag8
aa(lp583
S'Waking up with the sun, crisp air, drinking iced coffee &amp; eating a delicious muffin: quel beau matin '
p584
ag3
aa(lp585
S'@KhaledT lol no idea what the diff is between reply and message hahahaha gahhh so bored at habibi '
p586
ag8
aa(lp587
S'@laurenhillary missed seeing you and @sarafrance @ Yard House the other night after the 1st OC SMUG.  [be]ecker scare you off? '
p588
ag3
aa(lp589
S"Just woke up. Gonna have a shower and go to Nan's for Mother's day lunch. Happy Mother's day "
p590
ag3
aa(lp591
S'@jamieworley Thanks, its also my blog name '
p592
ag3
aa(lp593
S'Dining and watching the soap opera '
p594
ag3
aa(lp595
S"@alexvissia   Yes. But even free verse has structure, our minds cannot function effectively with 'total freedom'. Philip Hobsbaum......."
p596
ag3
aa(lp597
S'just hit page 20 of his story '
p598
ag3
aa(lp599
S'@StreetKingEnt U WERE MY 5TH FOLLOWER '
p600
ag3
aa(lp601
S'@aliciarousseau http://twitpic.com/7oohm - OMGGGGGGGGG I MISS THE FRENCH TOAST CRUNCH SO MUUCH   I HATE CHILE BECAUSE WE DONT HAVE TH ...'
p602
ag8
aa(lp603
S'Just woke up and still excited for the stuff we saw in #XboxE3, now the unfortunate waiting game '
p604
ag8
aa(lp605
S'Will be working my A$$ off shortly. Big drug sting going down this morning in town....WOOHOO!!! Hookin up the &quot;BAD GUYS&quot;..gotta luv it!! '
p606
ag3
aa(lp607
S'Playing the cello!!! LOVE IT!!...SORE ARM '
p608
ag8
aa(lp609
S"Wondering if I have enough time to play a little P vs Z (I'm hep now) before our next interview...probably not! "
p610
ag8
aa(lp611
S'ah shields is scorchin yet again got i love livin near the beach  hhuumm what tunes should i dominate today im thinkin AC/DC and metallica'
p612
ag3
aa(lp613
S"* my tweeters! It's been such a long day. But I'm blessed to get through it  closing my eyes and getting ready for tmr *"
p614
ag3
aa(lp615
S'iphone o.s 3.0 will be launched 17th June. iphone 3GS will be unveiled on 19th June. Jailbreak for 3.0 will be available on 16th June '
p616
ag3
aa(lp617
S'Mourning the loss of my favourite umbrella this week, only to loose my nice replacement at the bier cafe. Robbery victims are real! '
p618
ag8
aa(lp619
S'@JessicaKnows Thanks, will look in to it. '
p620
ag3
aa(lp621
S'???? ??????? ?????? ?? ??... ?????????, ??? ?????? ????????? ? ????????????? ORM? '
p622
ag3
aa(lp623
S'@kensethchik_17 just tried talkin my parents into gettin me tickets for bristol. They said no.  my parents hate Nascar'
p624
ag8
aa(lp625
S"BAD HEADACHE! My head is about to pop out! I'm gonna off to bed, goodnight everyone  http://myloc.me/2b9t"
p626
ag3
aa(lp627
S'Drinking with cousins and baby bro at bjs '
p628
ag3
aa(lp629
S'shares http://tinyurl.com/lzvnk3 (RP fr Preggy Mommy &amp; Iris: New Moon 15-sec trailer  Enjoy!) http://plurk.com/p/xbtrs'
p630
ag3
aa(lp631
S"Did anybody know that the show recess is still on tv!? That's crazy. Damn, I'm so scared that i can't sleep. Been trying to, but I can't "
p632
ag8
aa(lp633
S"@Asher_Book You're welcome. You're the best dancer, actor, &amp; singer i've ever seen  What's ur favorite album's song ?"
p634
ag3
aa(lp635
S"projects handed in and now I have to evaluate the 2nd years microprojects... if only they'd written less pages "
p636
ag8
aa(lp637
S"is having a great time with Simon, Christina &amp; Mikkel BBQ'ing "
p638
ag3
aa(lp639
S'julio cavalgante got to semifinals in Baia Formosa  championship (nordestino), pitty  won another local very good alain jones cocotas son'
p640
ag8
aa(lp641
S'Morning all. very wet here '
p642
ag8
aa(lp643
S'had a nice nap but still feel like crap. stress level high so may have to kiss going out tonight goodbye...! '
p644
ag8
aa(lp645
S"So exhausted, bed. NYC for the day trm. If you live there hit me up amd we'll meet up "
p646
ag3
aa(lp647
S'@HotMamaGowns  Happy first birthday to your little boy! My daughter celebrated hers on Wed '
p648
ag3
aa(lp649
S'FINALS tomorrow. '
p650
ag8
aa(lp651
S'@blondetwit YES! I can smell the freshly baked chocolate chip cookies. I was gonna ask if u had milk. Enjoy some for me too!  YUMMY!'
p652
ag3
aa(lp653
S"@DavidCousens I didn't get to go...had to work as they wouldn't give me the time off.  Apparently I didn't miss much though!"
p654
ag8
aa(lp655
S'There are a lot of new ideas I want to write down, now.  *excited.'
p656
ag3
aa(lp657
S'&quot;britannia nutri-choice 5 grain&quot; is the most amazing biscuit  i have ever had.. thank you Britannia '
p658
ag3
aa(lp659
S'Underweight &amp; malnourished. Might as well have an eating disorder '
p660
ag8
aa(lp661
S'Goodbye sally spa!!!  I will truly truly miss you! '
p662
ag8
aa(lp663
S'@jeremyroloff Hope your day is good today.  Not filled with difficulties...and ants. Hahaha'
p664
ag3
aa(lp665
S"UGH WHY IS THERE AN AD FOR WHATABURGER ON THE MLB GAMEDAY PAGE. DO WANT.  idk why it's on there they don't exist in ohio or illinois."
p666
ag8
aa(lp667
S'@Seth_MacFarlane Thank you once again for putting Surfing Bird in my head. Explosion is imminent. '
p668
ag3
aa(lp669
S"@sinjax I left my phone charger at home, phone's dead. If you need me twitter is best I guess. I hit my head whilst tidying, hurts again "
p670
ag8
aa(lp671
S'i liked the fray   makes me sad you did not like them  *tear*'
p672
ag8
aa(lp673
S"@JonathanRKnight you &amp; chicken soup &amp; I'll be good!    "
p674
ag3
aa(lp675
S"Pisssed already today!!! Why do i care? I'm used to it! "
p676
ag8
aa(lp677
S'@13riots so upset i wanst there  u better play in middlesbrough soon xxxxx'
p678
ag8
aa(lp679
S'very hot on the montgomery canal. my laptop is behaving strangely '
p680
ag8
aa(lp681
S"omg...i'm starting to get a headache... "
p682
ag8
aa(lp683
S'so tired from dance reherseal. my feet hurt.  sitting at home bored listening to my sister scream at the dog. text me please. '
p684
ag3
aa(lp685
S"@pmfashionreport if you end up liking one tree hill.. you'll be hooked! if not, watch our parody teen drama webseries, and you'll laugh! "
p686
ag3
aa(lp687
S'alrite guys its time to leave... will catch up with u guys tomorrow.... take care of  urself till then... bye '
p688
ag3
aa(lp689
S"going to the pooooool 'party'....not swimming though.;; game tonight.. : lets go magic!  "
p690
ag3
aa(lp691
S"@shaycarl I'm gonna make  you a banner out of my hair!! wait...that would be gross...umm sorry That's all I got   Good luck though :-P"
p692
ag8
aa(lp693
S'@Collin_wolfboy Heyy Collin '
p694
ag3
aa(lp695
S"All of that courtesy of #318. Lol Baby and I had a date tht I canceld on, but she's over it now. Right? Right. "
p696
ag3
aa(lp697
S'@LindseyAtVeeTea I usually wait for them to do one of their 80% off specials and then get a bunch of coupons. '
p698
ag3
aa(lp699
S"@michelle8776 - that's it...i'm telling  (www.LaughNYC.com)"
p700
ag3
aa(lp701
S"@AlexAllTimeLow haha im available! i'll do it for free "
p702
ag3
aa(lp703
S'I love being different '
p704
ag8
aa(lp705
S'Is playing the guitarr '
p706
ag3
aa(lp707
S'Trying to move a calendar from Outlook 2007 to iCal on Leopard, not a straightforward job '
p708
ag8
aa(lp709
S'In tacoma. The weather sucks. Was supposed to go to wild waves '
p710
ag8
aa(lp711
S'@iimaBarbiie OMFG tay tay im not evenn ya friendd no moreeee  im dumm mad u seddd thatt on thiss fuckkinq shit u dumm lil stupid bitch lol'
p712
ag8
aa(lp713
S'Going 2 meet gem off the train '
p714
ag3
aa(lp715
S'MacBook Pro screen is glossy right to the bezel so every time I open my filthy filthy fingerprints get all over it '
p716
ag8
aa(lp717
S"and the phone is dead. i can't rech you "
p718
ag8
aa(lp719
S'@QueenM81 How dyou know??? '
p720
ag8
aa(lp721
S"good morning, tweeters! today's gonna be a busy day, but tonight's gonna end with the miss alabama pageant! go barbara! haha  "
p722
ag3
aa(lp723
S'@thebutchcaucus hey twink. '
p724
ag3
aa(lp725
S'@sashaduero yeaaay finally  ILYY'
p726
ag3
aa(lp727
S"@lovekelsey thats you saying you're glad they didnt lose all your chocolate ;D just kidding. glad you're home but I MISS YOU! "
p728
ag8
aa(lp729
S'@Tundo Haha, clever, but '
p730
ag8
aa(lp731
S'time to go to bed...weekend over...  '
p732
ag8
aa(lp733
S'give me something '
p734
ag8
aa(lp735
S"Great day despite being the &quot;slow&quot; one of the weekend... Damn I did NOT make enough merchandise! I'm near sold out of some items already "
p736
ag8
aa(lp737
S"*gulp* Just weighed myself at boots,  not good, I am 5ft 2.2&quot; though. Think I'm pound the tredmil if its free when I get in"
p738
ag8
aa(lp739
S'@LizzMackay ya it would be soo exciting if twilight beat all those big oscar nominated movies lol and i am sure twilight will  LMAO'
p740
ag3
aa(lp741
S"@SukieBunny lol - that's so cute- both of u pouting "
p742
ag3
aa(lp743
S'exhausted work til 1. worst weeek by far, js soo gooddaymm upset '
p744
ag8
aa(lp745
S'Me too but raul is helping me! Lmao ilL help you tomorrow '
p746
ag3
aa(lp747
S'Just checked the weather in Strasbourg, France. Looks like it might be rainy for most of my trip '
p748
ag8
aa(lp749
S"@Bcolorful I feel so left out.  what's going on next week?? I'm just going to post up on your block and follow aury n joel to ur house"
p750
ag8
aa(lp751
S'another night no sleep... i miss you to much to sleep '
p752
ag8
aa(lp753
S'so bored!!  my cousin just went home!! '
p754
ag8
aa(lp755
S'honeybees have hair on their eyes '
p756
ag3
aa(lp757
S'@mswilliamsmusic have a good rest !! '
p758
ag3
aa(lp759
S'@NikoleCamarae: okay, well how do you know its to another girl, and not you ;) trust me, i will thursday is the day  hahaha.'
p760
ag3
aa(lp761
S'@heidimontag , Whats your favorite episode of the miley and the mandy show??? i love them all! '
p762
ag3
aa(lp763
S"good night twitters!! i'm out!! BTW i'm back to where i stared, sad!!  ash! am I bipolar or what? -_- agg!!"
p764
ag8
aa(lp765
S'@vic_toria I agree i am not running today due to calf muscle soreness '
p766
ag8
aa(lp767
S'my face is sunburned '
p768
ag8
aa(lp769
S'At work on a Saturday  damn it.'
p770
ag8
aa(lp771
S'BUY GUILTY PLEASURE!BUUUUY IT!IT IS THE BEST ALBUM I CAN\xef\xbf\xbdT WAIT ANYMORE!!!AND WE GERMAN FANS ET IT EARLIER  YAAAAAAY!'
p772
ag3
aa(lp773
S"@HipHopJunkie951 i was gonna sayyyy...maybe not for u,but i'm sure ur mama was tearing her hair out...poor lady! "
p774
ag3
aa(lp775
S"@SkinnyMary you're alone?? why?? "
p776
ag8
aa(lp777
S'@rey_z hahah, good ole internet '
p778
ag3
aa(lp779
S'off to pick up my camera equipment instead of cuddling wit mia '
p780
ag8
aa(lp781
S'i really cbaa doing coursework  gahh!'
p782
ag8
aa(lp783
S'Last day of placements '
p784
ag8
aa(lp785
S'@joyfulmess @victoriashmoria ah ... well then we must bow to the greater roomie knowledge-base '
p786
ag3
aa(lp787
S"Move is half complete. Just eliminated a Cesar Salad with the quickness, and now I'm reving up for part 2. God is good! Let's go! "
p788
ag3
aa(lp789
S"@AcePower it's not msn it's my internet "
p790
ag8
aa(lp791
S'@LimeIce OI! Seriously demented pic!! I looooove!! I want those capris~~ checked pants are the zaniest methinks  waitogo G!'
p792
ag3
aa(lp793
S'Wow, great response 2 http://iphonegamesbook.com ebook giveaway! But none correct answer  See next tweet for clues'
p794
ag8
aa(lp795
S'Good mornigan!! At work, looks like a slow day '
p796
ag8
aa(lp797
S"Last week's show gave us some interesting feedback that will make Heron even better! If anybody is up for testing, send us an e-mail "
p798
ag3
aa(lp799
S'@Exoplanetology that sounds fun!!  Hey...  read some nanotube news today...  it was oddly unsatisfying...  '
p800
ag8
aa(lp801
S'Ohmy. - zoethemuppet: agreeed\xef\xbf\xbd! doctor who just isn\xef\xbf\xbdt going to be the same without him  I know! I am... http://tumblr.com/x7z1wvzkf'
p802
ag8
aa(lp803
S'is busy with Fashion show stuff, l didnt realise how stresful building a simple catwalk would be  x'
p804
ag8
aa(lp805
S'@plushapo Sounds awesome, where are you?   Some great ideas there...  Is there anything public about these games/demos?'
p806
ag3
aa(lp807
S'Headed to lunch wit tha girls...Yay! Gotta get up b4 I leave tomorrow '
p808
ag8
aa(lp809
S'babyyyyy you belong with meeee    - @taylorswift13'
p810
ag3
aa(lp811
S'OMFG ouch! something just went snap in my elbow &amp; now it *really* hurts. '
p812
ag8
aa(lp813
S'Its 3:00 A.M. and someone really needs to lay off he caffeine '
p814
ag3
aa(lp815
S'on the phone with Puget Sound Energy.... Yay..   '
p816
ag8
aa(lp817
S'god im so lost in this site... sorry '
p818
ag8
aa(lp819
S"we'll never know greater Love "
p820
ag3
aa(lp821
S"my stomach is full  and it's hurting like usual"
p822
ag8
aa(lp823
S'Went shopping with my sister-in-law. Then work where one of the residents passed away on my floor.   boo.'
p824
ag8
aa(lp825
S"so many things happening on July 4th, and i don't know what to do  i want to do one thing more than the other, but i can't."
p826
ag8
aa(lp827
S'@gudi1307  i had that exp yesterday...movie and dinner afteer a long long time...and lemme tell you..its nt that great!! '
p828
ag8
aa(lp829
S'Coaching with Jaime was not as exciting as I had hoped '
p830
ag8
aa(lp831
S'@mariqueen Happy you &amp; Trent got engaged best of luck to you both, peace from NIN fan for 20yrs, happy TR found true love with you  Mary'
p832
ag3
aa(lp833
S'I am so lost right now without my other two muskateers. '
p834
ag8
aa(lp835
S'No housewives tonight  DVR kept skipping. Spending my night painting my nails Barbie pink for Graduation!'
p836
ag8
aa(lp837
S'hey new followers from overnight! if you havent already, check out my newest article! http://shar.es/oGzi photo gallery at bottom f/india '
p838
ag3
aa(lp839
S'@saffyre9 Have a good trip!!  Bring me back some...grunge? I am dated.'
p840
ag3
aa(lp841
S'Just sitting here missing Paul '
p842
ag8
aa(lp843
S"@yuemily so i guess there's no way we can escape then "
p844
ag8
aa(lp845
S"Lost track of time doing another project...lol about to go to bed. Goodnite, tweet tight, and don't let the twitterbugz bite! "
p846
ag3
aa(lp847
S'One bottle of wine and two movies down.  Pausing for dinner before the Bourne Ultimatum '
p848
ag3
aa(lp849
S'Had a good time shopping in the states. '
p850
ag3
aa(lp851
S"@pismodude2 you're so right it hurts my face "
p852
ag3
aa(lp853
S'http://twitpic.com/5dded - Making meatballs '
p854
ag3
aa(lp855
S"feels like her head is going to explode! Too much stress and worry, wish i wasn't such an emotional person "
p856
ag8
aa(lp857
S'Tired Jer is Tired. Another long day...  I wish people would stop being D-bags.'
p858
ag8
aa(lp859
S'@pixiesongs you heard anything about it yet '
p860
ag3
aa(lp861
S'im watching the chaser '
p862
ag3
aa(lp863
S'@strangetimes87 yea the loss sucks '
p864
ag8
aa(lp865
S'good day at the mall as far as shoppin ... but i dont feel good  '
p866
ag8
aa(lp867
S'Finished the show in one piece, with a smile and a ribbon for Finn.  Such a good boy!'
p868
ag3
aa(lp869
S'i just wish this night was over.  and i still have 1 more.  '
p870
ag8
aa(lp871
S"@craig_bucknall Mr Craig, g'day to you sir!! "
p872
ag3
aa(lp873
S'@30SECONDSTOMARS at my temp home with a stiff neck. '
p874
ag8
aa(lp875
S"@AndrewEddie I'd love to be in the Australian JRD listing but my submission hasn't been approved since last Sunday. "
p876
ag8
aa(lp877
S'@av3ry I like your user pic. '
p878
ag3
aa(lp879
S"@jordanknight Aah I just realised..I bet you're busy picking your winner aren't you.. I won't hold my breath..!!!! "
p880
ag8
aa(lp881
S'Going down to get my bag ready then im leaving '
p882
ag8
aa(lp883
S'@1023candace '
p884
ag3
aa(lp885
S'@TheSUPERGIRL Maybe ill make a video and show ya what this beautiful place is all about '
p886
ag3
aa(lp887
S'@heidalicious you are belly dancing now  YAAAAAAY!!!'
p888
ag3
aa(lp889
S'watching the Soup. '
p890
ag3
aa(lp891
S'gunna wear this dress out to this thing on saturday.  but idk, :L    ++ i have no shoes to match it  http://tinyurl.com/mvktc8'
p892
ag8
aa(lp893
S"@thisfullhouse Repeat...stanky...'cause my skanky days are WAY passed ovuh "
p894
ag8
aa(lp895
S'AWESOME day in The City with Drew and Bone...Bfast at Boudin, Aquarium, Bridge Cruise, Aquatic Park - no training but walked a LOT '
p896
ag3
aa(lp897
S"Early morning tomorrow, i just can't seem to escape them. Yet, i should really be in bed, can't sleep though! "
p898
ag8
aa(lp899
S"after listening to Jeremy and watching Sailor Moon. I feel much better  but now I'm sleepy so goodnight : ]"
p900
ag3
aa(lp901
S'waiting for some help cleaning '
p902
ag8
aa(lp903
S'option 3: go home and watch Top Gear '
p904
ag3
aa(lp905
S'at work. I need a new job '
p906
ag8
aa(lp907
S"@babigyrlwab09 hey ashley not much. #couchsurfing downtown, staying in tonight  but might walk host's dog to main st in a bit. how bout u?"
p908
ag8
aa(lp909
S"I'm not feeling good ... "
p910
ag8
aa(lp911
S"I never have trouble sleeping, so why can't I sleep today? Maybe because my throat hurts sooo baddd. "
p912
ag8
aa(lp913
S'@Moby89 you got a twitter! hooray! '
p914
ag3
aa(lp915
S'@alexcox13 shut up  you know what! oll just like zack again then.'
p916
ag8
aa(lp917
S'@daygan Must be excited  When was the last time you were home?'
p918
ag3
aa(lp919
S'home for the nite, sleeping on the pull out bed with Maggie. wishing it was @kyla_durden  I got to find a apt'
p920
ag8
aa(lp921
S'@iamdiddy I am still wanting on my &quot;Hi&quot; reply '
p922
ag3
aa(lp923
S'@StarrSpazzin Im doing alright.how are u '
p924
ag3
aa(lp925
S'finally some sun!!! Lots of work to do outside '
p926
ag3
aa(lp927
S"@DerBart Yes it is! He's swimming around a bit AND eating  The meds must've worked!"
p928
ag3
aa(lp929
S"@Karen230683 We still can't see ya...my petition hasn't worked Karen! Time for a plan B!! Grrrrr LOL Hope you are okay today? "
p930
ag3
aa(lp931
S"Its a boyy!!!! I knewww it! Yay I'm gonna have another nephew! "
p932
ag3
aa(lp933
S'#sexyonaman...tattoes but not to many '
p934
ag3
aa(lp935
S'New shoes today - starting to hurt '
p936
ag8
aa(lp937
S"@AllisonNazarian been happening to me almost every morning when I awake - I've unfollowed people "
p938
ag8
aa(lp939
S'@roxerally ha ha  You better have a strong coffee then! '
p940
ag3
aa(lp941
S'Missha  BB cream  Im using no.21  http://bit.ly/HFVhO'
p942
ag3
aa(lp943
S"Medical Advice: Close the drain of the sink if it's your last pill and you forgot to renew the script. "
p944
ag8
aa(lp945
S'@dermaesthetix I empathise luvvie, I dont personally understand a grown mans need to dress in tartan in search for a little white ball '
p946
ag3
aa(lp947
S'lost a bet with andrew so I have to pay for my own mani pedi  damnit haha'
p948
ag8
aa(lp949
S"@JusVenus ...I'm right there too "
p950
ag8
aa(lp951
S'And these boys. JAMES pat m donny little nick big nick jake &lt;3 my family '
p952
ag3
aa(lp953
S'she was in CT and i didnt even knO!! '
p954
ag8
aa(lp955
S'@lealee05 i think i left my phone at your house '
p956
ag8
aa(lp957
S'Its my Birtday today, and I am now 45 years old. Where in the hell did all the time go? Does anyone know, cause I sure dont.   SML, &amp; GB'
p958
ag3
aa(lp959
S"Onto the last part of my English Assessment.  Gwen Harwood; I hope you're rotting in hell as I tweet. ILYYYY pfft."
p960
ag3
aa(lp961
S'Just saw a cute guy at church! '
p962
ag3
aa(lp963
S'@LaloHovis Crazy night?  I was drenched, too, but it was in SWEAT! Summer nights without air conditioning... '
p964
ag8
aa(lp965
S'@chickbot Kinda like status updates '
p966
ag3
aa(lp967
S"I don't really feel good "
p968
ag8
aa(lp969
S"am craving for super beefy shepherd's pie, but it's prolly close to impossible to find at this time on a Sunday. "
p970
ag8
aa(lp971
S"@robynella i know man D: i hope you're feeling a bit better now  hahahaa jo whiley is asking nick jonas if he's back with miley :')"
p972
ag3
aa(lp973
S'Read that as cockblowing, I am less interest  http://disq.us/n7w'
p974
ag8
aa(lp975
S'Back From Work..Was A Longggggg Day..Have A Headache.. '
p976
ag8
aa(lp977
S'I always wanted a clone  http://twitter.com/jburger79'
p978
ag3
aa(lp979
S"wow it's really hot out there !! "
p980
ag3
aa(lp981
S'ughh I ran over something omw from work. Now I have a flat tire and missed my appt '
p982
ag8
aa(lp983
S"I just brush my teeth not too long ago ((( totally don't feel like eating leh, how?! Don't eat can't sleep. Eat, lazy brush + gain fats "
p984
ag8
aa(lp985
S'What is up with this weather? The thunder woke me up at 6 this mourning, bad times!! '
p986
ag8
aa(lp987
S"@charmermark that's the photo when you parked in the parent and child bah. hahaha "
p988
ag3
aa(lp989
S"Can't stop thinking about the wrong person "
p990
ag8
aa(lp991
S'@zuppalizzle I am so sorry bout last nite '
p992
ag8
aa(lp993
S'Aww... Eli not going on summer tour either.  http://tinyurl.com/lzkas9'
p994
ag8
aa(lp995
S'@Markymark_  now who do you thank for getting you to follow the sex that is @ iamcassiedavis '
p996
ag3
aa(lp997
S'@ichareinvent hello, thanks for the follow '
p998
ag3
aa(lp999
S'@thekoolaidmom A kitty litter cake. I have no clue what that is and it scares me a little. '
p1000
ag3
aa(lp1001
S"I've been craving a portobello mushroom 6 dollar burger for a while now. I'm pretty sure there aren't any Carl's Juniors in Canada though "
p1002
ag8
aa(lp1003
S'@cam_sku i feel really queasy. this has nothing to do with you an your tele. stupid beer   '
p1004
ag8
aa(lp1005
S"@stinginthetail I had hamsters in Singapore and cleaned their cages weekly without fail. Didn't even stink despite the heat and humidity! "
p1006
ag3
aa(lp1007
S'4 more minutes, *yeah yeah yeah, yeah yeaaaaaaah*  (sing that in the transformers, robots in disguise tune)'
p1008
ag3
aa(lp1009
S'@ggw_bach Thank you for YOUR positive energy + contributions here! '
p1010
ag3
aa(lp1011
S'Hoedown Throwdown, now off to get an education '
p1012
ag3
aa(lp1013
S'open the book! finally.. '
p1014
ag3
aa(lp1015
S'shoulder is hurting again today  paper writing, pt, paper writing, work 2-7 ... PLEASE STORM!'
p1016
ag8
aa(lp1017
S"@blackwhiteplaid I can't do that  It makes me sad."
p1018
ag8
aa(lp1019
S"Made some headway on my girl's Minnie dress that will probably be her Halloween costume. Would have gone faster, but I had bobbin issues. "
p1020
ag8
aa(lp1021
S"Long drives are best when you're singing some MCS! "
p1022
ag3
aa(lp1023
S'@SamuelLarsen mmmmmkay! Haha  My pastor wants to do something fun/guest bands every other week '
p1024
ag3
aa(lp1025
S'I agree! Those r the ONLY 2 stations i listen 2. U miss 98 rock, i miss 105.9..may they rest in peace '
p1026
ag8
aa(lp1027
S"@tayswift love your songs, hope you'll perform in Belgium in the near future "
p1028
ag3
aa(lp1029
S'Going to the dentist.... I can hear the drilling noise already...wish me luck '
p1030
ag8
aa(lp1031
S'@AngeleahS '
p1032
ag8
aa(lp1033
S"@Brennie I know!  after all these years they are making it up to me.  Too bad I'm too far back for Camden. No monkey to throw on stage "
p1034
ag8
aa(lp1035
S"@YogiChi  I can't work at all anymore.  "
p1036
ag8
aa(lp1037
S'This past week has been bad to me '
p1038
ag8
aa(lp1039
S'@kenshimizu Get 100 followers a day using www.tweeteradder.com Once you add everyone you are on the train or pay vip '
p1040
ag3
aa(lp1041
S'@mnemosynekurai haha yea, i just feel like its being taken the wrong direction, used to be a cool place, now its a mess '
p1042
ag8
aa(lp1043
S'I will mis my dormmates '
p1044
ag8
aa(lp1045
S'twitter! i feel like im running away from you, forgive me? '
p1046
ag8
aa(lp1047
S'@jopineapple Jo!! *hugs* Thanks, I just wish I had infinite time to do this stuff all the time you know? Ah, I love the original SM!! '
p1048
ag3
aa(lp1049
S'started playing red faction '
p1050
ag3
aa(lp1051
S'just woke up and i dont kno why im up this early...work today from 1 to 5 boo '
p1052
ag8
aa(lp1053
S"We're taking my cats to be rehomed. Sad day "
p1054
ag8
aa(lp1055
S"@ryannajuch y'all never invite me "
p1056
ag8
aa(lp1057
S"has spent the last couple of hours cleaning, changing bed sheets, and tidying up .. things i do so I don't have to study "
p1058
ag8
aa(lp1059
S'@Bess182 ah no! busy evening? @Nicola_Dear just the afterparty i think @lauraisyourhost wish i was! stuck at home with loads of work 2 do '
p1060
ag8
aa(lp1061
S'@Moonsinger Man, dude had me pissed off last night LOL. Sorry I directed it at you &amp; everybody. Had to be said, though. '
p1062
ag3
aa(lp1063
S'@keza34 yeah. nice relaxing day today '
p1064
ag3
aa(lp1065
S'@moesfalafel no  I wish. I really want to go but have no time.'
p1066
ag8
aa(lp1067
S'@teemwilliams michelle please follow me also am your beloved fan all the way from Ghana '
p1068
ag8
aa(lp1069
S'has just facebooked only 6 notifications.  lol just about to go to the toilet. then get some cereal. and then twitter more! brb'
p1070
ag8
aa(lp1071
S'@BaltimoreLauren This means i get cookie*s* plural right? '
p1072
ag3
aa(lp1073
S'Up and awake  My hayfever is still visiting -_- SUN!!! '
p1074
ag3
aa(lp1075
S'aaargh... too hot todaaaay!  '
p1076
ag8
aa(lp1077
S'@Morticia626 thank goodness...nectar of the Gods...lol. How has the play been going? Ready for Broadway? '
p1078
ag3
aa(lp1079
S"@DivinePurposeMV I'm so jealous! No snow in Australia  I really should have been born further north of the equator!"
p1080
ag8
aa(lp1081
S'@Dreyah_ acai bowls are sooo freaking yummy!!!!! '
p1082
ag3
aa(lp1083
S'omg im so down! ill cya online '
p1084
ag3
aa(lp1085
S"@THE_REAL_SHAQ is going to Cleveland. One of the best teams in the NBA just got better. Why couldn't you have come to Boston, Shaq? Why? "
p1086
ag8
aa(lp1087
S'@mandyyjirouxx Shout Out To Me Mandy!! Love You Loads, omg i hope miley wins at the mtv awards tmoz '
p1088
ag3
aa(lp1089
S'@__MissB Looking gorgeous! And I love the colours of the bracelet '
p1090
ag3
aa(lp1091
S'@erisedro Mii de scuze, am scris pe blog aici http://bit.ly/zZu3Z , am crezut ca ai citit. My bad '
p1092
ag8
aa(lp1093
S'How and y did I get a boost of energy...when I go to bed I want to b tired not awake...my bods confused I think...!!! '
p1094
ag8
aa(lp1095
S'got soo sunburnt '
p1096
ag3
aa(lp1097
S"@courtneythe1st  that's mean."
p1098
ag8
aa(lp1099
S"@selenagomez aww I'm sorry swty..I don't like when that sorta stuff happens..so I won't be youtubing it..I'm really sorry "
p1100
ag8
aa(lp1101
S'Ready to go home! Work sucks '
p1102
ag8
aa(lp1103
S"@hillarybztch next year is going to be difficult  and even though I'm only 30 minutes away, living somewhere else is freakin me out gurl."
p1104
ag8
aa(lp1105
S"@davidlmorris  have a play with Catalyst, it's pre-release so is pretty much what's going to be released"
p1106
ag3
aa(lp1107
S'@stearnscd ahhhh i want it!  i miss you, life stories buddy!!'
p1108
ag3
aa(lp1109
S'@hell0imsteph So envious of your boobies '
p1110
ag8
aa(lp1111
S'is not feeling so good today '
p1112
ag8
aa(lp1113
S"@atavistian i'd like to be drinking ... but i can't "
p1114
ag8
aa(lp1115
S'@ozwinereview Hmmm, compelling argument 4 sure '
p1116
ag3
aa(lp1117
S'Going to watch Legally Blondes and find something to munch on. Hopefully Chloe will snuggle with me! '
p1118
ag3
aa(lp1119
S'working on work and visiting cherry blossom festival this afternoon  sweet'
p1120
ag3
aa(lp1121
S"@SageRoxUrSox ughh don't do dat -falls on me ass again- brb "
p1122
ag8
aa(lp1123
S"@katiebcosmetics Hehe, don't worry about it. I still owe you from #followfriday &amp; you deserve it regardless. Have a super evening! "
p1124
ag3
aa(lp1125
S'@aleenia Please Aleenia, I know you are not customer support, but I really need your help, My yicket wont get looked at as im non prem  !x'
p1126
ag8
aa(lp1127
S'deleted fans in plurk. '
p1128
ag3
aa(lp1129
S"I can't fall asleeeep!   tiff needs to hurry up and come home so I can go back in my room &amp; sleep instead of the floor."
p1130
ag8
aa(lp1131
S'@marieiris good morning btw '
p1132
ag3
aa(lp1133
S"tonight I'm off to Roselle NJ playing at StudioAllZone we should have a full house with all the radio promo... excited "
p1134
ag3
aa(lp1135
S"@JLMousseau he was actually running around over my shoes getting his morning x-r-zize while I was taking that.  He's my lil' buddy"
p1136
ag3
aa(lp1137
S'Fast and furious 4.. awesome movie '
p1138
ag3
aa(lp1139
S'@obsessedwithyou haha! if u do go to one of those islands.. TAKE MEE!! '
p1140
ag3
aa(lp1141
S'@Becky26492 i am jealous '
p1142
ag8
aa(lp1143
S"Just realised I'm gonna have to go to sleep at like...6:30 am as much! O_O My sister's arriving at 8 sth, so family will be up early. "
p1144
ag8
aa(lp1145
S'@schachin ive seen it before, still no luck finding where i saw it originally '
p1146
ag8
aa(lp1147
S'@karlalarla I used to but then he cut his hair '
p1148
ag8
aa(lp1149
S"I just painted my nail pink  That's the 2nd productive thing I've done today  x 2"
p1150
ag3
aa(lp1151
S'Nope... you already hurt my feelings... no apologies!    j/k... that stinks.. how long til you  come back?'
p1152
ag8
aa(lp1153
S'@dwick29 @cwtsh Cappage on its way '
p1154
ag3
aa(lp1155
S'@iiMsuChaStar yea.... '
p1156
ag8
aa(lp1157
S'I want a media job. '
p1158
ag3
aa(lp1159
S'@lyshaxmichele hurry cause i have much to tell you also '
p1160
ag8
aa(lp1161
S'Might be some decent surf again in Avellanas, Cape Town and Langosta.  Oh the choices I have '
p1162
ag3
aa(lp1163
S'Time for massive amounts of homework.... Not fun. And its really nice outside '
p1164
ag8
aa(lp1165
S'@hawaiiansilkE well u can move to bama ill be waitin '
p1166
ag3
aa(lp1167
S'I miss Twitter SOOOO much '
p1168
ag8
aa(lp1169
S'Woo hoo!! Sheets fresh out the dryer! Its been a bit of a day; looking 4ward 2 getting n2 bed 2nite. Sometimes its jst the little things. '
p1170
ag3
aa(lp1171
S"Mamma Roo's Funeral  I love you Ronney hold on tight we are all there for you."
p1172
ag8
aa(lp1173
S"@barbyang is it open today? It's a national day here...well not for all the companies...arghhhh why do I have to work today!!!!!  "
p1174
ag8
aa(lp1175
S'Follow my mum @Naveedaa - She got twitter '
p1176
ag3
aa(lp1177
S"happy mother's day, mom. sorry men completely suck.  and to my second mother, lori - we all miss you today. please be with us."
p1178
ag8
aa(lp1179
S'@ McD using their net  A bit sleepy all day but can write in 5h in the book...'
p1180
ag3
aa(lp1181
S'Thanks everyone!! It worked.. You guys really sent me a great energy  Obrigada gente.. Valeu!!'
p1182
ag3
aa(lp1183
S"Ah! She's Got the Look has a trans gal in competition!  YAY! I think I'm in. The lez girl in the band is kinda hot, too. "
p1184
ag3
aa(lp1185
S'What a bummer!!! '
p1186
ag8
aa(lp1187
S'No school until Wednesday!  ..and then exam on Friday '
p1188
ag8
aa(lp1189
S"@alishagg love love love love love my palm pre.  I bet I will love it even more when it's up and running "
p1190
ag3
aa(lp1191
S"It's midnight and I am feeling hungry. "
p1192
ag8
aa(lp1193
S'enjoying my new car '
p1194
ag3
aa(lp1195
S"@MarkGibbens SOunds cool!  I have some documentation and a project proposal to get sorted, so I'll be doing that and watching you. "
p1196
ag3
aa(lp1197
S'@mistressEVIL thanks  it gets worse at night.'
p1198
ag3
aa(lp1199
S'@bradlinder one more reason to live in italy. here only sun, even in January '
p1200
ag3
aa(lp1201
S'must do lots of revision today '
p1202
ag8
aa(lp1203
S'going leavers mass today '
p1204
ag8
aa(lp1205
S'@drpdavzgrl Yay turn it up reaaaaaaaaaaal loud '
p1206
ag3
aa(lp1207
S'packing again... and the agony never ends... '
p1208
ag8
aa(lp1209
S'i now like.................someone named............... not telling '
p1210
ag3
aa(lp1211
S'I seriously hope she understands  I could be in Ontario right now, going to Niagra Falls. *seriously shakiing my head right now*'
p1212
ag8
aa(lp1213
S'i wanna go to the movies '
p1214
ag8
aa(lp1215
S'Training great. feeling good, feeling good! soon to start P90X and whew that will be like boot camp '
p1216
ag3
aa(lp1217
S'@cosimo179 do you have to work during those two days or do you have some time to explore the place? '
p1218
ag3
aa(lp1219
S'@DiiLee  athaatech 9aa7 ?? ma 3alih u r SupaWomen u can take it  http://tinyurl.com/csao49'
p1220
ag3
aa(lp1221
S"It's sleepy time..have 2 wake up early to work  Sleep well my sweet P!nk! xoxoxoxoxoxoxoxoxoxoxoxoxoxoxoxoxoxoxoxoxoxoxoxoxoxoxoxoxoxoxoxo"
p1222
ag8
aa(lp1223
S'is bored to death, just flicking through tv channels, bugger all on. guess im not used to being in on an evening '
p1224
ag8
aa(lp1225
S'@itsmeAP yo what it is homie? '
p1226
ag3
aa(lp1227
S'Writing a blog post on Fourier Transforms... I can already feel the excitement and anticipation from you all '
p1228
ag3
aa(lp1229
S'Still really tired...want to play guitar but people still in bed !! '
p1230
ag8
aa(lp1231
S"@RyanSeacrest aww i'm not from the US so i can't tune in to your show  could you pls ask kris if he's got twitter? pretty pls? thanks!"
p1232
ag8
aa(lp1233
S"I'm up and dressed. I'm going to king's island today. "
p1234
ag3
aa(lp1235
S'@URIENATOR omfg, thats heaps good  alex gaskarth is friggin amazing; '
p1236
ag3
aa(lp1237
S'@luishandshake congratulations dude! i hope you have the most awesome long and happy married life with your lovely lady '
p1238
ag3
aa(lp1239
S'had a fun day with natalya, ash, and lexus  off to bed cuz i have to go buy LVATT!!!!! (the new jonas album!!!)'
p1240
ag3
aa(lp1241
S'@branhead4lyfe good seeing you last night t-money '
p1242
ag3
aa(lp1243
S'@Becksibee Quite  a strong line up, glad to see Liam Watts in squad and always happy to see Fozzy running  Hope Mills has a good  needs it'
p1244
ag3
aa(lp1245
S'@DJPhalluz not you too '
p1246
ag8
aa(lp1247
S'@MarieLuv at 8:45 I look like corky thatcher and ozzy ozbourne combined '
p1248
ag8
aa(lp1249
S'-_- just got home from a 2 hr photoshoot IN THE SUN... a little moody &amp; tired but will be with the mister friend tonight '
p1250
ag3
aa(lp1251
S'I do wish @4everbrandy, @solangeknowles and @jsullivanmusic were performing also. '
p1252
ag8
aa(lp1253
S"On a Reggea ViiBe !! Yaaah'Maan Me nah have Time fi problem..Me feel Nuff Good. "
p1254
ag3
aa(lp1255
S'@AussieMcflyFan Nah i havnt been, when they came to sydney i begged my parents but they not interested in them  '
p1256
ag8
aa(lp1257
S'@Health4UandPets saw the one with a GSD covered in them, and I could not stop crying. I just bawled and bawled '
p1258
ag8
aa(lp1259
S'@masseffect2 Why nothing at Microsoft Press conference? Too early I guess? Too bad. '
p1260
ag8
aa(lp1261
S'@Jonasbrothers In celebration of LV&amp;TT coming out, you should tweet some fans back! Please  We love you so much, guys! xoxo'
p1262
ag3
aa(lp1263
S'Eating chocolate and back to my data warehouse *weeps* '
p1264
ag8
aa(lp1265
S'eurgh its so hot today  and no sun.'
p1266
ag8
aa(lp1267
S"@LeeConti starts @  just $75k too ! they go on sale here next year...they're opening a dealership down the street from me...can't wait "
p1268
ag3
aa(lp1269
S"@wonder_nat Aww thanks ((hugs back)) Just feel really down  Nevermind! I will ok later I'm sure!"
p1270
ag8
aa(lp1271
S'@microlove YES   i wish i had some'
p1272
ag3
aa(lp1273
S'is about to drink some heaven-sent, exquisite, beyond belief delicious jasmine green tea. It has funny little sweet sequins I adore... '
p1274
ag3
aa(lp1275
S'@loopersmusic Hilarious '
p1276
ag3
aa(lp1277
S'@dougiemcfly HII DOUGIE, MISS YOU GUYS HERE IN BRAZIL SOO MUCH '
p1278
ag8
aa(lp1279
S'going to lunch (: i miss @ignaciavalencia '
p1280
ag8
aa(lp1281
S'&quot;Always look on the bright side of life&quot; makes me think of two things: optimism is slightly overrated and how much I miss my Patsy. '
p1282
ag8
aa(lp1283
S"@lennyrite a piece like tuope (sp?) LOL I'm not in the pic "
p1284
ag3
aa(lp1285
S'@TheNoobKiller Fridays my move day  movin to Chester green, nice newish house'
p1286
ag3
aa(lp1287
S"Had A Super Weekend!  Gutted It's Almost Monday Already!!"
p1288
ag3
aa(lp1289
S'@d_cahill  i try '
p1290
ag3
aa(lp1291
S"@Homesickblues So I can't sing you happy unbirthday today? "
p1292
ag8
aa(lp1293
S'Watching 17 again!  http://myloc.me/40sU'
p1294
ag3
aa(lp1295
S"@cheskie_bear unni. you're into nba too? haha. "
p1296
ag3
aa(lp1297
S"...in August. Can't wait to relive my youth. "
p1298
ag3
aa(lp1299
S'@nikkiisawake yeah. the government should but theyre too busy getting supporters for the election. hahaha. '
p1300
ag3
aa(lp1301
S'Ho ho ho  &quot;Deleted Tweets found living in the hereafter. Web 2.0 - Where blunders never die&quot; http://digbig.com/4ytnd (via @ElReg)'
p1302
ag3
aa(lp1303
S'@Chutchapol just got back from Hong Kong '
p1304
ag3
aa(lp1305
S'@alyankovic will you have a polka on the new album? I hope so, I love them so '
p1306
ag3
aa(lp1307
S"@TheMiseducation ah great. hope you get it!  stuck in de office so no sun 'til 5pm. then home, changed, and walk into town. njoy de day."
p1308
ag3
aa(lp1309
S'Back in a sec.  Off for a dump.  '
p1310
ag8
aa(lp1311
S'cant sleep too warm  some bring back the snow or somethin'
p1312
ag8
aa(lp1313
S"I hate that I can't sleep wahhh wahhh "
p1314
ag8
aa(lp1315
S"@qtjene I'd go up there but I can't really.. drive right now...But you're welcome over here! Or maybe next Friday? I wish we lived closer "
p1316
ag8
aa(lp1317
S"is excited to play Kid Cudi's  &quot;hot  track&quot;....guaranteed fresh mix...can't wait to go on board today  and oh...battlefield of course "
p1318
ag3
aa(lp1319
S'All straight guys are hot but gay guys are not. '
p1320
ag8
aa(lp1321
S'My daughter just started her first Pokemon tournament. '
p1322
ag3
aa(lp1323
S"Fleetwood Mac are playing in Birmingham on my birthday, yippee... that's nice of them  x"
p1324
ag3
aa(lp1325
S"@lmb520 I need to go to Lush! Sounds like you're having fun "
p1326
ag3
aa(lp1327
S"Weather is lovely, I'm headed home via supermarket. Planning to spend some quality time knitting tonight. "
p1328
ag3
aa(lp1329
S'#followfriday Love,Sex, Compatibility Astro-HOTTIE @strology - His work speaks for itself! In the process get to know a wonderul man '
p1330
ag3
aa(lp1331
S'@bodaciousbre weird. Thats exactly what i said after you were done explainin how ur genital warts effect your sex life.  where r u?!'
p1332
ag3
aa(lp1333
S'preparing to give my speech! '
p1334
ag8
aa(lp1335
S"@mcddjj it's &quot;F1 Timing Application 2009.&quot; i want it though a little expensive... "
p1336
ag8
aa(lp1337
S'another new iPhone on its way from O2  http://bit.ly/L5Uaq'
p1338
ag8
aa(lp1339
S'@mjkirkham can I know one thing before you guys? '
p1340
ag8
aa(lp1341
S"Made this account because I'll setup a system to announce contests and winners via twitter as well.  Won't be able to handle submissions. "
p1342
ag8
aa(lp1343
S'Ugh, I really want a new laptop! '
p1344
ag8
aa(lp1345
S"@katierina oh dear  i'm going to attempt to make Creme brulee things for the parents tonight.....argh!x"
p1346
ag8
aa(lp1347
S'i just ate a whole can of jalapeno pringles '
p1348
ag8
aa(lp1349
S"@Domulka ohh, I see, that sucks!   I'm just so glad that theyr consert tonight its on TV! "
p1350
ag8
aa(lp1351
S"@suizo for you I'll shave the head, too "
p1352
ag3
aa(lp1353
S'@jeyyounit11 awesome!  '
p1354
ag3
aa(lp1355
S'Using up the last of my UK credit on this SIM. In Berlin, studying a Ubahn map! Now having a Kraftwerk moment '
p1356
ag3
aa(lp1357
S'Are you telling me I cant have you forever.. So let your love set u free and take your pretty wings and fly away. '
p1358
ag8
aa(lp1359
S'@stormharrison i am broken and bruised...and not even sexually, gutted '
p1360
ag8
aa(lp1361
S"going on an extended holiday trip through the county today. First stop: Carinthia.  give me sun please, for cabrio's sake!"
p1362
ag3
aa(lp1363
S'always forgets how much she loves Indie103 until she opens up iTunes on the work computer. Miss having it in the car. '
p1364
ag8
aa(lp1365
S'is chillin out on the comp but will be going to bed soon as its getting very late lol!! '
p1366
ag3
aa(lp1367
S"I LOVE CHACE CRAWFORD !!!  OMG he's soo HOT !!"
p1368
ag3
aa(lp1369
S"@anniethrax I'm sadly going to rockfest  and I don't like any of the bands. I hate life"
p1370
ag8
aa(lp1371
S'Off to work '
p1372
ag8
aa(lp1373
S'@glittertrash and when do they become available for purchase in the shops? '
p1374
ag3
aa(lp1375
S'@TomFelton morning to you too! Nice quote you have there. Thanks for sharing. '
p1376
ag3
aa(lp1377
S'Fighting with myself. Ughhhfjskhdjsk '
p1378
ag8
aa(lp1379
S'Anyone fancy a game of footie ? '
p1380
ag3
aa(lp1381
S'Laying in my bed in my new apt in nova. Ahhhh feels good to be home '
p1382
ag3
aa(lp1383
S'@agencycouture inexpensive is close to free for now.  I have a site but its a premade layout.'
p1384
ag8
aa(lp1385
S'so sleepy.. but i have to finish my homework '
p1386
ag8
aa(lp1387
S"Tonight just didn't work out for me i guess... owel tomorrow is a new day! but i work at 8:30 am! YAY ITS MAY and only a month 1/2 left "
p1388
ag3
aa(lp1389
S'ugh it hurts everywhere ....all dat lunatic ravin i was doin last nite '
p1390
ag8
aa(lp1391
S'@AmyyVee hope the results will be fine '
p1392
ag3
aa(lp1393
S'dangit i hate it when he text tweets  no hope haha'
p1394
ag8
aa(lp1395
S'@hoffifer .. Oh fuck you '
p1396
ag8
aa(lp1397
S"@dooce she's gorgeous and yes, her name does kick ass!  LOVE it  Congrats!"
p1398
ag3
aa(lp1399
S"needs you now!  Why don't you understand? T.T"
p1400
ag8
aa(lp1401
S'has landed in a dreary June Jozi, but is smiling! Yay for seeing family, and Irish  And Wed. Atli and @lesegotlhabi!'
p1402
ag3
aa(lp1403
S'@DWsRoseC booo... I hate my photo. At least you both can chop me out and have a nice picture '
p1404
ag8
aa(lp1405
S'Trying to stay awake at work!!!!! But my eyes soooo want to close   HEELLLLPPP!!!'
p1406
ag8
aa(lp1407
S'its more like 2 crappy pics out of 200 terrible ones  You try to convince them to sit still!'
p1408
ag8
aa(lp1409
S'At the fair with meghan! '
p1410
ag3
aa(lp1411
S'@gothwin Phew. Neighbours were out on the roof chatting until 5am because of the heat, so hot night and no sleep here '
p1412
ag8
aa(lp1413
S'made a booboo  destroyed physical property in the office '
p1414
ag8
aa(lp1415
S"@PetSmartTLC I need house training tips stat! Olive just isn't getting it  I don't know what to do!"
p1416
ag8
aa(lp1417
S'@lauraawade you got me addicted to crazy taxi '
p1418
ag8
aa(lp1419
S'gwyneth paltrow: my son thinks any white person is his dad (chris martin). adorable. '
p1420
ag3
aa(lp1421
S'Crown race found in back pocket of jeans. The build can continue tonight hopefully '
p1422
ag3
aa(lp1423
S'good morning, twitterverse. why am i up this &quot;early?&quot; because i have to go get two cavities filled. booo '
p1424
ag8
aa(lp1425
S"MacBook won't start anymore... broken after 1 month! o.0 very disappointing "
p1426
ag8
aa(lp1427
S"Hey @PILLOWTA1K Weapon XI wasnt Deadpool it isnt even played by Ryan, it's some dude name Scott Adkins..strange. The movie was so off "
p1428
ag8
aa(lp1429
S'Cut my finger while cutting vege  how undomestic. great night spent with bf &amp; bb, watching movie, eating lots of dessert and chatting &lt;3'
p1430
ag8
aa(lp1431
S"I made it to Germany. Business class on Lufthansa from Chicago to Munich then Munich to Leipzig. Doesn't get much better! "
p1432
ag3
aa(lp1433
S"I love Trader Joe's but their Spinach dip was not so good  Boo!"
p1434
ag8
aa(lp1435
S'tonight was so fun '
p1436
ag3
aa(lp1437
S'@misterwallace Oooh, are you doing Would I Lie To You? '
p1438
ag3
aa(lp1439
S'@phate13 cheers dude - my folks will no doubt be embarrassing at the airport  have a good day too !'
p1440
ag3
aa(lp1441
S"is hurt and disappointed by someone's lack of response to a birthday present she gave to him  she still doesn't know if he liked them!!!"
p1442
ag8
aa(lp1443
S'Boreddddd on this beautiful day   Whassup fam!!!'
p1444
ag8
aa(lp1445
S'Great! Just got home chainsaw in hand ready to cut the timber in the garden and the heavens have opened up, British summer time for ya '
p1446
ag8
aa(lp1447
S'@ashley_baby13 Sadly studying. '
p1448
ag8
aa(lp1449
S"loving the sun! Global Warming at it's best "
p1450
ag3
aa(lp1451
S'relaxing night at home with best people '
p1452
ag3
aa(lp1453
S'@superfro432 I do not, however, have any booze.  Sads.'
p1454
ag8
aa(lp1455
S'bikini season is upon us! time to get in those hardcore workouts since summer draws near! '
p1456
ag3
aa(lp1457
S'Going offline now, half 10, school tommorow, Bummmer '
p1458
ag8
aa(lp1459
S"@princessofworld I don't know who redheadgirl is, but I've sent her several @ repliles.  "
p1460
ag3
aa(lp1461
S"@JohnjayVanEs LOL, can't wait to see the pic "
p1462
ag3
aa(lp1463
S'I wish I could do this with a bike.. so cool, Inspired Bicycles - Danny MacAskill:  http://tr.im/n1CN awesome '
p1464
ag3
aa(lp1465
S'@thepioneerwoman Yea!  More entertainment and recipes for me!! '
p1466
ag3
aa(lp1467
S'WATCHING JAY LENO   Time flies...17 years!!!! He will be missed.'
p1468
ag8
aa(lp1469
S'@levancharly eek! pretty scary '
p1470
ag8
aa(lp1471
S"@karlalarla It was soooo amazing; Go soon there's only a week left. "
p1472
ag8
aa(lp1473
S'feeling a bit sick at work '
p1474
ag8
aa(lp1475
S'On our way to Disneyland '
p1476
ag3
aa(lp1477
S'@AgesTheGreat  in jersey order me some chinese food lol.'
p1478
ag8
aa(lp1479
S'missed out on westcott micro apollo too '
p1480
ag8
aa(lp1481
S'@michaelmagical Thanks  lol'
p1482
ag3
aa(lp1483
S'laying in bed with no voice.. '
p1484
ag8
aa(lp1485
S'i hate sleeping when the sun is already up. '
p1486
ag8
aa(lp1487
S'@mdlcrz me too, poverty. '
p1488
ag8
aa(lp1489
S'Happy Birthday to @Laxenia! Have a great day '
p1490
ag3
aa(lp1491
S'I am not ready at all to perform my IP tomorrow! '
p1492
ag8
aa(lp1493
S'@Posh_Totty Considering its monday morning, not too bad really. Sun is out, some work to do, feeling fine. '
p1494
ag3
aa(lp1495
S'I MISS YOU ELLEN......... '
p1496
ag8
aa(lp1497
S'@Pajareezy Miss you!!!....Cheers '
p1498
ag8
aa(lp1499
S'@mileycyrus http://twitpic.com/6fvzh - You guys are so cool. '
p1500
ag3
aa(lp1501
S'@dandineen I am UCE, I did my PGCE there   went to Leicester for my main degree though ...'
p1502
ag3
aa.