(lp0
(lp1
S'I wish more people would follow me '
p2
aS'negative'
p3
aa(lp4
S'@leahcurtis  thanks. its so bloody hot here though. Still a little jet lagged. Heading out for dinner in Bandra.'
p5
aS'positive'
p6
aa(lp7
S'http://twitpic.com/7j8vf - Killing time at light installation '
p8
ag6
aa(lp9
S'HOORAY!!! Its Friday EVE!!! or Thirsty Thursday!!!  or... Well I really got no other word/phrase for Thursday...  O well...'
p10
ag3
aa(lp11
S'im in austin with nothing to do until like 11. cant call or text anyone cause my phone is broke.... '
p12
ag3
aa(lp13
S'ended up having a wonderful day '
p14
ag6
aa(lp15
S'@anythingpotato crappy love thingy... sumasabay pa sa ulan! di ba lalung nakaka-depress?  will make kwento tomorrow! i need a power hug!!'
p16
ag3
aa(lp17
S'on the around the world in a day album cover - he has strawberry-blonde hair? LMAOOOOOOOOOOOOO  ~XO*OX~  aaoowwaa!!'
p18
ag6
aa(lp19
S'@tastethenate @adorkablex erm, magic. '
p20
ag6
aa(lp21
S'So fucking bored '
p22
ag3
aa(lp23
S'needs to find money to actually go out tomorrowwww. ughhh. i need drinks &amp; fun!! i hate being broke '
p24
ag3
aa(lp25
S"@davidbeking k - you tell 10 friends and I'll tell 10 friends and by Thursday (at the latest) you should pretty much OWN the internet "
p26
ag6
aa(lp27
S"Getting ready for work this afternoon  I hope  that there's a bus on a Sunday to come home on ....hmmm"
p28
ag3
aa(lp29
S"Good Morning everyone!!! Let's have a wonderful Apple day LOL "
p30
ag6
aa(lp31
S"Ah spent the night at Chris's with Matthew and woke up waayy to early "
p32
ag3
aa(lp33
S'@Masterface Is that tomorrow? OMG have fun! And give Ianto a hug from me. '
p34
ag6
aa(lp35
S'Matthh Assesss Todayyy '
p36
ag3
aa(lp37
S'back from the hairdressers  staying in until tonite, BBQ for a birthday  '
p38
ag6
aa(lp39
S'@freeiphoneapps  iPod touch 1G  want to give me a free 2G?'
p40
ag3
aa(lp41
S"@thetricktolife I'm listening! Give me a shout out lol "
p42
ag6
aa(lp43
S'@ashleytisdale  So happy for you Ashley! Congratulations on the award!'
p44
ag6
aa(lp45
S'at sunny panama city beach..*sigh* how niiice '
p46
ag6
aa(lp47
S'Dam just got buzzed by another HUGE fly! This time it landed on my head...not impressed '
p48
ag3
aa(lp49
S"@MajorDodson Y thank U, I'm glad you feel that way "
p50
ag6
aa(lp51
S'KITCH; DOMO KUN!!! chase; i dont have any homeowrk? '
p52
ag3
aa(lp53
S"is praying for the people in Franklin County, Virginia...there's a tornado warning   Moving east to Pittsylvania County."
p54
ag3
aa(lp55
S'@vampirefreak101 Katie! I couldnt read any reply of you!  I hope you had a good trip! Summer is here!!'
p56
ag3
aa(lp57
S'@OliviaWilder Sorry I laugh, but was very funny   @ModelSupplies got me in trouble lol'
p58
ag6
aa(lp59
S"@jc_a You know what they say...it takes a 4.0 product before it's truly &quot;mature&quot; and perfected "
p60
ag6
aa(lp61
S'@kimla310 Yeah I miss her  But she will visit often and I always want an excuse to visit LV lol'
p62
ag3
aa(lp63
S'wants and needs some sleep, but instead sitting in pain in type class!! '
p64
ag3
aa(lp65
S'I just talked to my mom ad my dogs are howling in the background. I miss them SO much '
p66
ag3
aa(lp67
S"great quote- 'every hot blooded woman needs an object to crave' - "
p68
ag6
aa(lp69
S'i got stung by a bee. '
p70
ag3
aa(lp71
S'@Wossy  Morning Rossy, talking of dogs.....any chance you can do a shout out for @BellaGthePug  she only has a few followers    '
p72
ag3
aa(lp73
S'http://twitpic.com/7ia4h - LOOK! Something bite me under my ear last night! It was redder if thats a word, and all itchy '
p74
ag3
aa(lp75
S"saw someone using my aiba non-no's translation in her LJ with proper credits  nice!"
p76
ag6
aa(lp77
S"@jonessamonique I've been well. Grinding. Hope all is good with u! I want to hear ur music "
p78
ag6
aa(lp79
S'@OhCost yeah, this twitter cell phone app sucks! Se me hace mas dificil y no pd nii ver a mis followers ni reply '
p80
ag3
aa(lp81
S'@Drattigan I can finish it on my own too '
p82
ag3
aa(lp83
S"@RaeveenBrawla I think Nicholas' teeth are the only thing that gives us a heads-up that he's human because everything else is perfect. "
p84
ag6
aa(lp85
S"@grandjoke Ice cream sounds good! But vegan-ized!  I vote that adventure for tomorrow. You didn't sound mean, I just talk about my"
p86
ag6
aa(lp87
S'@dawngeary ouch! '
p88
ag3
aa(lp89
S'@ymaethetrinket citin hotel is just opposite pala puduraya bus station (so ok punta na tayo malacca talaga, hehe). '
p90
ag6
aa(lp91
S'Just woke up. Felt so good too.  i needed it. Whitnee wore me out last night!'
p92
ag6
aa(lp93
S"Making labels for Mae and Justine's books and notebooks. "
p94
ag6
aa(lp95
S'@acadnurul daaappppppp nyee. You made me want to fly home right now knurl~~  Oh come July quickk.'
p96
ag3
aa(lp97
S'All is well '
p98
ag6
aa(lp99
S'Missing Will '
p100
ag3
aa(lp101
S'@gemmak500 argh. The thunder woke me too. I love storms, but not at 6:30 when I went to bed at 2:00! Just woke up again now '
p102
ag3
aa(lp103
S"@Recordman7 you mean it's not 2pm EST?  it's already 3am here!!! arghhh"
p104
ag3
aa(lp105
S'At beerfest to watch vertical horizon  hope it is great!'
p106
ag6
aa(lp107
S'I think the yeast hate me. '
p108
ag3
aa(lp109
S"@beezan I've to admit..... I did a tiny bit of shopping. Whilst of course spending most of my time doing cultural things "
p110
ag6
aa(lp111
S'OMG its tooo quiet...someone say something... '
p112
ag3
aa(lp113
S'the new myspace is officially launched  myspace.com/cyanidedrunk'
p114
ag6
aa(lp115
S'Is playing tha wii '
p116
ag6
aa(lp117
S'Truth in advertising.  Hmm, might work  http://bit.ly/absMN #humor'
p118
ag6
aa(lp119
S"Don't want to go to work today. "
p120
ag3
aa(lp121
S'Just spent the evening at the shooting gallery. SO AWESOME  http://yfrog.com/earbkj'
p122
ag6
aa(lp123
S'ugh 2 hardiest exams tomorrow  hope i get atleast a B in both of them!'
p124
ag3
aa(lp125
S'@lulyz Yup I agree '
p126
ag3
aa(lp127
S'I miss accounting '
p128
ag3
aa(lp129
S'@figh Ah decent excuse... '
p130
ag6
aa(lp131
S'@EmilyYoung09 hey... morning... u gt any olans 4 2day? xx '
p132
ag6
aa(lp133
S"by the way.. it's johnny depp's birthday!!! happy birthday to him!! "
p134
ag6
aa(lp135
S"@migs_karlo yeah, but it's so hot - we're going to the beach later on "
p136
ag6
aa(lp137
S"@mvidaurri ok but if you need me I'm here  oie sorry q I didn't go with you I wanted pero my mom wasn't in the best of moods! i love u ok?"
p138
ag6
aa(lp139
S'@johncmayer and now you can sing free falling  which is better than the original! I love it!'
p140
ag6
aa(lp141
S'@marks thank you! you made me in a better mood for sure '
p142
ag6
aa(lp143
S'&quot;Those who provoke [North Korea] once will not be able to escape its unimaginable and merciless punishment.&quot; Oh dear, not lookin good '
p144
ag3
aa(lp145
S'It`s awesome following people because you get to see all the tweets on one page !   '
p146
ag6
aa(lp147
S"aw! I'm gonna miss my old username... nick jonas, shontelle layne, and sean kingston replied to my OLD USERNAME!  I'm gonna start all over"
p148
ag3
aa(lp149
S'@ohhaikelly sounds good to me '
p150
ag6
aa(lp151
S'Nothing to do today   any idea?'
p152
ag3
aa(lp153
S"um... so I don't think my text msgs have a &quot;subject line&quot; ... I fail "
p154
ag3
aa(lp155
S"@bnththespinlite i would love to but i'm busy tonight "
p156
ag3
aa(lp157
S"Hello twitterworld! I'm sooo sad! Failed my biology test! "
p158
ag3
aa(lp159
S'I think I need to invent a minus scale to describe my current training motivation '
p160
ag3
aa(lp161
S'Bought my ticket to SF! #WWDC here I come '
p162
ag6
aa(lp163
S'@Kerred I like it quite a bit.  The wife and I can discuss bills, and I can see my 13-week old to cheer me on a bad day.  '
p164
ag6
aa(lp165
S'just watched kellie pickler on ellen! aw man funny stuff! loe both of them! '
p166
ag6
aa(lp167
S"@Angelfan Praying for you to warm up too!!!  It wasn't bad tempwise here today, but if you are cold today-it must be headed my way!!  "
p168
ag3
aa(lp169
S'@dannywood You really gonna do a song on summer tour!?  Just  1  Cant wait to hear it, comin from Scotland UK to see ya!'
p170
ag3
aa(lp171
S'@followcassidy why are you upset? '
p172
ag3
aa(lp173
S"this week had been the best week i'd ever had (so far)  "
p174
ag6
aa(lp175
S'failed history, mom gonna kill me, dad too '
p176
ag3
aa(lp177
S'Omg its cold out side! Now getting out thee drive away! And be heading home! Texas here i come back home! '
p178
ag6
aa(lp179
S'Still recovering from my cold '
p180
ag3
aa(lp181
S'@TessMorris Thank you for your lovely message. I feel really encouraged by it.  It would be lovely to be walking with you all. '
p182
ag6
aa(lp183
S"@stylist24 oh smh Lord heal her n Jesus name smh U gonna get betta I'd I got anything Esay bout it  lol"
p184
ag6
aa(lp185
S'forgot to wake little one up for toilet before I went to bed last night, now I have lots  of bedding to wash. '
p186
ag3
aa(lp187
S"ok, so it looks like everyone else is out having a life tonight, i guess i'll go and watch conspiracy theory or something "
p188
ag3
aa(lp189
S"OMG today's the day hahah but not here  buuh1"
p190
ag3
aa(lp191
S'cant beat one boss on her Mario game... this is extremely frustrating. '
p192
ag3
aa(lp193
S"Thanks to @JimCim, @BarbaraBretton, and @KP_eezy for the writing encouragement. You'll support me, until you read my stories. HA "
p194
ag6
aa(lp195
S'@JohnhampsonUK Nicely done - I hope all goes well '
p196
ag6
aa(lp197
S'@backstreetboys Hi boys!! How are u?? Hey my birthday is in June 4th!!  I love you so much guys!! Kisses from Puebla, M\xc3\xa9xico!! '
p198
ag6
aa(lp199
S'@glsmeltr and thank you so much for your hospitality  I appreciate it!'
p200
ag6
aa(lp201
S'Why is there a crying Bumblee in Transformers 2?  DO NOT WANT '
p202
ag3
aa(lp203
S'Is having a superfanfabtastic weekend '
p204
ag6
aa(lp205
S'So getting ready, then moving the rest of my stuff to the house  boyfriend coming over today  Pumpkin (:'
p206
ag6
aa(lp207
S'@thesoftlanding I would love to see that, how exciting!!! YAY '
p208
ag6
aa(lp209
S"@ilindsay That's very cute! "
p210
ag6
aa(lp211
S'Waiting for JNU-ANC flight.  Some lady stole my $4 hat.  I liked that hat.  '
p212
ag3
aa(lp213
S'Twilight swept up five awards. whoa. '
p214
ag6
aa(lp215
S"@BoomerangPR Why am I not surprised it's raining  About to enjoy my first cup of coffee *happy face*, then off to play some golf."
p216
ag6
aa(lp217
S'@beezan it really is! just gonna make scrambled eggs and bacon...want some? and nice cuppa taye?  '
p218
ag6
aa(lp219
S'@juttayy  wizards of waverly place '
p220
ag6
aa(lp221
S'without net...bad times '
p222
ag3
aa(lp223
S'@riotlainie haha i was so frustrated i just looked it up. thanks, i was freaking out about that. and i still think you like coberst more '
p224
ag3
aa(lp225
S'Sarah Conner Chronicles canceled  -- http://tinyurl.com/onn5gd'
p226
ag3
aa(lp227
S'something in my hall smells and the smell is reminding me of Tokyo and making me a bit  sad '
p228
ag3
aa(lp229
S"Sitting in the urgent care center waiting on mom and daddy to come back out with nate. Baby brother isn't feeling great. "
p230
ag3
aa(lp231
S'I miss my Friends. I miss Joo and Bitches '
p232
ag3
aa(lp233
S"@mary_tina I could but I think I shouldn't. I have a 7am class tomorrow! "
p234
ag3
aa(lp235
S'@playitagain_sam this sucks '
p236
ag3
aa(lp237
S'Posted 1st Etsy Artist Feature: http://jenellsjewelryblog.blogspot.com/ Need more followers! '
p238
ag6
aa(lp239
S"I didn't want the night to end. "
p240
ag3
aa(lp241
S'oooh razzmatazz and BBQ baked chips are thee best!  thanks love @knoqueturnal'
p242
ag6
aa(lp243
S"@VICnJB123 im sori  HEy He's another word for a butt...plus thats just helpn us girls learn how to chose someone even better next time "
p244
ag3
aa(lp245
S"@stalkerchanning  Just trying to help? Write 'em a nasty letter... Sometimes Twitter is too popular for its own functionality."
p246
ag3
aa(lp247
S'It feels amazing to be able to sleep late.  Yay for weekends and pretty weather.'
p248
ag6
aa(lp249
S':: internets down once more  but gave me enough time to start planning my next move ::'
p250
ag3
aa(lp251
S'@memoirofagaysha Try 7 to 377 '
p252
ag6
aa(lp253
S'@plastichandgun i see. ok '
p254
ag3
aa(lp255
S'Hehe, 2-0 now '
p256
ag6
aa(lp257
S'trying to recover from my adventures with vodka and wii tennis.... good times '
p258
ag6
aa(lp259
S'@purplefae What a shithead. '
p260
ag3
aa(lp261
S'going out now.. missing the pens parade '
p262
ag3
aa(lp263
S'@tuxorhasboobs what happened? '
p264
ag3
aa(lp265
S'in a few minute the power has been stopped. '
p266
ag6
aa(lp267
S'going to sleep gotta get up early and watch the richmond race tonight, but of course work is going to keep me from watching the end of it '
p268
ag3
aa(lp269
S'@Whatakicker thanks. And nope. '
p270
ag3
aa(lp271
S'@dtabachnick OMG are you ok?!?  Is that the glass from your bathroom?  Agh I really thought I cleaned it '
p272
ag3
aa(lp273
S'@Bridget_CooKs Oh no...I meant walking!!! oh dear '
p274
ag6
aa(lp275
S'@tommcfly #TOMEATBRIGADEIRO i can cook for you, if you want  haha love you!'
p276
ag6
aa(lp277
S'Blah  cramps'
p278
ag3
aa(lp279
S'@spike1989 noooo  when do your exams finish?'
p280
ag3
aa(lp281
S"Listening to @mitchelmusso 'hey'. I don't feel lik that right now. "
p282
ag3
aa(lp283
S'When I say Jump, you say how high!! '
p284
ag6
aa(lp285
S'im offcially broke '
p286
ag3
aa(lp287
S'I WANT MY LUUUUUUUUNCH '
p288
ag3
aa(lp289
S'borring wants too go out but no 1 out  how depressing the weathers ok but nothing too do '
p290
ag3
aa(lp291
S'waiting for manang merienda is killing me '
p292
ag6
aa(lp293
S'@rachelgab wow. i have 2. for the longest time, i only had one. but I hate to shop. i may not actually be a girl. hahaha.  '
p294
ag6
aa(lp295
S"@emmaskrnjug Hope it isn't he swine flu  Oink Oink"
p296
ag6
aa(lp297
S"as if the day couldn't get any worse, I ran out of Easy Cheese "
p298
ag3
aa(lp299
S"coincidence that the @katyperry gig was postponed just as adie said she couldn't see me until august, the new date is august25th "
p300
ag6
aa(lp301
S'@skinnylatte @willyfoo i believe willy has a setup something like that.  #awaresg'
p302
ag6
aa(lp303
S'@amyn_8t cus Youre a poor, lonely child  Hahaha! What song is that? I forgot'
p304
ag3
aa(lp305
S"@BoyNamedDavid I want to but Rockky and Dale haven't texted me back. "
p306
ag3
aa(lp307
S'@MinDillard thanks a lot for the #followfriday '
p308
ag6
aa(lp309
S'is leaving portsmouth forever today! '
p310
ag3
aa(lp311
S"@LILthomasWAYNE You realllllllllly just said that didn't you? "
p312
ag6
aa(lp313
S'I have defensive driving class tonight  no so happy!!'
p314
ag3
aa(lp315
S"@WhitPR lol... i've been in Bk for over a year... going on 2 and u haven't come yet!!! "
p316
ag3
aa(lp317
S'Urgh, internet has been slowed down again  How am I supposed to get any research done now?'
p318
ag3
aa(lp319
S" It's an ugly day"
p320
ag6
aa(lp321
S"@francescaa i don't use the tub. it's too small "
p322
ag3
aa(lp323
S'thought..we will all die someday ..thats sad  ..guess we have to enjoy life..'
p324
ag3
aa(lp325
S"@plymouthgooner Don't worry let's tweet about Arsenal who's not signing anyone "
p326
ag3
aa(lp327
S"Awwwww man &quot;he&quot; fell asleep  what's new?"
p328
ag3
aa(lp329
S'Almost finished ikea-ing the pool. Also finished -almost- all 6 crates of beer '
p330
ag3
aa(lp331
S'watching one tree hill   got soaked on the way home even though i had an umbrella '
p332
ag3
aa(lp333
S'Too tired to leave bed. '
p334
ag3
aa(lp335
S'Did u?     RE: TanyaAX: I think I just killed a rabbit '
p336
ag3
aa(lp337
S"Shouldn't have sat down, shattered again "
p338
ag3
aa(lp339
S'I just finnished my amazing Vanilla Bean Frapp made by my girl @kelliebritton! soooo good '
p340
ag6
aa(lp341
S"his sister comes out to see what's goin on and she gives me a death stare lol. Clearly I'm not liked by that fam "
p342
ag3
aa(lp343
S'i miss mcfly  I WANT THEM BACK!!! NOW !!!!!! '
p344
ag3
aa(lp345
S'@rumoko bro, come pick me up and we can go together! '
p346
ag6
aa(lp347
S'Very happy about the traffic on my site www.designforless.eu '
p348
ag6
aa(lp349
S"I'm hungry lol What an annoying backache! awwwww "
p350
ag3
aa(lp351
S'Why does hayfever always play up at night '
p352
ag3
aa(lp353
S'GOOD MORNING TWITTER FAM '
p354
ag6
aa(lp355
S'@beregulina  \xd0\xbc\xd0\xbe\xd0\xb6\xd0\xbd\xd0\xbe \xd0\xb8 \xd1\x82\xd0\xb0\xd0\xba \xd1?\xd0\xba\xd0\xb0\xd0\xb7\xd0\xb0\xd1\x82\xd1\x8c ))'
p356
ag6
aa(lp357
S"The rub is that i can't touch any of the felt sculpture @ the cooper-hewitt. "
p358
ag3
aa(lp359
S'Eatting bacon pizza now...super hungry '
p360
ag3
aa(lp361
S'@senor_carlos  lol....that is silly.  '
p362
ag6
aa(lp363
S'friends cant spend the night '
p364
ag3
aa(lp365
S"Animated gems#19 'Dimensions of Dialogue' by Jan Svankmajer. Surrealist veg-e-mation extravaganza!  http://is.gd/13hDd"
p366
ag6
aa(lp367
S"@HappyMomAmy No... sadly I haven't heard back yet... I may pitch it again to a different person next week "
p368
ag6
aa(lp369
S'@razorbackrandy If I am... so are U, my friend.  HA!  But the thing is... WE make old look GOOD!  '
p370
ag6
aa(lp371
S"Heeeey!! i'm listening now to the new single &quot;its alright its O&quot; by ashley tisdale and it totally ROX!! she's awesome "
p372
ag6
aa(lp373
S'@DarynTufts  Welcome! @alyssa_milano speaks highly of ya! '
p374
ag6
aa(lp375
S'And I have no power at my house due to the storm '
p376
ag3
aa(lp377
S'@crazytales how mean  I hope u have a good bday though.'
p378
ag3
aa(lp379
S"@MsBunni LOL that will be you cuz my bedroom set won't be ready til the end of the month, and I can't have a party in an unfinished apt "
p380
ag3
aa(lp381
S'@zackdft So are we!!!! They better be writing new songs for us!  Unless it was a coincidence, in that case get some food.'
p382
ag6
aa(lp383
S"Not feeling well* wish it would stop rainging! Maybe I wouldn't feel so groggy! "
p384
ag3
aa(lp385
S"I'm starving!! This diet is killing me but I can't eat after 8pm "
p386
ag3
aa(lp387
S"@martinroyds morning mate, you don't seem to be in the best of moods, woke to a stream of twitter texts from you being "
p388
ag3
aa(lp389
S'my iPod touch keeps freezing '
p390
ag3
aa(lp391
S"wondering whether my class is actually running, or if i've stayed at uni an extra hour for no reason "
p392
ag3
aa(lp393
S'@RosemaryConley I love love love! M&amp;S food shops, they do the most loveliest fruit &amp; veg! yum. I hope you enjoyed your hair apt. '
p394
ag6
aa(lp395
S'carless  AGAIN.'
p396
ag3
aa(lp397
S"@Nia78 I'm pretty good about to lay it down in a sec . Had a long day &amp; night  Thanks for asking . And you ?"
p398
ag6
aa(lp399
S'waiting on this steamed shrimp... daydreamin and thinkin of him! I know my babe is NOT eatin this good rite now...  Damn Airforcers LLs'
p400
ag3
aa(lp401
S'@lalulorlor I wish I could just drive to new York. '
p402
ag3
aa(lp403
S'All of my posters and photos are down now except jb rolling stone! Byebye funny little joe pics and notes from @karinaemma '
p404
ag3
aa(lp405
S"SAT II. much more focused. let's hope for no modern history "
p406
ag6
aa(lp407
S'Ahhh algebra, english honors, and biology finals today '
p408
ag3
aa(lp409
S'@ABeautifulMind1 haha. i like that '
p410
ag6
aa(lp411
S"@matty_clark @bryangwin you guys need to come back to socal again. it's been foreverrrr!! "
p412
ag3
aa(lp413
S'@Grooveecar  hope u find it soon'
p414
ag3
aa(lp415
S"My eyes are stinging &amp; my belly is killing. All I wanna' do is sleep + take your money "
p416
ag3
aa(lp417
S"@sarah_janes I've made about 10 bucks so far, its been slow too "
p418
ag3
aa(lp419
S"Man, I really hope they aren't done in 10 wks  ONE MORE SHOW ONE MORE SHOW! no more roadtripping 4 this girl    so they hafta come here"
p420
ag3
aa(lp421
S'@Conscious I love people that love me '
p422
ag6
aa(lp423
S"its mid-day!! just woke-up!! Had a beautiful dream! Can't help smiling!! "
p424
ag6
aa(lp425
S'@sunbot sorry to hear you are sick.. hope you get better '
p426
ag6
aa(lp427
S'My dad is cooler than your dad. My dad gets to meet the president on Thursday. '
p428
ag6
aa(lp429
S"@Odrep that's great to hear. family members are out now. Tib and McB are together in LA, El's still in France I think. Bug's studying "
p430
ag6
aa(lp431
S"I haven't unpacked my suitcase yet and I just spilled juice on my last pair of clean jeans  - Laundry just became official!"
p432
ag3
aa(lp433
S"@SEXYTIMElove actually i didn't even see him @ church today "
p434
ag3
aa(lp435
S'@AnneAAM have u listen to the clip David confirming bout his album? eh? albums to be precise. '
p436
ag6
aa(lp437
S'@bagfetish well hope we both sleep better 2 nite!! '
p438
ag6
aa(lp439
S'twitter is wack yo. but im bound by boredom. '
p440
ag3
aa(lp441
S'@benjibrum what pigs?! where ARE you! '
p442
ag6
aa(lp443
S'@SoCal Trip Members. Please bring a sleeping bag or blanket AND a pillow please '
p444
ag6
aa(lp445
S'Thrift store shopping with my baby soon '
p446
ag6
aa(lp447
S'my computer is acting weird and now its deleting all my files today is not gonna be a good day '
p448
ag3
aa(lp449
S'@woaiberry123 awww can i eat with you guys too? '
p450
ag6
aa(lp451
S'Listening to: &quot;Jack Penate Have I Been A Fool Music Video on IMEEM Video&quot;irony...  ( http://bit.ly/12yxa2 )'
p452
ag3
aa(lp453
S"@strangetymes awesome!2 months!..but i go on holiday with some friends so..that's 10 days less,and on camp,thats another 10 days "
p454
ag3
aa(lp455
S'@FrankRamblings Yes Babby steps for eating meat. Too much meat makes me ill  I miss meat so much!'
p456
ag3
aa(lp457
S'@hortovdaciti I hear you love...same here '
p458
ag6
aa(lp459
S'@keeperofdreams Awesome...........finally..........good work!................ '
p460
ag6
aa(lp461
S"@TheRealJordin awe I met you today with kidkradic and I didn't get to take a picture with you  I'm like so heartbroken but happy I saw you"
p462
ag3
aa(lp463
S'@UlteriorAvesha good night '
p464
ag6
aa(lp465
S"WHY have twitter done the 'fix'?? Why........ "
p466
ag3
aa(lp467
S'Just finished updating my myspace page, with pictures of my baby... he is such a cute kitten, he cries when he wants his mommy! '
p468
ag6
aa(lp469
S'@nandiaramos *comes in rattling pots and pans and then quick;y regrets it* My heeaaaaadddd '
p470
ag3
aa(lp471
S"@buckhollywood I'm watching my Will &amp; Grace DVD's! And eating a lean pocket! "
p472
ag6
aa(lp473
S'new video up soon...sorry for the delay  . -lindsay'
p474
ag3
aa(lp475
S'@RMNH thnx for video! '
p476
ag6
aa(lp477
S'@JustA_Girl go join them '
p478
ag6
aa(lp479
S"just watched the women. cute! who didn't like it... men? pshawww. i saw the play last year too, love the idea of all women. liberating! "
p480
ag6
aa(lp481
S'is having an intense fat day '
p482
ag3
aa(lp483
S'@totalrapture Just commented your post - I liked that entry '
p484
ag6
aa(lp485
S"@ddlovato listening to your song don't forget. It's my favorite off your album. "
p486
ag6
aa(lp487
S'Listening to song that bring back memories  and chatting with repo friends'
p488
ag6
aa(lp489
S'@bets_carabuena dear! sa friday pa dito  thursday ang game '
p490
ag6
aa(lp491
S"@amymarie2534 Oooooh I can't wait. Have a good one darlin' "
p492
ag6
aa(lp493
S"@LucieMinor I Am SOOOOOOOOOOOOOOO jealous  wants to go beach. :'("
p494
ag3
aa(lp495
S'looooooooong day at work .. glad I have my 4th Twilight book '
p496
ag6
aa(lp497
S'@Fallen_Reason heh I know feeling '
p498
ag3
aa(lp499
S"When life hands you lemons you should make lemonade, right. But what if you feel that making lemonade won't make a difference? "
p500
ag3
aa(lp501
S'Good Morning everyone! Ready to start another exciting week. What? 59 degrees outside???? '
p502
ag6
aa(lp503
S'nothin on msn and talkin to people!!! '
p504
ag6
aa(lp505
S'@_amberlovely as in sicky sick, yeah '
p506
ag3
aa(lp507
S'I have an ear infection    so I played hookie from work and here I am a twitter-holic lol'
p508
ag3
aa(lp509
S'@megansu anytime miss Su. '
p510
ag6
aa(lp511
S'@AFineFrenzy wich colour do you painted your nails  ?'
p512
ag6
aa(lp513
S'http://twitpic.com/6q1hs - Fav of the day '
p514
ag6
aa(lp515
S"@LISAAASTHOUGHTS we're so coolish  hahaha, that is my new favourite word! "
p516
ag6
aa(lp517
S"Hi @NameCheap - out of interest what is the rule of you mis-spell something and re-enter your answer? I've done it twice in 24 hr "
p518
ag3
aa(lp519
S"Feeling really good- had a great workout  Now tackling these Sunday chores. Waiting for my personal assistant's @MissMillions assistance!"
p520
ag6
aa(lp521
S' i got yelled at 4 helping the cats by my neighbor'
p522
ag3
aa(lp523
S'has her maths exam this morning '
p524
ag3
aa(lp525
S'is looking at a blackberry curve 8900 '
p526
ag6
aa(lp527
S"@z0mbie_ I'm en route to the bar. No one wants to stop to the mall "
p528
ag3
aa(lp529
S'doing assignment .. due monday so i can watch my bf tomorrow '
p530
ag6
aa(lp531
S"@lastyearsgirl_ I think so. She's got a strange look in her eye. I kinda half wanted her to come out with her cat tonight, crazy cat lazy "
p532
ag6
aa(lp533
S'Have to take macbook in for service  The encasing broke. AGAIN. Guess I will have to work on windows for the remainder of the evening '
p534
ag3
aa(lp535
S'First tweet of the day is a rant at the stupid bus driver who was not gonna accept my ticket till I kicked up a fuss!!! Mean man! '
p536
ag3
aa(lp537
S'@MelissaGuei I wish I had korean bbq... all I had for dinner was a turkey sandwich  I feel poor'
p538
ag3
aa(lp539
S"@esoterismo You're welcome. "
p540
ag6
aa(lp541
S"@teajeni Am useless at stuff like that - can't do pastry or bake cakes "
p542
ag3
aa(lp543
S'I am heartbroken '
p544
ag3
aa(lp545
S'18 degrees at 10 in the morning, home office is like a sauna! Pulled several different muscles yesterday. '
p546
ag3
aa(lp547
S'oh where, o where, did my Buhbie go? oh where, oh where, can he be? back down to 161 folks '
p548
ag3
aa(lp549
S"Holy shit!?! 01.25am and I've got school tomorrow? :o I think I have to drop Heroes today!  where did the time go? Goodnight then xx"
p550
ag3
aa(lp551
S'@daphnemaia Guten Appetit  Have a good time there. The pineapple is simply divine.'
p552
ag6
aa(lp553
S"@pipupipu That's twitter client for Nokia fones "
p554
ag6
aa(lp555
S'@brianna_v Haha I bet you are uber happy about that '
p556
ag6
aa(lp557
S'@princessa_the1 congrats on getting your paper in  em is going to join us at robarts later...the more the merrier, even if its em :p'
p558
ag6
aa(lp559
S'just had a shower, so shes nice and clean '
p560
ag6
aa(lp561
S"@backpedalling @katherinekenny Recently bought everything by them on iTunes. Well worth it. Playing Electric Picnic but I'm not going "
p562
ag3
aa(lp563
S"RIP Acer Aspire 2010, you've been great to me for 4 years of my undergrad! Everyone say bye to lappie! "
p564
ag3
aa(lp565
S"@KeatWave We purchased PS3, had PS2 before that, &amp; then won the Xbox so I'd consider myself unbiased &amp; Xbox just blows the PS3 away sadly "
p566
ag3
aa(lp567
S"sad then @kennykillah didn't send me a morning email "
p568
ag3
aa(lp569
S'God I wish I could sleep more than 3 hours a night after I go out '
p570
ag3
aa(lp571
S'@casiestewart I dont know how to drive a stick OR auromatic lol '
p572
ag3
aa(lp573
S'@silvermarquis Sure thing.    We can also compare notes between sessions.'
p574
ag6
aa(lp575
S'@tommcfly Why did he have to kiss her?? And I wish if he did have to kiss her it was me '
p576
ag6
aa(lp577
S'@jimmyfallon you are doing an amazing job with the show, keep up the great work! you always make me laugh no matter what '
p578
ag6
aa(lp579
S"Can't wait for Toy Story 3 too. LOL "
p580
ag6
aa(lp581
S'@TEYANATAYLOR yeahhhhhhhh!!!!!!!!!!! lmfaoooooooooooo kobeeeeeeeeeee '
p582
ag6
aa(lp583
S'@spaceisgood Hey, some really great shots! Well done! '
p584
ag6
aa(lp585
S"I've got three other days not in school, and this means much science h/w from mcguinness. "
p586
ag3
aa(lp587
S'man.... cant just have this sitting around. bout to go lay it down. heading to the studio in a few. [ yes. im still in ATL] see about me. '
p588
ag6
aa(lp589
S'@scarletmandy well you are far to kind! and THAT is why I LOVE you  So when are ya coming to Toronto so I can LIFT you?'
p590
ag6
aa(lp591
S'@casparterhorst put in your fakes and receive reals  fresh money is popular in China, especially around NY, so change old notes for new.'
p592
ag6
aa(lp593
S"@trixie360 I'm glad I could have breakfast with you sweetie. "
p594
ag6
aa(lp595
S'flying to Dorchester all on my own '
p596
ag6
aa(lp597
S"Looks like it's going to storm. No bike to work "
p598
ag3
aa(lp599
S'this day turned into not such a good day. tear '
p600
ag3
aa(lp601
S'i HATE working out  i feel like crying when i do it :L:L:L so tireed and hungry now  woooo foood'
p602
ag3
aa(lp603
S'@jennydavis LOL! I thought that was a NY accent he picked up from all those years out there. '
p604
ag6
aa(lp605
S'@stonernation Wait I posted my post 7 minutes ago during the first.. does it make it invalid? You just announced it 27 minutes ago '
p606
ag3
aa(lp607
S'@Daxter80000 oh okay.  I got scared in the hospital morgue. I swear I heard someone grunting.'
p608
ag6
aa(lp609
S'@dorkexposed thanks.... I do take my drinking seriously when I do   the days of cheap ass beer are long gone'
p610
ag6
aa(lp611
S'Walking w jacks n alexis! No salsa lessons today!!! Ahahahhaha '
p612
ag3
aa(lp613
S"@Psychic09 Oh ok, then don't worry about it if you can't see anything. "
p614
ag6
aa(lp615
S'Getting ready for work 830am-130pm. And then class at 4. How DO I do it folks '
p616
ag6
aa(lp617
S"@kellyhines I'm on episode 5 of Lie to Me! It really is a very good show  Thanks for the suggestion!"
p618
ag6
aa(lp619
S'@chelleysmiles come come saturday.  if you guys can. '
p620
ag6
aa(lp621
S"We are headed up to Fremont today. Tomorrow is the viewing and then Tuesday is my Grandpa's funeral. It'll be a rough couple of days. "
p622
ag3
aa(lp623
S'Repos update always takes time when you are in hurry.. '
p624
ag3
aa(lp625
S"I'm eating now ...ouch my stomach hurts "
p626
ag3
aa(lp627
S'shower...ride to buggy... '
p628
ag6
aa(lp629
S"decided to go with soup cos the final ingredient i have, blackberry sponge pudding mix, doesn't go with my others "
p630
ag6
aa(lp631
S"Redbox, Hardee's and then home! "
p632
ag6
aa(lp633
S'I Really Wanna Go Bowling '
p634
ag3
aa(lp635
S'Goodafternoon twitter fam '
p636
ag6
aa(lp637
S"@stratosphear I missed this tweet.. but I understand. I'm being prodded by others  they are obviously not in favor, no mat'r whats said"
p638
ag6
aa(lp639
S"ugh. only half way home and we have been driving for ages  and macca's internet is sooo slow"
p640
ag3
aa(lp641
S'looking forward to karaoke session after work today ^^ no swimming this week '
p642
ag3
aa(lp643
S"I swam. It hurts. It's a good kind of hurt. Apart from that. That's the bad kind of hurt. owwww "
p644
ag3
aa(lp645
S'my mum was doing waitressing last night @ a wedding,julian rhind-tutt aka mac from green wing was a guest there! i have his place name '
p646
ag6
aa(lp647
S'I miss everyone from K4 '
p648
ag3
aa(lp649
S'@Hedgewytch @exsanguinator loves all things scifi fantasy and comics so should be able to engage over such things as well as being a geek '
p650
ag6
aa(lp651
S"me and jesse just made the most delicious cup cakes! ...combined with criminal minds s3 and coffee and i'm in my happy place "
p652
ag6
aa(lp653
S'@PJA4ever kl ok,  yay GO GO Paula , thank u'
p654
ag6
aa(lp655
S'I am realising I know nothing of popular culture - hahaha '
p656
ag6
aa(lp657
S"@rxrrazorblade Poor you.  I just finished work. You'll get through the day."
p658
ag3
aa(lp659
S"@tennisDijana That's it! FEDERER's the CHAMP!  6-1; 7-6; 6-4"
p660
ag6
aa(lp661
S'@Mattdavelewis Awesome new picture '
p662
ag6
aa(lp663
S'people make me smile. '
p664
ag6
aa(lp665
S'@NUfBXH Thanks '
p666
ag6
aa(lp667
S'man man man ....   R.I.P. TO MY 4th 360 And ED MCMHAN .... or however u spell the las name Sorry!! lol'
p668
ag3
aa(lp669
S'This day is a total let down. '
p670
ag3
aa(lp671
S'@courtneyjayneee preety keen for snuggles/big spooning...its soo cold out.!  what you up too fangz? '
p672
ag6
aa(lp673
S'@ddlovato R u doin the brimingham(uk) concert with the jb ? cuz i wana cum c u in concert so bad but u ent doin concerts in the uk '
p674
ag3
aa(lp675
S'interview this evening '
p676
ag6
aa(lp677
S'@ksaim @jasonloucks It was self assigned homework. Gotta stay on top of things. '
p678
ag6
aa(lp679
S'my grandparents are leaving today. '
p680
ag3
aa(lp681
S"so hungry! but there's no food "
p682
ag3
aa(lp683
S'Just arrived at school... Late again '
p684
ag3
aa(lp685
S'gorgie- why do you swear, me- BECAUSE. ur reaction to it is funny  gorgie then got a pissed off face and chased me round the house '
p686
ag6
aa(lp687
S'@LeighanneReena Thats great Brian came home. My husband is deploying for 4 months come June 8th. Not looking forward to that. '
p688
ag3
aa(lp689
S'today has not had a good start but i think itll get better. im hopeful '
p690
ag6
aa(lp691
S'@avl94 Surprising? Am i that bad  haha.'
p692
ag3
aa(lp693
S'Vital Information #2: Space travel will make people ugly  http://tinyurl.com/p3u8n3'
p694
ag3
aa(lp695
S'@geri1980 oh yeh it will be eh. i cant wait '
p696
ag6
aa(lp697
S'Awww my Whitestrips are not staying on '
p698
ag3
aa(lp699
S'All folk are speaking about is theman found dead on highstreet '
p700
ag3
aa(lp701
S"@itszMC I am going to Fairfax, VA.. probably nowhere near where you'll be   It was so great to meet you in Lancaster!!!"
p702
ag3
aa(lp703
S"Don't like black used as base (for most cases)... It's sinister  and it's hard for the eyes to relax - the readability's compromised..."
p704
ag6
aa(lp705
S'@whelming lol ok then ...im guessing she didnt. lol..i have forgoten to come on here :O im a bad tweeter.. '
p706
ag3
aa(lp707
S'@MissKatiePrice DId u enjoy the fashion sohw was it fun  x'
p708
ag6
aa(lp709
S'what do you think?  Hum........workin.....  '
p710
ag3
aa(lp711
S'I hear the ice cream man!!!!!!!  and its actually going slow!! '
p712
ag6
aa(lp713
S'@rxmxa sad, we never see Dan Dance anymore. '
p714
ag3
aa(lp715
S"@topdan Oh heck no shame Nev.  Tx for playing The Love Game by Lady Kaka tho... it's a fun song. ;-) Hope the queues are short! xx"
p716
ag3
aa(lp717
S'\xe2\x99\xab Working on a new Single for someone speshull ^^ Shhhhhhhhhh...should be done by today  http://tr.im/nyfY'
p718
ag6
aa(lp719
S"@TiphTiph I'm fine.  Did a crazy dip last night and a back muscle went, quote, &quot;sproing&quot;. But ice and a good night's sleep worked OK."
p720
ag6
aa(lp721
S'Missed all my Sunday night cartoons as the parents and myself were hanging my ceiling fan '
p722
ag6
aa(lp723
S'We lost  . what a day.'
p724
ag3
aa(lp725
S'@rapslikeportman BK sounds hella good  can we go after 6 ?'
p726
ag6
aa(lp727
S'Sooooooooooooooooooo cold '
p728
ag3
aa(lp729
S'Ah crap, work is becoming more difficult. Nethack and TV off to the side now '
p730
ag3
aa(lp731
S"I'm confused as to what to do with twitter haha "
p732
ag3
aa(lp733
S"is so very very tired, but can't sleep after a creepy day.  Meanwhile Abby is snoring it up  lucky dog!"
p734
ag3
aa(lp735
S'looking forward to June 12th '
p736
ag6
aa(lp737
S"Ok its 5am n I can't go to sleep!! Ugh!! Gotta be up in 4 hrs!! "
p738
ag3
aa(lp739
S'@trayceeking Wish you were here!  '
p740
ag3
aa(lp741
S"2.12am and i'm still doing my work. must wake up on time tomorrow "
p742
ag3
aa(lp743
S'likes the lyrics and is moving to the music...  '
p744
ag6
aa(lp745
S'well,i finished taking care of grandma. now,im relaxing in my room as im listening to music '
p746
ag6
aa(lp747
S'Weather is AWESOME in Phoenix!! Heading to First Friday '
p748
ag6
aa(lp749
S"is heading to bed - going to the silent breakfast in Edmond in the morning, then Ri's Peter Pan Production week begins "
p750
ag6
aa(lp751
S'@Rachecullen  *Hugs* '
p752
ag6
aa(lp753
S"@CherilynnKaye a family party but didn't invite family "
p754
ag3
aa(lp755
S'is getting teary-eyed because of GLOOMY SUNDAY... dang this song is so depressing... '
p756
ag3
aa(lp757
S"@rlich8 did you get any? My friend tried for us since I'm on the road...struck out "
p758
ag3
aa(lp759
S'@MikeDriehorst Always thinking....this is actually going somewhere. '
p760
ag6
aa(lp761
S'thundering again  glad i ran earlier'
p762
ag3
aa(lp763
S"i'm thinking kris allen has more talent than he's getting credit for,i wish he'd win ai, doubt he will. "
p764
ag3
aa(lp765
S'picking up my wardrobe '
p766
ag6
aa(lp767
S'@DonnieWahlberg i wont b  lol x'
p768
ag3
aa(lp769
S'yeah my ish is on the radio..silversun pickups i want to see them live  http://sml.vg/Bk2rXQ'
p770
ag3
aa(lp771
S'Real world is lonely at 4am when you wanna talk to people about your day '
p772
ag3
aa(lp773
S'work gets crapper and crapper every day '
p774
ag3
aa(lp775
S'@ladygagafan1 the stuff that you keep a secret.  once again, im not keeping up with replies. im lammmmmme!'
p776
ag6
aa(lp777
S'@Joecas71 Can I come? '
p778
ag6
aa(lp779
S"Can you believe it:Tomorrow Night will be Jay Leno's last episode of the Tonight Show  I encourage everyone to watch it and welcome Conan."
p780
ag3
aa(lp781
S"@siana_mia Hi sweetie! Great morning here! I hope you're having a good day too. "
p782
ag6
aa(lp783
S"@EczemaTreatment Yeah, a steroid cream and a moisturiser. It does help a bit but I'm still left with it on my arms. "
p784
ag3
aa(lp785
S"Really hoping Watase decides not to kill off my bb Tomite first and that he ends up with Takiko.  I'm so ~delusional..."
p786
ag3
aa(lp787
S'i hope my best frand doesnt move to kenucky!!!! '
p788
ag3
aa(lp789
S"Oh what a busy day this is going to be  now it's time for graduation practice!"
p790
ag6
aa(lp791
S"Morning everyone  looks like it's gonna be nice out today "
p792
ag6
aa(lp793
S"@missjorge you are going to have the most amazing time and accomplish so much while you're over there - i only wish i was coming with you "
p794
ag3
aa(lp795
S'@lucy1568 yeah i looked bad in thht one ! '
p796
ag3
aa(lp797
S"@fia_PWNS I'm so sorry that happened  That's TERRIBLE.  I &lt;3 you!"
p798
ag3
aa(lp799
S"@LorrainesLife watch out for the rusty chain - my 2 week old chain wasn't happy when i didn't clean it "
p800
ag3
aa(lp801
S"You start to see who cares and who doesn't. "
p802
ag6
aa(lp803
S'@Tcell1 -- . Yes '
p804
ag6
aa(lp805
S'Discussing with @ellewhite who should get Carlisle and who should get Jasper '
p806
ag6
aa(lp807
S'Just got done talking about how delicious sweet tea is... And I want some now... Pronto!!!! '
p808
ag3
aa(lp809
S"@venessagarza omg some how I'm sick or allergies or something was not up to partying on strand can't breathe  hows Arizona?"
p810
ag3
aa(lp811
S"have an overwhelming urge to shout 'MOVE IT, MOVE IT, MOVE IT' through a megaphone while standing up in an open topped jeep "
p812
ag6
aa(lp813
S'done packing for Baton Rouge, ready to leave '
p814
ag6
aa(lp815
S"@ jenjele thanks i hope so tooo! i can't believe you guys are graduating tomorrow...ahh "
p816
ag3
aa(lp817
S"@bjornyeo yeah  it's way more fun being &quot;hot, hot, hot&quot; in Boracay than Sg"
p818
ag3
aa(lp819
S'probably batting for other team '
p820
ag3
aa(lp821
S'@chandlervdw I was going anyway, but now...can I smack you with a big PC tower?   #Ta5'
p822
ag6
aa(lp823
S'@stacey79 ...I guess Booth decided to go home...yeah in the middle of the night...hello...so stupid...but yet I still watch... '
p824
ag6
aa(lp825
S"@gerimoran Re the kid kissing the pig - I would have stopped the kid just for the pig's sake. "
p826
ag6
aa(lp827
S'Goood night twweeeterr!! I just ate so much my tummy really hurts!  !'
p828
ag3
aa(lp829
S'@jshe lolz '
p830
ag6
aa(lp831
S'@clarisseCHICKEN aim, please '
p832
ag6
aa(lp833
S'@ANF16 ur silly. '
p834
ag6
aa(lp835
S'why am i alot sicker today than i was yesterday?  if i was this sick yesterday i wudda been able to miss school. . .'
p836
ag3
aa(lp837
S"@chrisdejabet http://bit.ly/KDkvO  twitter can't tell time  #getoffmylawn"
p838
ag3
aa(lp839
S"@persiflage It's not just you. "
p840
ag3
aa(lp841
S'going out is too much effort man  damn this week!!!'
p842
ag3
aa(lp843
S'Just got up getting ready for school '
p844
ag3
aa(lp845
S'Without electricity for 9hrs and counting '
p846
ag3
aa(lp847
S"@gmgcam sounds like a great day  Today I'm waiting for a friend, he looks after my Computer &quot;problem&quot; and I want to learn for some exams"
p848
ag6
aa(lp849
S'heigh-ho, heigh-ho, to feed the hungry i will go!!! want to join?  Hit me up! (214) 317-0485  @ Cathedral Of ... http://loopt.us/UjcNkw.t'
p850
ag6
aa(lp851
S"@pugofwar It Sucked and then I Cried by Heather Armstrong. It's no Twilight  What book are you on now?"
p852
ag6
aa(lp853
S"let's all think about @randomflowers who is today going to secure her place at her first choice uni "
p854
ag6
aa(lp855
S'What a great weekend.... and now im abusing my brothers new laptop... and this is my 500th twitter..... '
p856
ag6
aa(lp857
S"@joshcook83 Weird, huh? I guess my mind's in the gutter. "
p858
ag6
aa(lp859
S'@juliesauce why thank you '
p860
ag6
aa(lp861
S'@ChristinaGayle I was recently at a local event where @zarbees was talking about  a mom who took the medicine. just found out it was you! '
p862
ag6
aa(lp863
S'@Earl52 Tell us what fire ants are then maybe we can come up with suggestion '
p864
ag6
aa(lp865
S'hates Live being down, at least I have Broken Steel to support me. I miss World at War '
p866
ag3
aa(lp867
S"@coreyperlman I would if I could, it's for my husband and I'm not excited about the plans! But we've put it off for 2 Fridays now. "
p868
ag3
aa(lp869
S'Is tired but so much to do '
p870
ag3
aa(lp871
S'Afternoon folks!No tweets from me yesterday due to my excruciatingly painful sunburn  I officially hate the sun,bring back the rainy days!'
p872
ag3
aa(lp873
S'Somewhat dreading my graduation ceremony. '
p874
ag3
aa(lp875
S'Ahh Graduation was The BESSt!! wooot-woot  Cant Wait For Summer!'
p876
ag6
aa(lp877
S'my laptop is now somewhere. but not here.  hopfully it will get fixed.'
p878
ag3
aa(lp879
S'is now stressed about history  GREAT'
p880
ag3
aa(lp881
S'Sitting in a dentist chair getting two cavities filled  I am very unhappy'
p882
ag3
aa(lp883
S'@cherry_darling haha i agree.. @GamerManiac512 see gamer naps are nice '
p884
ag6
aa(lp885
S'@langfordperry The reader was good..................Im still traumatized '
p886
ag6
aa(lp887
S"Alright, can't do much with this fuckin' headache so I'm just going to pass out. Agh, paaaain. "
p888
ag3
aa(lp889
S'its that time of month again... newsletter writing time  it always makes me so sleepy!'
p890
ag3
aa(lp891
S'just finish doin a mile... its officially my everyday routine '
p892
ag6
aa(lp893
S"@gerdaduring LOL, so ur 'supervising' and providing encouraging support then. Like your style "
p894
ag6
aa(lp895
S"@allisondean hmmm nope, but I'll look it up on iTunes  thanks for the recommendation!!!!"
p896
ag6
aa(lp897
S"@evanslusher - I'll take mine medium-rare please.  With mustard on the side.  Thks!  "
p898
ag6
aa(lp899
S'hmmm. should i take a nap and then watch the MTV movie awards?? ... dont think sooo  way too tired. its 1:27am'
p900
ag3
aa(lp901
S'&quot; And how you can find love in un-expected places, and how best friends can become un-familar faces&quot;-Lina Reaffalli  it saddens me '
p902
ag3
aa(lp903
S'Oh my god I am addicted to tweeting already '
p904
ag6
aa(lp905
S'dad took max for a walk '
p906
ag6
aa(lp907
S"@ldntown yes, i'm very happy to be coming up there. i miss u &amp; arch &amp; lady barksalot. "
p908
ag6
aa(lp909
S'@YoungQ I told you we will go thru a 12 step tweeting program. '
p910
ag6
aa(lp911
S'wish this stupid flu would go away already! ; doctor didnt help it at all '
p912
ag3
aa(lp913
S"just woke up and I am wishing today wasn't suck a busy day      Too much to do"
p914
ag3
aa(lp915
S'is gutted that the GreenDay RockBand is only down load and 3 song waz hopein for a sepcial addition full on GreenDay RockBand game '
p916
ag3
aa(lp917
S"I barfed on the floor and Momma is mad.  I'm sorry, Momma, I'm sorry.  "
p918
ag3
aa(lp919
S'@StephanieFrank total synchronicity my friend - I was JUST looking at your name on my calendar this week &amp; smiling. '
p920
ag6
aa(lp921
S'riding in cars with boys... my pinched nerve is killing me '
p922
ag3
aa(lp923
S'Thats was ment to be really like, with a space in the middle '
p924
ag6
aa(lp925
S"@SimplySib oh the joys of stalking people....seriously it just becomes easier and easier. Booo Jimmy Carr didn't reply to you "
p926
ag3
aa(lp927
S"I've got something to say... "
p928
ag6
aa(lp929
S"i was just kicked out of @youripoddoc 's live chat for doing nothing "
p930
ag3
aa(lp931
S'@DiannePulham OOOOOOOO who with? (im not neither but thats because i need to study  )'
p932
ag3
aa(lp933
S'I am sooo hungry!! 2 hours till my next meal '
p934
ag3
aa(lp935
S"@questlove wait..how can you, if i'm here? "
p936
ag6
aa(lp937
S'Sad making! Bought Guitar Hero Metallica for my hard working soldier and it is not reading disc! '
p938
ag3
aa(lp939
S'@aileen2u2 I have permanent bad hair whatever the weather '
p940
ag6
aa(lp941
S'The Purple Turtle was VERY dark last night. I got some good videos of the bands but they are a bit dingy  Will upload later.'
p942
ag3
aa(lp943
S'just watched the new moon trailer, i like it '
p944
ag6
aa(lp945
S'setting up my music youtube '
p946
ag6
aa(lp947
S'@Dunkndisorderly Who the HELL is Duncndisorderly? '
p948
ag6
aa(lp949
S'Bored and tired + my ipods nearly dead and the charger is at home '
p950
ag3
aa(lp951
S'@LittleFletcher http://twitpic.com/6go2v - haha hlove your face!  and your hair is AMAZIIIING *----*'
p952
ag6
aa(lp953
S'I wish Scotland was going to the World Cup next year in South Africa - we need a miracle    #England'
p954
ag3
aa(lp955
S"@philaskew rocks doesn't it? i'm pretty much on @evernote 24x7x365 follow them too for ron's tips every few days "
p956
ag6
aa(lp957
S'off to work '
p958
ag3
aa(lp959
S"@MissysNoAngel aaahhh ok, i'll check that out, thanks! "
p960
ag6
aa(lp961
S'@JonDoll thank u I can always count onuto make me smile  x x'
p962
ag6
aa(lp963
S'turkey sandwich, rocky road and a rocket to the moon make revising seem tolerable '
p964
ag6
aa(lp965
S'@walthern thanks for your welcoming '
p966
ag6
aa(lp967
S'hair and makeup '
p968
ag6
aa(lp969
S"LOVED worship practice today! Lenny, Kelsey, Woodward &amp; Jordan- you rock! Now i'm at work.. Total damper on my good day "
p970
ag3
aa(lp971
S'Good Morning All '
p972
ag6
aa(lp973
S'It would be perfect if @mitchelmusso @mileycyrus @themasonmusso and @tracecyrus ALL touring together! '
p974
ag6
aa(lp975
S'Bacardi &amp; fruit punch.... wtf did Moob give me? Lol. &lt;333 WEEE! Mobile party to the Gates of Hell tonight '
p976
ag6
aa(lp977
S'Still at work. '
p978
ag3
aa(lp979
S'@jordanknight I voted Love ya guys. Love Renee '
p980
ag6
aa(lp981
S'Need to buy a bluetooth device for machine '
p982
ag3
aa(lp983
S'@mollydaniele you need an Edward '
p984
ag6
aa(lp985
S'Backing up your iphone cannot be more boring and annoying!!! '
p986
ag3
aa(lp987
S"@onetootwee That's cuz you are the amazing "
p988
ag6
aa(lp989
S"@Preaka Hey  I kind of am, I'm listening to Coldplay and just a bunch of stuff. Hope you have a great weekend "
p990
ag6
aa(lp991
S'So proud of @henrygerson for his decision to be under water. Congratulation!! '
p992
ag6
aa(lp993
S'Damn!!!!! Why did I have to have a good heart..... I gave up the big room!!!!!!!! '
p994
ag3
aa(lp995
S'@heybobnanna I tried to go, but it was sold out  Like early this week too! Have fun!'
p996
ag3
aa(lp997
S"@thatsjustmee haha i didn't sleep more than that myself  and now i'm at school, i'm sooo bored, and i have 5 hrs left.."
p998
ag3
aa(lp999
S"Haha sister and I were just yelling in anger at the tv so loudly. Puppy did not approve. I can't believe they killed him "
p1000
ag3
aa(lp1001
S"@Darkstallion21 do you mean me? haha, i'm not downtown. i'm at home being a geek and editing photos. NEXT TIME! "
p1002
ag6
aa(lp1003
S'How do you read a book in a day? big or small.... '
p1004
ag3
aa(lp1005
S"@SquareJaw i'm actually having computer problems... not good "
p1006
ag3
aa(lp1007
S'Chillin with Sarahface...Missed her '
p1008
ag6
aa(lp1009
S"N: LOL, ALEX! 'Why is my Bebo in Spanish .. I'M NOT SPANISH, I'M ASIAN.' No shit, Sherlock "
p1010
ag6
aa(lp1011
S"Grrr I got school today  so don't wanna go in :@"
p1012
ag3
aa(lp1013
S"@EvilEmpire It was a shame the way the Yanks lost yday in the last inning, lets' hope they kick ass today. "
p1014
ag6
aa(lp1015
S'@Mastr0 So I was at Hulas Saturday night...not for happy hour though '
p1016
ag3
aa(lp1017
S'I hate days like this! '
p1018
ag3
aa(lp1019
S'@laurennnyo How did i know that was coming !  .......... its better than supporting who you support ;)'
p1020
ag3
aa(lp1021
S'Still home  Going to see Gordon Peterson At the @Newseum on Sunday.'
p1022
ag3
aa(lp1023
S'@ZDAEfron I know '
p1024
ag3
aa(lp1025
S"@drewm Hmmmm, I'll let you away with it this time. I'm keeping my eye on you though. "
p1026
ag6
aa(lp1027
S"I'm going to miss red girl "
p1028
ag3
aa(lp1029
S'WOW!!  had very weird dreams...lol.. KTT I have to tell you about one later...haha   Goin over to KTTS later.. excited '
p1030
ag6
aa(lp1031
S'I cant fall asleep '
p1032
ag3
aa(lp1033
S'Eh. I dont feel so good. '
p1034
ag3
aa(lp1035
S'@Tarale sad! hope you are okay. sounds like you are having a really rough day. '
p1036
ag3
aa(lp1037
S"@AlexAllTimeLow my birthday's wednesday so is my earth science regents. fml. say happy birthday &amp; make it better? "
p1038
ag6
aa(lp1039
S'enjoying time in pennsylvania  fun day at the beach w/the fam'
p1040
ag6
aa(lp1041
S'is distracted from her English essay of doom by ants invading my living room. GTFO you crawly little sods!!! '
p1042
ag3
aa(lp1043
S'just woke up. had a horrible dream about the ocean. will never go to the ocean again. '
p1044
ag3
aa(lp1045
S'@mmitchelldaviss whoa awesome '
p1046
ag6
aa(lp1047
S'@imreallywildin u callin me grimmy '
p1048
ag3
aa(lp1049
S'my dog ran away!  im so sad and lonely!'
p1050
ag3
aa(lp1051
S'@EttejNahgaem your so talented and funny... cant wait for 10 things to premiere '
p1052
ag6
aa(lp1053
S'@Ancheeca Read and replied....love it!! '
p1054
ag6
aa(lp1055
S'NO  stay together, Jon and Kate!'
p1056
ag3
aa(lp1057
S'is getting ready to fly back to the mainland '
p1058
ag3
aa(lp1059
S"arhh, last night. whatta night  love'd it. but feelin' consequences now.  x"
p1060
ag3
aa(lp1061
S"Super pissed. My pedal and pedal board won't be here til next week. Fucking bullshit! my guitar came in 2 days. "
p1062
ag3
aa(lp1063
S'@WeekendPlaybook thanks brother '
p1064
ag6
aa(lp1065
S"Just got done downloading music &amp; My jonas brother cd that I just burned just got stuck in the cd part &amp; won't come out  tinas trying to"
p1066
ag3
aa(lp1067
S"#ilove crossaints &amp; gouda...mimosa and fresh fruit...in  Sanvannah bed &amp; breakfast's   #happiness"
p1068
ag6
aa(lp1069
S'beeeeehh  tired'
p1070
ag3
aa(lp1071
S'forgot my kitchen sink was full of left over sick. I AM NOT AMUSED '
p1072
ag3
aa(lp1073
S'Learning twitter! And rocking out with air1 '
p1074
ag6
aa(lp1075
S"Finallyhome!I was at Princess's casa and it was crowded!ahhh, but i saw @bitetiffanny &amp; others. Fun night! Seee you guys in modesto tmrw! "
p1076
ag6
aa(lp1077
S'Going to guitar center. '
p1078
ag6
aa(lp1079
S'Love the randomness on my way to Morongo Casino '
p1080
ag6
aa(lp1081
S'I just realized why they are called the doobie brothers!!! thanks to charlotte. '
p1082
ag6
aa(lp1083
S"Is watching the Hills finale! It's so sad to see Lauren go! "
p1084
ag3
aa(lp1085
S'i have no idea what to wear to the greek festival tonight '
p1086
ag3
aa(lp1087
S"i'm baaack  8km wuhuu soon i'll finally run 10 "
p1088
ag6
aa(lp1089
S'An F/1.4 prime lens, the easiest way to make a subject pop.  http://bit.ly/q841Z'
p1090
ag6
aa(lp1091
S'@theRemix I know, neither does watching them work out either. '
p1092
ag3
aa(lp1093
S'@om all panels must be 140 words or less '
p1094
ag6
aa(lp1095
S"sitting on bed, packing my clothes, don't know what to pack in ...... "
p1096
ag6
aa(lp1097
S'hmm got in 3 hours ago from drinkin all day, had 1 hours sleep, had a cold shower now its of to college for the day n i feel fuckin great '
p1098
ag6
aa(lp1099
S'at Mandeeeeeeeeees houseeee '
p1100
ag6
aa(lp1101
S'getting on roblox. going to look for something actully fun as a guest as i cant log in and guests cant talk '
p1102
ag3
aa(lp1103
S'@zozzled I once messaged other shardlows on facebook. Never got a response '
p1104
ag3
aa(lp1105
S'@jasmiinel hey! what happen? Anyway, no matter what happen, cheer up okay! Jiayou for CTs! '
p1106
ag6
aa(lp1107
S'ahhh i love waking up on a beautiful morning to the sound of birds chirping and stream flowing '
p1108
ag6
aa(lp1109
S'@sebbity I have tried every combination possible  The order number, customer number, pin number, email :S'
p1110
ag3
aa(lp1111
S'a few chapters in a new book, a big breakfast, and 3 cups of coffee is an excellant way to begin a day '
p1112
ag6
aa(lp1113
S'Working on my world history project, &quot;Ethnic Problems in Yugoslavia,&quot; school in a few hours! '
p1114
ag6
aa(lp1115
S"Ohh by the way man vs wild was amazing!! can't wait to see my loveys tomorrow super excited "
p1116
ag6
aa(lp1117
S"My laconica notices won't sync with twitter.  boo hoo. now im stepping thru the code line by line to fix it. mannnnnnnnnnnnnnnnnnnnnnnnnn"
p1118
ag3
aa(lp1119
S"@xarrrr Who is their support! I can't Wait! Monday is nearly here! "
p1120
ag6
aa(lp1121
S"ughhhh bored, tired, and my head hurts like you wouldn't believe "
p1122
ag3
aa(lp1123
S'Im at my boys wedding and theres nobody here to talk to   &quot;Im TAKEN&quot;'
p1124
ag3
aa(lp1125
S'OK SO W T H MAAN!!!! WHERE IS MY PIC COME ON NOW TWITTER '
p1126
ag3
aa(lp1127
S'@tommcfly the 1st one wont load for us  but i love the pic you had x'
p1128
ag3
aa(lp1129
S"@danielle_kelley I'm at 30 weeks - in the home stretch.  I just dont think the baby realizes this because I'm still getting sick - bleh "
p1130
ag3
aa(lp1131
S"wants to mail @AnoopDoggDesai, @MGiraudOfficial and @DavidArchie. )))))))))) DAYUM. I'M SO BORED. "
p1132
ag3
aa(lp1133
S'Playing a cool surgery game in NDS '
p1134
ag6
aa(lp1135
S"@MasterXell But I like using it... I've been using pidgin for *years*. Oh man, this is so hard "
p1136
ag3
aa(lp1137
S"Where is @jakeofficial....he's definitely been too quiet, miss his tweets!!! "
p1138
ag3
aa(lp1139
S"@1KedUP That's one of my role models!!! I love her  2x for pundits of color"
p1140
ag6
aa(lp1141
S'is gonna miss everyone when they go to ardeche, and i really wish i was going '
p1142
ag3
aa(lp1143
S"Tuned into Radio316's classical music show. Missed 2 hours of it though "
p1144
ag3
aa(lp1145
S"To all the GTD folks out there... I need a faster way for input on my Blackberry? I'm finding it faster to jot on paper and re-transcribe "
p1146
ag3
aa(lp1147
S'In maths with jess.  x'
p1148
ag6
aa(lp1149
S'aff, orkut, vai tomar no cu '
p1150
ag3
aa(lp1151
S'I cleaned the hell outta this place! worked up a sweat. yuck. '
p1152
ag3
aa(lp1153
S'yey! excited for tomorrow! EK! EK! EK! hahaha '
p1154
ag6
aa(lp1155
S'Summary of the day so far... District manager quit... $1000+ rollout of the store... Lost my store keys... '
p1156
ag3
aa(lp1157
S'feels sad today.  Wants to sleep more.'
p1158
ag3
aa(lp1159
S'Well everyone I am going now to the city so I will tweet later! Goodnight gorgeous people! Love to all  x'
p1160
ag6
aa(lp1161
S'@gogreenbeth Awesome, congratulations! '
p1162
ag6
aa(lp1163
S'This party is gonna kick so much ass! I have so much planned, definitely not your typical 21st bday party '
p1164
ag6
aa(lp1165
S"On the bus, on the way home. Excited for tmr's party! "
p1166
ag6
aa(lp1167
S"It's here!  My new precious iphone is here.  It's so pretty.  Unfortunately I can't play with it until I get home and hook it up "
p1168
ag3
aa(lp1169
S'@ichel09 iyaa sii, that exactly what i get from the video..kasian gw masih gw.dasar foxie sialan! '
p1170
ag3
aa(lp1171
S'Who is going to the Online Fashion 100 party tonight in London? I am invited but nobody to go with '
p1172
ag3
aa(lp1173
S'Back home after a great evening, great dialog about leadership, employee engagement, business models, union environments &amp; fly fishing '
p1174
ag6
aa(lp1175
S'Just My Lucky '
p1176
ag6
aa(lp1177
S"Can't afford tickets to see@mileycyrus at the London 02  my life is officially over :'("
p1178
ag3
aa(lp1179
S'@cHRIS_gREGORY you make it sound so easy  I have no idea what U just said lol x'
p1180
ag3
aa(lp1181
S'another 3 more eps, and Berserk(anime) wil be done.. then i can start the one.. '
p1182
ag6
aa(lp1183
S'just back from SuperCheap - a most successful trip. The bikes are tanked &amp; checked for the week, so all ready to start relaxing '
p1184
ag6
aa(lp1185
S"@kirikosage 2:30.  marty can't come, trevon can, don't know abt jake"
p1186
ag6
aa(lp1187
S'yea i be in ohio but that dont mean i love the Cavs... lets go Magic '
p1188
ag6
aa(lp1189
S"@lauraespino awwww so fun!!! Is it pretty out there!??? It's overcast here!!! "
p1190
ag3
aa(lp1191
S"@BennyGreenberg There were about a dozen beneath the article that didn't load for me , or I wouldn't have mentioned it "
p1192
ag6
aa(lp1193
S'Talking to a GAGOV candidate in about an hour. Time to figure out exactly what questions I want to ask him... SOOO many, not enough time! '
p1194
ag3
aa(lp1195
S'pineapple express; such a good movie '
p1196
ag6
aa(lp1197
S'@missiljestrom sorry i always get your Twitter name wrong ! Right, now time to pester Andrew re. djing together  #musicmonday'
p1198
ag6
aa(lp1199
S'@CappyT1982 Cablevision for the win!  I wish I could get 101megs... '
p1200
ag3
aa(lp1201
S'@songbookbaby cryface at you now '
p1202
ag3
aa(lp1203
S'Going to get me a new roomie today  '
p1204
ag6
aa(lp1205
S'@unegami @amyhahm My laptop refused to start up so I took it to the Apple store &amp; apparently my hard drive just decided to stop working. '
p1206
ag3
aa(lp1207
S"Ok! I feel awful and I'm so, so tired. Not funny anymore  * squints as hurts sleepy eyes to look at bright screen *"
p1208
ag3
aa(lp1209
S'@shaundiviney you should start the trend again shaun '
p1210
ag6
aa(lp1211
S'@lilmike11790 @doublea17 @Kayla912 damn I feel left out  this convo is too funny for that http://myloc.me/1MNo'
p1212
ag3
aa(lp1213
S'French class sucks  bored as hell.....'
p1214
ag3
aa(lp1215
S'@bargainmoose thansk for the tip '
p1216
ag6
aa(lp1217
S"@gale_x What's wrong? "
p1218
ag3
aa(lp1219
S'going to go pick up a swag '
p1220
ag6
aa(lp1221
S'so a murder? gotcha.  Cant believe it'
p1222
ag3
aa(lp1223
S"I'm not well- again. I'm all choked up "
p1224
ag3
aa(lp1225
S'so far from away from California '
p1226
ag3
aa(lp1227
S'is cold and bored... '
p1228
ag3
aa(lp1229
S'@alexkontis, @SierraVE looks like my little brother...but my bro has more hairs '
p1230
ag6
aa(lp1231
S"It's been 2 days without gas...the gas company turned it off to do maintenance. I can't cook. "
p1232
ag3
aa(lp1233
S"I'm bored &gt;.&lt;  and when the f*ck is TNT post going to bring me my skelanimals t-shirts? "
p1234
ag3
aa(lp1235
S'A very windy day here in NM '
p1236
ag3
aa(lp1237
S'I miss my puppy... '
p1238
ag3
aa(lp1239
S'@jamesharsch lol of course i do!  that would explain me being excited, knowing someone else does too!'
p1240
ag6
aa(lp1241
S'@8drianopelican0 your tweet was just included in The Longest Poem in the World www.longestpoemintheworld.com/tweet/14279/ '
p1242
ag6
aa(lp1243
S"i don't wanna go to work i wanna go to bed! "
p1244
ag3
aa(lp1245
S'@MikeMilan215 aww u stole my follower  she has a good personailty lmao'
p1246
ag3
aa(lp1247
S"ughhh i'm sick again "
p1248
ag3
aa(lp1249
S'@Itsjustme_Nicki I hope she is getting better. '
p1250
ag6
aa(lp1251
S'@ireneshsu lol I neeed to sleep! Youuuu nite owl '
p1252
ag6
aa(lp1253
S"i am not so feeling well.  class just started, i can't skipped class.. all my subjects now are major."
p1254
ag3
aa(lp1255
S"@KoreanCelt &lt;sigh&gt; No. At work for another hour and 20 min.  I swear as soon as I get there I'm gonna guzzle! (Responsibly.)"
p1256
ag3
aa(lp1257
S"I'm off to fold laundry and go to bed...  Yep it's a crazy Friday night! LOL    Got 1,000 more words though so WOOT!!! "
p1258
ag6
aa(lp1259
S'Out again with the Riot kids. Only a few of us tonight and a special guest. C&amp;O trattoria in Venice. Open air Italian by the ocean '
p1260
ag6
aa(lp1261
S'Why am I awake at 6am on a saturday? Worst excuse for sleep. Ever. Too hot, too many nightmares about spiders in my bedroom. Horrible '
p1262
ag3
aa(lp1263
S'@Hyacinths4 not too shabby '
p1264
ag6
aa(lp1265
S"@shedfire @miketually that's the problem isn't it, Brant mentions creating something and you know it'll be ace and VFM n hard to resist "
p1266
ag6
aa(lp1267
S'Says today is not Sunday, but Ross and Lisa Day '
p1268
ag6
aa(lp1269
S'@AnnaMariaPdT anna!! omg i love your hair!! haha is so cool!! CAN YOU SAY SOMETHING IN SPANISH? try it!  i would be so happy!!! kisses'
p1270
ag6
aa(lp1271
S'Rafa withdraws!!  Looks like Federer will be no. 1 again '
p1272
ag3
aa(lp1273
S'Finally going to sleep '
p1274
ag6
aa(lp1275
S'@Wyldceltic1 So Landileigh got her bag!  *yay*'
p1276
ag6
aa(lp1277
S'back from mall and is super bored '
p1278
ag3
aa(lp1279
S'upset that her relationship with the guy she thought she loved is now over... sums up how i feel right now. '
p1280
ag3
aa(lp1281
S'@Heather_Paige im diggin urs too '
p1282
ag6
aa(lp1283
S'Hi Lyyyyyyyyyyyyyyyssssssssssssssssss You deleted your happy birthday\xc2\xb4s tweet for me, why? I had it in my favs. I\xc2\xb4m very SAD! '
p1284
ag3
aa(lp1285
S'why is it 85\xef\xbf\xbd? thats too hot! i took like 4 showers today '
p1286
ag3
aa(lp1287
S"Sipping on a RedBull - and I don't even really need the extra energy. "
p1288
ag6
aa(lp1289
S'@elaineenglish09 ur luckky u get to go see them  they are freakkin amazing :] their new cd comes out 2moro &amp; im EXCitED [:'
p1290
ag6
aa(lp1291
S'@jerrybarnett ooh yes please! I likes ideas, storms, coffees AND world taking overness! Sounds great! Lunchtime, Warren St area tomozza? '
p1292
ag6
aa(lp1293
S'Going out for a meal with the family later today '
p1294
ag6
aa(lp1295
S'is tired and hungover and does not want to ne bloody studying on such a lovely day booo '
p1296
ag3
aa(lp1297
S'i want nobody nobody but you. and i love sunday pancakes. '
p1298
ag6
aa(lp1299
S"Workin' when it's hot outside "
p1300
ag3
aa(lp1301
S"@lulugirl896 sorry I couldn't there for you today  hope everything is better now!"
p1302
ag3
aa(lp1303
S"Summer 09  ''Let's make a memory'' "
p1304
ag6
aa(lp1305
S'going wherever the wind takes me '
p1306
ag6
aa(lp1307
S'marissa is gone. i have saturday school in the morning '
p1308
ag3
aa(lp1309
S'is sooooooo sick atm.........................feeling terrible '
p1310
ag3
aa(lp1311
S'Awh 3 exams done  xx'
p1312
ag6
aa(lp1313
S'Follow Billy Burke. Or I will find u. He is very nice. Also follow Peter Facinelli and Gil birmingham and..... me Pweez? '
p1314
ag6
aa(lp1315
S"Goodmorning tweets!! Off to the gym after school  Hopefully I'm not too sleepy XD"
p1316
ag6
aa(lp1317
S"http://twitpic.com/5d2zm - forever and ever,don't matter what "
p1318
ag6
aa(lp1319
S'http://twitpic.com/6bdl6 - At hm bored on a sat... Pooooooo '
p1320
ag3
aa(lp1321
S'WOO. ALY IS COMING OVER. I misssss her.  &lt;3 P.S. HI LISSA. xD'
p1322
ag6
aa(lp1323
S'I want my tattoo, and dreads, and lip piercing. Now.  Screw the &quot;under my roof under my rules&quot; law made by mothers everywhere.'
p1324
ag3
aa(lp1325
S"I'm heartbroken watching my poor puppy limp around the house! He hurt his paws when he fell in the pool yesterday "
p1326
ag3
aa(lp1327
S'no sunshine yet, this weather is so dreary '
p1328
ag3
aa(lp1329
S'@reankell DAMN!!!  got me all excited for a min there '
p1330
ag3
aa(lp1331
S"I have a picture of Britney Spears covering the screen of my cell phone. She's a nice companion. "
p1332
ag6
aa(lp1333
S"@Kanthalas I'm a lonely boy "
p1334
ag3
aa(lp1335
S'@CheekiThaSinger Prayers are still w u, get well soon. '
p1336
ag6
aa(lp1337
S'nothing. nobody to talk with and i cant find my blade '
p1338
ag3
aa(lp1339
S"Dumbledore's dead and so is Hedwig  I really liked Hedwig..."
p1340
ag3
aa(lp1341
S'random fact 1; i have a birth mark on my side in the shape of puerto rico  i wanted to feel cool too'
p1342
ag6
aa(lp1343
S"Good moviee! I don't feel good. "
p1344
ag3
aa(lp1345
S'@victoriastrauss you know, i would love to see 5 lies editors believe about writers. #justsayin '
p1346
ag6
aa(lp1347
S'Off to bed...Monday will come way too early for me. '
p1348
ag3
aa(lp1349
S'If im so annoying then why do YOU keep talking to me?! Seriously, idgaf '
p1350
ag6
aa(lp1351
S"&quot;king james left the playoffs as a loser&quot; by adrian wojnarowski http://tr.im/n7vc is spot on...and a sad commentary on lebron's &quot;legacy&quot; "
p1352
ag3
aa(lp1353
S'Morning world! I have a lonely day ahead of me. Just me in the @EcoSearch office all alone '
p1354
ag3
aa(lp1355
S'@TaperJean_Girl_ Good morning!! Have you missed JK then  xxx'
p1356
ag3
aa(lp1357
S'@ChaosKittyPie ILL BE YOUR LITTLE SIS!  wait, am I older than u...?'
p1358
ag6
aa(lp1359
S'Did hatton win? I missed it '
p1360
ag3
aa(lp1361
S"@fenderlove in reply to CDS. You'll love him, them even more when you've been through all the music vids  I want to see them in concert"
p1362
ag6
aa(lp1363
S'@sarahfrance Man, CGtextures got me through my final major college project in style '
p1364
ag6
aa(lp1365
S"@drakkardnoir I see you don't have a tweet addiction, and that's great! "
p1366
ag6
aa(lp1367
S"OMG MILEY IS CONECTED AND I CAN'T DO NOTHINGGGGG "
p1368
ag3
aa(lp1369
S'Wkend is now here! let the sun shine and the drink flow '
p1370
ag6
aa(lp1371
S"14 hours until i see Adam again. Haven't seen him all week "
p1372
ag3
aa(lp1373
S'Gotta go pay some bills now.. I seriously need some sleep '
p1374
ag3
aa(lp1375
S'@slkrck Bring it! '
p1376
ag6
aa(lp1377
S'@TomFelton You are so lucky, I wish I had some in the house. My day has been terrible. '
p1378
ag3
aa(lp1379
S"@daisyrjordan that's amazing. they'll do a concert here in may 28, a day after my birthday but my dad don't let me go "
p1380
ag3
aa(lp1381
S'Just dropped my muffin on the floor.  '
p1382
ag3
aa(lp1383
S'Waiting to go to the club! have to say goodbye to Jazz! waaaaa '
p1384
ag3
aa(lp1385
S"@antoine_i I guess that's just the mentor in me...trying to save the youth LOL! But her voice is amazing, fav song is Some Unholy War!! "
p1386
ag6
aa(lp1387
S'@carobuckman Happy Birthday, Caroline '
p1388
ag6
aa(lp1389
S'@Andrew_Johnson Oeh oeh oeh, thanks for reminding me  I will check it out later '
p1390
ag6
aa(lp1391
S'@officialTila how come no reply back Tila? '
p1392
ag3
aa(lp1393
S"@Seorse Sweet! You're gonna LOVE it! Pssst! The butler didn't do it! "
p1394
ag6
aa(lp1395
S'still in PJs and i got up like an hour ago haa x looks like another lazy day '
p1396
ag6
aa(lp1397
S'@HerEvilRoyalty Hmm have been quite intrigued by it for a bit so sounds a good idea '
p1398
ag6
aa(lp1399
S'@mantic59 The pleasure is all mine '
p1400
ag6
aa(lp1401
S'i wish i had polarizer for my wide-angle '
p1402
ag3
aa(lp1403
S'waiting to smoke. wishing class was canceled '
p1404
ag3
aa(lp1405
S'david plzz reply in my account plzz need some follow up to you  im the one of some you fans  i really like your songs '
p1406
ag6
aa(lp1407
S'@BooDy I switched to linux.. Yamli is great.. but mesh bas7melo for long writings '
p1408
ag3
aa(lp1409
S'about to go on a walk with adam... '
p1410
ag6
aa(lp1411
S"Back people.... I'm getting sleepy already... "
p1412
ag3
aa(lp1413
S'@_Cube_ LOL glad u liked it  ... i thought it was funny but, i had consumed 2 glasses of wine '
p1414
ag3
aa(lp1415
S'@schwern not_ok please '
p1416
ag6
aa(lp1417
S'On my way to work out! '
p1418
ag6
aa(lp1419
S"I'm stuck in an elevator right now. And I wish I was kidding "
p1420
ag3
aa(lp1421
S'@moble thank u SO much,I didnt see ur tweet until now,have no idea how I missed it!thanx 4 the follow,hope 2 interact w/ u in the future! '
p1422
ag6
aa(lp1423
S'Ok so the eye is getting worse, me thinks a trip to the hospital may be in order '
p1424
ag3
aa(lp1425
S'Movies!!! Munching on some popcorn (yum) '
p1426
ag6
aa(lp1427
S"Saw Up instead. Yes, still a kid @ heart, but @ least now I'm old enough to drink. Can I get a &quot;Cheers&quot; for that?!? "
p1428
ag6
aa(lp1429
S'OK for real I am going to sleep. I am so discombobulated being out of my normal habitat. I miss my bed invading snoring little girls. '
p1430
ag3
aa(lp1431
S"@Jonasbrothers &quot;Paranoid&quot; ... OMG.. I Love this song!!  &quot;Hey Baby&quot; It's so pretty!! "
p1432
ag6
aa(lp1433
S'http://twitpic.com/6r1m5 - Cooking lunch with nicole '
p1434
ag6
aa(lp1435
S'@juanamyupangco yup hes been sick.  YA it was fun but now am sick. '
p1436
ag3
aa(lp1437
S"@jeffaxup E-mail has some serious issues, and Wave definitely has potential in supplanting it. Especially as it'll be pushed by Google "
p1438
ag6
aa(lp1439
S'@tommcfly Lucky you '
p1440
ag6
aa(lp1441
S'I left my heart @holdenbeach  Hoping to go back for a couple of days around the fourth (via @AnNa_HaLe)'
p1442
ag3
aa(lp1443
S'The smell of Pin-Sol shall reign for 1000 years in my bathroom...or until Rusty takes a crap. Whichever comes first '
p1444
ag3
aa(lp1445
S"@deathburlesque same here, love! summer cannot come fast enough! I miss you terribly!  I'm sorry you're sick! *hugs*"
p1446
ag3
aa(lp1447
S"@ashgant I'm sorry!  you looked put of it at lunch...boo on being sick!"
p1448
ag3
aa(lp1449
S'@gaiansoul I honor your new name, and feel sadness at the &quot;loss&quot; of the old one. The loss is mine - not yours. You are growing! '
p1450
ag6
aa(lp1451
S"Cookies for breakfast!  They have oats and peanut butter so it's ok "
p1452
ag6
aa(lp1453
S'raining...raining...raining... '
p1454
ag3
aa(lp1455
S"@yeager OMGosh.. i'll go change it right now...   thanks so much for letting me know."
p1456
ag3
aa(lp1457
S'Cleaning, laying out with Nicole, Visiting RIC later '
p1458
ag6
aa(lp1459
S"Everyone is going Crazy. This isn't a sad graduation whatsoever  "
p1460
ag6
aa(lp1461
S'@MarielleBait yea like how they ended friends '
p1462
ag3
aa(lp1463
S'I gotta get back INTO today. Geez. Really not on top of my game today. All the star wars shiat 4 today. Just reminds me of jedi FAIL '
p1464
ag3
aa(lp1465
S"@jack_welch Nice article. Y're right about Twitter allowing you to be on a sort of cocktail party. Even to those you where not invited "
p1466
ag6
aa(lp1467
S"in @snajd 's hood - shopping for a lamp "
p1468
ag6
aa(lp1469
S'@tledford then please send some my way! I still feel icky!! '
p1470
ag3
aa(lp1471
S"I'm following 268 people. How many tumblelogs are you all following? - kellylove: 297. 606 77 1183.,  128... http://tumblr.com/xeo1wykkz"
p1472
ag6
aa(lp1473
S"ok so I am drunk, so sue me.. fuck you I don't care, you got a problem with it??!? of course you don't... no one cares. I'm full of it "
p1474
ag6
aa(lp1475
S'@lameymacdonald Will do....the commissoned piece got a bit to go but will give you the nod '
p1476
ag6
aa(lp1477
S'@MelRy217 GOOD LUCK TOMORROW ON MONDAY!!  you and tye looked so cute in the pictures from the maxim party! '
p1478
ag6
aa(lp1479
S'@tickledtink no problem! There will be more  hope all is well.'
p1480
ag6
aa(lp1481
S"@TherealRyu If I'm ever in town you'll have to introduce me to this legend so I can see what I'm missing. ;)  Deal? "
p1482
ag6
aa(lp1483
S'@hayleyjfoster awww sweety! '
p1484
ag3
aa(lp1485
S"Yahoo, thanks for creeping me out with the &quot;2012&quot; trailer.  By the way, didn't say this yesterday.. RIP Gary Papa. "
p1486
ag3
aa(lp1487
S'@riapatel HAHAH BLATES. ohmy, i didnt ring you earlier :S i was out til about half 5 so i kinda forgot about it '
p1488
ag3
aa(lp1489
S'*cough cough splutter sneeze*  Uuuurrgggh.  Morning.  http://tinyurl.com/m9797m'
p1490
ag3
aa(lp1491
S'@Doctor_Donna What can I say? The Doctor makes a good cup of tea. '
p1492
ag6
aa(lp1493
S'*yawn* well, im off to bed. Night twitter '
p1494
ag6
aa(lp1495
S'soccer in a couple hours      MAMAS DAY! fiddler was so good!'
p1496
ag3
aa(lp1497
S'is actually going to miss wallyworld  esspecially merdina, thankyou love for making my sift hillarious.'
p1498
ag3
aa(lp1499
S'Just got email from @lewisdvorkin - @TrueSlant is moving to beta soon. 250,000 uniques, 100 writers, just in alpha!  http://is.gd/RFMH'
p1500
ag6
aa(lp1501
S"Why does it have to rain so? Makes for a crappy father's day "
p1502
ag3
aa(lp1503
S"i'm NOT READY for final exam !! "
p1504
ag3
aa(lp1505
S'Ugh I wish he would just be a man about it. '
p1506
ag3
aa(lp1507
S'Playing Call of Duty 4..i keep getting my behind beat every round  . I need to step my game up!'
p1508
ag3
aa(lp1509
S'@roseji27 happy sunday 2 u! '
p1510
ag6
aa(lp1511
S'@cancercures At ASCO they also talked about how survivors of childhood cancer can suffer from post-traumatic stress disorder. '
p1512
ag3
aa(lp1513
S'@emmsyish I think your new avatar was worth the wait. It seems to capture the essence of your present indisposition '
p1514
ag3
aa(lp1515
S'Meeting is over!!!! Now I have to study for my test '
p1516
ag3
aa(lp1517
S'@thesiren. they minty lux and all that? yes they are lost in the internet ether '
p1518
ag3
aa(lp1519
S"I'm out twit... cuida a mis crazy sisters  @Yadirocker @Rocketwomann"
p1520
ag6
aa(lp1521
S'So happy today  By the way, still have to Fight for tomorrow exams!'
p1522
ag6
aa(lp1523
S"can't believe it's friday already! Happy Birthday @petewentz "
p1524
ag6
aa(lp1525
S"Er, I've been refreshing my browsers a couple of times and there still isn't any download link activated.  Wazzup, Apple? "
p1526
ag3
aa(lp1527
S'I want to party. Michelle, Camilllee, Gerliee... where you at! Justine, why did you have to start summer school NOW? '
p1528
ag3
aa(lp1529
S'wishing @max17r0n would come over '
p1530
ag3
aa(lp1531
S'@Izaaza wot?? why izaa said no? rugi eh  huhu'
p1532
ag3
aa(lp1533
S'Feeling left out, I guess pregnancy will do that to ya '
p1534
ag3
aa(lp1535
S"@ColorblindFish Good! Who knows, I may fall in love w/ the place and go to school there!  Can't wait. Will be my first time there."
p1536
ag6
aa(lp1537
S'Me I want something!  love u'
p1538
ag6
aa(lp1539
S"@Nuff55 Yes, he sent me a message on FB, don't worry about a thing  "
p1540
ag6
aa(lp1541
S'danny and john just left my casa  yay! N64!'
p1542
ag3
aa(lp1543
S"Jet lag, can't sleep and supposed to wake up in 6 hours to work "
p1544
ag3
aa(lp1545
S'SleeP over goin sound  (Y)'
p1546
ag6
aa(lp1547
S'tweeting now '
p1548
ag6
aa(lp1549
S"omfg. why am i still awake!? and why hasn't this tylenol pm started working yet??? urg. "
p1550
ag3
aa(lp1551
S"@avalanchelynn see! the rain's comin' "
p1552
ag6
aa(lp1553
S"@anz_rocks19 I had a mad on this morning. Listening to Tool on my way to work didn't help!  How about you?"
p1554
ag6
aa(lp1555
S'@invisagal Sorry '
p1556
ag3
aa(lp1557
S"@recamel Welcome back!!!  You said you'd send Me something, but I never received anything, figured you didn't get a chance to send it "
p1558
ag6
aa(lp1559
S'I like this sms  --&gt; Jkt arwan 27 halo laras,mau request the whitest boy alive yg br dong. Kpn maen2 k kntr axioo lg?hehe..met siaran ya'
p1560
ag6
aa(lp1561
S'@yesterdaysprize argh I would but I currently lack a vehicle. '
p1562
ag3
aa(lp1563
S"@angelenic I hope every one of them that tweeted while looting goes to jail for looting..  It's a depressing mess in #dtla today "
p1564
ag3
aa(lp1565
S'@DakotaFanning9. What is your email address? For Myspace '
p1566
ag6
aa(lp1567
S'@kristenstewart9 Your background is soo cool I had to stop looking at it though it was beginning to hurt my head :S   Love it though '
p1568
ag6
aa(lp1569
S'@itsme_carolina and i miss YOU, you.. you..  i miss you '
p1570
ag3
aa(lp1571
S"@LennyKravitz ...I'm really sad about that....cheers from Italy "
p1572
ag3
aa(lp1573
S'Revision is killing me now. '
p1574
ag3
aa(lp1575
S"is really bored and really sleepy...and mad she can't find a custom lanyard maker that wont make me buy 1000000 minimum "
p1576
ag3
aa(lp1577
S'I want to know what i did...... '
p1578
ag3
aa(lp1579
S'@MrTomHill Thank a yoou  how are you? #TwitterTakeover'
p1580
ag6
aa(lp1581
S"Nooooo...it's Monday again tomorrow! "
p1582
ag3
aa(lp1583
S'watching andrews twit fit  and i know he can do betterrr xP'
p1584
ag6
aa(lp1585
S"@jeeesss I know, I know...but..aaahhh.  idk..two of my friends are going, and I know I'm just going to feel so left out haha."
p1586
ag3
aa(lp1587
S"Falling asleep gotta wake early 2 go 2 school..... I'm takin summer classes &amp; now I regret it "
p1588
ag3
aa(lp1589
S'is home and having a BBQ '
p1590
ag6
aa(lp1591
S"&quot;It's easier to deliver a small lie, than a painful truth.&quot; - Robin Williams as Teddy Roosevelt. "
p1592
ag6
aa(lp1593
S'@ChicagoGirl Gotcha.  My place is Atlantic side.  Better for surfing   Plus I like to be close to the crazy foreign restaurants. Mmm, FL.'
p1594
ag6
aa(lp1595
S'@iKieran me not been up 2 much lol just revision lol which sucks lol and no xbox 2 play cus bro killed it  so it had 2b set of 2 b fix lol'
p1596
ag3
aa(lp1597
S'@scottrmcgrew http://twitpic.com/6tb4n - yes! this one... I like that your nose is clean and your up on your manscaping '
p1598
ag6
aa(lp1599
S'ehh i have nothing to wear '
p1600
ag3
aa(lp1601
S"Woot! My back is slowly turning less red and more brown since getting toasted yesterday  Thank god it's not an insanely hot/stinging burn!"
p1602
ag6
aa(lp1603
S"has an upper-respiratory infection (and NOT the swine flu!) Still, she's on anti-biotics for the 4th time this year! Not fun "
p1604
ag3
aa(lp1605
S'I still hope warne plays some good shots and make the team win.. And he goes off as i type this '
p1606
ag3
aa(lp1607
S"@VLaverne Happy Mother's Day Mommy i love youuu "
p1608
ag6
aa(lp1609
S"Soo my appt was at 230....i stil haven't seen the doctor "
p1610
ag3
aa(lp1611
S'@Jam_Freeq ~ I feel the same way!! I rocked the show tonight! '
p1612
ag6
aa(lp1613
S'@TrishaMalkin LOL - I always go to a local place that grinds it for me &amp; hubby mixes it w/Folgers and its his own magic blend '
p1614
ag6
aa(lp1615
S"ok guys I'm going to take a nice HOT bubble bath to try and relax after that ridiculous drama...wk n 10 is uploading  enjoy it! loves ya"
p1616
ag6
aa(lp1617
S'On Eurovision 2009: I wanted Russia to win so much '
p1618
ag3
aa(lp1619
S'@KianaBritney i know! season finale '
p1620
ag3
aa(lp1621
S'not gonna give up until #bradiewebb is a trending topic '
p1622
ag6
aa(lp1623
S"Ugh I'm glad today is shopping day. Already feels like a bad day and I know that'll cheer me up "
p1624
ag6
aa(lp1625
S'@hollia369 yep!!!! '
p1626
ag6
aa(lp1627
S"Home from school. Sooo tired. But I got a B in the Englishtest &amp; a C in the Frenchtest  I'm so ready for holidays now."
p1628
ag6
aa(lp1629
S'gots new billie finally!!!   Not only 1 special edition copy but 2 bahahaha'
p1630
ag6
aa(lp1631
S"Morning all. Can't wait to take these photos "
p1632
ag6
aa(lp1633
S'Just let me live my life !!! '
p1634
ag3
aa(lp1635
S'Full day - happy to have been outside and away from my desk '
p1636
ag6
aa(lp1637
S'@stephjonesmusic YEs  lol'
p1638
ag6
aa(lp1639
S"theres 2 many twitter haters out there  but there's also alot of twitter lovers "
p1640
ag6
aa(lp1641
S'@gwynduffy wellllll, i only did it that one time (i will again!) but i have been working out every day. '
p1642
ag6
aa(lp1643
S'Went to FNM...Won once, lost twice. All in All I had fun. '
p1644
ag6
aa(lp1645
S"this isn't fair. i hate this, it's just another reason. :/  D:"
p1646
ag3
aa(lp1647
S'great day  NCDC won Outstanding Student Org. AND Outstanding Community Service Event (Project Pumpkin!) PLUS FNS IM Soccer won 4-1!! WOOT!'
p1648
ag6
aa(lp1649
S'Home... afte the big exam... relaxin... '
p1650
ag6
aa(lp1651
S'has been ill all day. Moves back to Berwick tomorow too! Double '
p1652
ag3
aa(lp1653
S'@themisscazshow Key Skills is DEADLY! hahah! '
p1654
ag3
aa(lp1655
S'Back to reality '
p1656
ag3
aa(lp1657
S'http://twitpic.com/6qdkl - Getting the ticket of Tokyo JAAAAZZZZZZ!!! Yeah! '
p1658
ag6
aa(lp1659
S"@KittyKat_1988 YUS!!    I want Sims.    Might attempt to dig out the Sims 2.  Scared my Disc 1 isn't in the box though. . .  :S"
p1660
ag3
aa(lp1661
S'off school, crappy ill '
p1662
ag3
aa(lp1663
S"@AlfinaHawaii Hey Darling, sounds like you had a great time at the Fair! Hope you're sleeping well! "
p1664
ag6
aa(lp1665
S'was going to go shopping today. but my ass is BROKE!  *tears'
p1666
ag3
aa(lp1667
S'Off to work. I get observed by my Asst. Principal today.  Time for my evaluation.    Hope it goes well...'
p1668
ag6
aa(lp1669
S'@MelodyDarlene, fffffffffffuuuucccckkinnnggg fudge mayne..missed it...thought it was '
p1670
ag3
aa(lp1671
S'@oxofamilydad Hey Oxo am I glad to see you! '
p1672
ag6
aa(lp1673
S'It should have been a night out with the boys from Basildon, turned into a quite night with family in Colchester '
p1674
ag3
aa(lp1675
S"#iremember wearing Tommy Hilfiger down to my socks and drawers..where's Tommy @ now "
p1676
ag3
aa(lp1677
S'headed to Guitar Center and Woodcraft when they open. Unfortunately leaving empty handed '
p1678
ag3
aa(lp1679
S'more sunshine :O why am i still white?  stoopid work'
p1680
ag3
aa(lp1681
S'i love short stack more than... ... ... dammit! im not very creative '
p1682
ag3
aa(lp1683
S"@megandresslar I didn't get in to my other two transfer schools so I didnt expect to get in to Fordham and have to make this decision "
p1684
ag3
aa(lp1685
S'@LilKido http://twitpic.com/6fpsz - They were awesome. '
p1686
ag6
aa(lp1687
S'@AshyJonas uhmm i cant see the mtvm too  until Thursday, whats up\xc2\xb4!? '
p1688
ag3
aa(lp1689
S'Local beauty spot '
p1690
ag3
aa(lp1691
S"I've food poisened myself "
p1692
ag3
aa(lp1693
S'Why do I have to be awake right now. Sundays are meant for relaxing.  Gotta work I suppose...then two days off.  yes!'
p1694
ag6
aa(lp1695
S'without an iphone till friday... '
p1696
ag3
aa(lp1697
S'On t-n.weebly.com adding stuff. Also on photobucket to find some good pictures to spice up the site a bit. '
p1698
ag6
aa(lp1699
S'Wow do i have bed hair, i look like a rooster. I also have a splitting headache!  Did i snore 2 loud?! Blueberry muffin &amp; then excedrin.'
p1700
ag3
aa(lp1701
S'missing housewives finale because i am sooo exhausted '
p1702
ag3
aa(lp1703
S"It's almost 10pm...still waiting at Bunda...it's been 5 hrs...  capeeek..."
p1704
ag3
aa(lp1705
S'fuck!!! I really struggled with 10 miles today  it is noted that i over indulged on @maximopark frenzy week and you could tell!!'
p1706
ag3
aa(lp1707
S'@AllieT1983 I remember those days fondly. But that was back when I found sitcoms funny. '
p1708
ag6
aa(lp1709
S"@elenarr you can make me feel nice and warm ;) cause it's gonna be freezing here.z we're going to some tower placey "
p1710
ag6
aa(lp1711
S"@kezhound I bookmarked 'em for the prices but hadn't ordered yet... so you can pay me back by letting me know how they work. "
p1712
ag6
aa(lp1713
S'@Corina_Bianca who says ugh to a photoshoot! Lol, there fuuuun. '
p1714
ag6
aa(lp1715
S"dear wetzels, I only bought a pretzel dog from you because auntie anne's is cash only. "
p1716
ag3
aa(lp1717
S'@billyraycyrus billy, r u planning to come to PNE again this year in Vancouver? and if u dont, keep us all updated of upcoming shows '
p1718
ag6
aa(lp1719
S'@ the gas station waiting for my daddy to come pump my gas! I hit the snooze button 4 times this morning  super sleepy'
p1720
ag3
aa(lp1721
S"Can't say I'm too impressed with iPhone os 3.0. And I'm not 4sho yet but I think it's made my phone slower. "
p1722
ag3
aa(lp1723
S'@MC_mahon aaww awesomei bet that was good! '
p1724
ag6
aa(lp1725
S"@tonyadam I wouldn't be able to handle it. I can barely keep up thru the web "
p1726
ag6
aa(lp1727
S'@nish7x - oh great ! '
p1728
ag6
aa(lp1729
S'Does God hear tweets  http://bit.ly/Ib0we'
p1730
ag6
aa(lp1731
S"@gplama I've been pushing for this in XC for a while, and I've written some detailed documents and software to handle it. Still... "
p1732
ag3
aa(lp1733
S'@theshellmeister I think it would place has in Gothenburg we like this kind of music.Get John Simm to Sweden would be heavenly fun. '
p1734
ag6
aa(lp1735
S'@beccaRAR I like your new pic '
p1736
ag6
aa(lp1737
S"I can't watch that show any more.... "
p1738
ag3
aa(lp1739
S"belmont today! very exciting. i think i'm going to hop on board and cheer for mine that bird with the rest of america "
p1740
ag6
aa(lp1741
S'missed the school bus today! had to walk quite far in the horrible rain  school show was well good though '
p1742
ag3
aa(lp1743
S'Its a beautiful day in the neighborhood '
p1744
ag6
aa(lp1745
S'Happy birthday to my mom and dad  so excited for the beach tomorrow'
p1746
ag6
aa(lp1747
S'tired as all get out, sick, and can barely walk.  feel bad for me'
p1748
ag3
aa(lp1749
S"@katherinemarsh my parents won't let me get it cos apparently it 'clogs up the computer' it'd be epic to play on the mac too! "
p1750
ag3
aa(lp1751
S'@mkvlln Mr president, your tweets get cut off, i cant read everything. send it in an email? thanks love. '
p1752
ag6
aa(lp1753
S'housework makes u ugly but someone has to do it.. bye bye for now.. '
p1754
ag3
aa(lp1755
S"@skyejaden I wish I was sleeping in - I'm getting up at 3:30am to drive to Houston for photography day at the zoo   (I'm a geek)"
p1756
ag6
aa(lp1757
S"is warning you, if a physio tells you they want to do 'soft tissue manipulation' this, in fact, means they want to KILL you and be EVIL!! "
p1758
ag3
aa(lp1759
S'napping is what i do best '
p1760
ag6
aa(lp1761
S'Wish me luck today!!!!!!!!  '
p1762
ag6
aa(lp1763
S'just got home from Julius grad party '
p1764
ag6
aa(lp1765
S'marking some papers for my mom $_$ '
p1766
ag6
aa(lp1767
S'@Nathaliekhouri   i know!!! i can not get out of your sight now '
p1768
ag3
aa(lp1769
S'@jennihogan Your hubby is lucky to spray tan you!  Your new assignment is to find someone as fun as you that I can help tan '
p1770
ag6
aa(lp1771
S'@FarashaFly good night farasha and sweet dreams '
p1772
ag6
aa(lp1773
S'homework, shopping then downtown for THRIVING IVORY with the ladies '
p1774
ag6
aa(lp1775
S"Haylie Ecker's had a new baby. Someone else replaced her as the first violinist. I'll miss Haylie "
p1776
ag3
aa(lp1777
S'My throat hurts '
p1778
ag3
aa(lp1779
S'@LesterJr Yes  check my new theme http://tinyurl.com/pqq8rx'
p1780
ag6
aa(lp1781
S'Missing my boyfriend like crazy! I need a vacation thats for sure! Wink Wink VA here i cme '
p1782
ag6
aa(lp1783
S"night  need some good sleep for tomorrow's training "
p1784
ag6
aa(lp1785
S'Off to go get some new duds for my new job tomorrow  gym later!!'
p1786
ag6
aa(lp1787
S"@rapunzels_tears That's lovely, thank you. I'll try... "
p1788
ag6
aa(lp1789
S'Good night twitter ppl! Back 2 work ma\xef\xbf\xbdana '
p1790
ag3
aa(lp1791
S'started the morning off just great! got a speading ticket! '
p1792
ag3
aa(lp1793
S'@SheToldMe you are welcome . Thanks for the feedback '
p1794
ag6
aa(lp1795
S'@jessicastrust http://bit.ly/1a2XGq  does but not a great chance to read it,as just on way to Tesco '
p1796
ag3
aa(lp1797
S'Yay Top Gear!!!! '
p1798
ag6
aa(lp1799
S'@QueenOfInk yes '
p1800
ag3
aa(lp1801
S'http://twitpic.com/7ye1d - Goodbye baby  ha i really do love dogs'
p1802
ag3
aa(lp1803
S'@victorvitug vv my breaky is soooo good. have a taste! '
p1804
ag6
aa(lp1805
S'I just love the disney channel '
p1806
ag6
aa(lp1807
S"@_fatdad LOL..Ur funny! I love kitties! Besides, she's too little to even be an appetizer....just kidding "
p1808
ag6
aa(lp1809
S'so much fun last night in boston! relaxing for the day. work tomorroowwww '
p1810
ag3
aa(lp1811
S'3 minutes....this is so nerve wrecking! '
p1812
ag6
aa(lp1813
S'is upset cus he cant go to the pool party '
p1814
ag3
aa(lp1815
S'The newly launched @WolframAlpha locks up my Firefox from time to time '
p1816
ag3
aa(lp1817
S'Palm Pre is out today.  I am sad because I will not get to have mine until September '
p1818
ag3
aa(lp1819
S'@jeffpulver As a Biz Mentor &amp; Entrepreneur based in dynamic Asia - I am emphatically having the business time of my life  Ciao Tweeters!'
p1820
ag6
aa(lp1821
S"I'm super pumped For my new career at song writing "
p1822
ag6
aa(lp1823
S'@citysage my thoughts exactly '
p1824
ag3
aa(lp1825
S"@emelgeek Btw happy mom's day to hannah and your mom and han's mom! Yey! Moms unite! This is your day "
p1826
ag6
aa(lp1827
S'I never love someone like I love you... '
p1828
ag3
aa(lp1829
S'@TaraCandelaria you still twitting around to? How koo! '
p1830
ag6
aa(lp1831
S'@bleezy15 Hellz yea! Cuz you know my camera is outta commission! '
p1832
ag3
aa(lp1833
S'wearing a summer dress just cuz i really want summer right now! (well i always do but, yeah..) its kinda still too cold to wear it '
p1834
ag6
aa(lp1835
S"@Monica2112 Oh don't worry, I don't mind if you are.    I'm just happy u want to meet me!"
p1836
ag6
aa(lp1837
S'preparing for 9am meeting tomorrow '
p1838
ag3
aa(lp1839
S'@Prinbird im good ty got to go to work 2day  and someone has stole the sun!!'
p1840
ag3
aa(lp1841
S'On a diet.... Woke up 2day Hungry '
p1842
ag3
aa(lp1843
S"listening to David Archuleta album it's amazing "
p1844
ag6
aa(lp1845
S'waiting for danny now '
p1846
ag6
aa(lp1847
S'@ZnaTrainer lol I LOVE that about &quot;raising your bottom line&quot; '
p1848
ag6
aa(lp1849
S'@Shrek1337 truuuuuue story lmfao! im on this at work cause i get bored '
p1850
ag3
aa(lp1851
S"Missing Michigan Girl's Mother Says She Is 'Completely Innocent' After Body Found -http://shar.es/oTcO #tcot A innocent child. RIP "
p1852
ag3
aa(lp1853
S'i lost my livelavelive braclet  i wear it everyday fml'
p1854
ag3
aa(lp1855
S'Took a nice walk to the seaside... I saw a lot of fish! They are so watery and mysterious... '
p1856
ag6
aa(lp1857
S'Argh, why do I feel ill all the time? '
p1858
ag3
aa(lp1859
S'@binghamwray damnit i would but i have to go to leahs graduation at like 6! and i still have to get ready  wanna come? one open seat!'
p1860
ag3
aa(lp1861
S'@viintagedresses aww poor Caity  :L add people n they will add you'
p1862
ag3
aa(lp1863
S'@benstone i love you for saying that. yes, yes it is! '
p1864
ag6
aa(lp1865
S"I have class soon but don't want to go. Maybe I should have some more coffee "
p1866
ag6
aa(lp1867
S"@JuliusCrosslin that's kinda rough there... But OH... thanks for the 40 bucks HAAAAAAAA not "
p1868
ag6
aa(lp1869
S'iLoseWeight for charity rejected by Apple for the app store. We have to remove all &quot;for charity&quot; cues.  wtf? #iloseweight#'
p1870
ag3
aa(lp1871
S'I hate gymmmm '
p1872
ag3
aa(lp1873
S'my first employer after college, Eddie Bauer, filled for bankruptcy today     http://www.nytimes.com/2009/06/18/business/18bauer.html?em'
p1874
ag3
aa(lp1875
S"@Vialka aaaah u guys r playing uno without me  school starts on 4 30 vi. Its still 9 30 am here... I'll tell you when i'm arrived"
p1876
ag3
aa(lp1877
S'@jennafbean thanks . You have fun too '
p1878
ag6
aa(lp1879
S'On set of @ShutYourBlogOff &amp; getting hungry. Missed breakfast today  That mini shredded wheat man that sits on my shouldfer is not happy.'
p1880
ag3
aa(lp1881
S'@ddlovato haha my mom likes your music! she hear it on radio disney and she say you are super cute! and she like your voice '
p1882
ag6
aa(lp1883
S'@WDurigIV Thanks Willy '
p1884
ag6
aa(lp1885
S"@Sansaa You stupid girl,hahah. Don't be negative! I want it too,but I have to wait. We can be tortured together,okay? "
p1886
ag6
aa(lp1887
S'i wear my sunglases at night '
p1888
ag6
aa(lp1889
S'All of these beautiful ladies ran the LA Marathon with me  My girlfriends R awesome! http://yfrog.com/0xnzej'
p1890
ag6
aa(lp1891
S'bummer, the bell on my bike broke off '
p1892
ag3
aa(lp1893
S'In just occurred to me - since Obama so much wants us to be like Europe, maybe soccer will finally get the popularity it deserves. '
p1894
ag6
aa(lp1895
S'Getting ready to go to job number 2   all I wanna do is sleep right now!'
p1896
ag3
aa(lp1897
S"@SomeKuwaitiya Cuz I'm late  so late :'("
p1898
ag3
aa(lp1899
S'http://bit.ly/eFc3f  good readings '
p1900
ag6
aa(lp1901
S"On a Sister Souljah high One word Brillaint its funny to say but I'm proud of her LOL although she's older than me  but she's intelligent"
p1902
ag6
aa(lp1903
S"Honestly..am I the only one who is going insane because I have to wait till November to see New Moon? I can't wait 6 months "
p1904
ag3
aa(lp1905
S"@drea88 And I'll be there "
p1906
ag6
aa(lp1907
S'spinal taps hurt '
p1908
ag3
aa(lp1909
S'Georgia Williams is sleepy because of the weather and going to miss Sarah!  http://apps.facebook.com/dogbook/profile/view/67742'
p1910
ag3
aa(lp1911
S'@purityring check obnoxious  and sign on in like..3 hours cause i gotta go to school rn'
p1912
ag3
aa(lp1913
S'Santigold is at House of Blues right now, only 30 minutes from me, and i cant go '
p1914
ag3
aa(lp1915
S'Twitpic  comes in handy. '
p1916
ag6
aa(lp1917
S'it was sooo funny yesterday  .. girls ?! luv yaa x3 going to be the newspaperlady soon '
p1918
ag6
aa(lp1919
S'Just Landed... Home Sweet Home '
p1920
ag6
aa(lp1921
S'Today has been crappy. Still packing and feeling sick. '
p1922
ag3
aa(lp1923
S'Rearranging my @TweetDeck groups. @mixero had failed me dearly. '
p1924
ag3
aa(lp1925
S"@letsbrocknroll dude, i hope you're showering sometime soon.  you smelled gross tonight "
p1926
ag3
aa(lp1927
S'... I can get 300 followers!  follow to @lizzmartin!  and @goresecretstar! '
p1928
ag6
aa(lp1929
S'@Ayla_F Oooh! Do we get to see? '
p1930
ag6
aa(lp1931
S"memorial then my big sis Shoe's baby shower... talk about extremes but God is still sovereign and THAT is a beautiful thing...Gmorning "
p1932
ag6
aa(lp1933
S'@spongenb got the first one and last one offa itunes, middle one not on there  good shout'
p1934
ag3
aa(lp1935
S'@petiteandchic I have dressy tops, tunics (short &amp; long), few brocade jackets, sarees and churidaars. Also embellished bags '
p1936
ag6
aa(lp1937
S'movie night with myself  road trip &amp; now saved!'
p1938
ag6
aa(lp1939
S'@robluketic oooooooohhhhhh '
p1940
ag6
aa(lp1941
S'going to get my wisdom teeth out '
p1942
ag3
aa(lp1943
S'My cat got me nothing for fathers day. '
p1944
ag3
aa(lp1945
S'@bening Huhu jealous. Even my dad is flying there tonight! '
p1946
ag3
aa(lp1947
S"You can tell it's Friday afternoon... I need a coffee. And possibly some chocolate. "
p1948
ag3
aa(lp1949
S'damn it!!! What am I gonna wear now? My skirt is super cute '
p1950
ag3
aa(lp1951
S'@krystinaag yes yes they wud, bt thx for the thought! we dnt get donuts here  have a gud sleep!!!'
p1952
ag3
aa(lp1953
S"hasn't had this much *** in months.. No wonder I'm so fucking sore (pun MAJORLY intended)       SORRY FOR RUINING YOUR EYES, EVERYONE!  &lt;3"
p1954
ag6
aa(lp1955
S'@simplycraig hey!! '
p1956
ag6
aa(lp1957
S'goinggg to workk '
p1958
ag3
aa(lp1959
S'@bjhenry Almost here  asking for anything good?'
p1960
ag6
aa(lp1961
S'Has anyone got any spare tickets to go see Pink in Melbourne? I dont have a credit card I can use to purchase online '
p1962
ag3
aa(lp1963
S'If an angel came to see you would you make her feel at home?-Black Oak Arkansas. Well yeah! God must really love me - I have TWO coming! '
p1964
ag6
aa(lp1965
S'@alabamawhirly in to my inbox to clear it all out. Now I have to open up my work laptop '
p1966
ag3
aa(lp1967
S'says bye. be back...  http://plurk.com/p/x6krb'
p1968
ag6
aa(lp1969
S'@dougiemcfly http://twitpic.com/3negn - god danny looks so different, tom very nicee '
p1970
ag6
aa(lp1971
S'@textualoffender Yes! The man of my dreams, on the white horse! Alas! he met me an year too late!! My bad luck!! '
p1972
ag6
aa(lp1973
S'good news n bad news ppl good news im back in school yeaaaaa bad news im @ work so i dont feel good '
p1974
ag3
aa(lp1975
S"Ughh!! didnt want to see Oregano's face again "
p1976
ag3
aa(lp1977
S'I think I need a new power source for my computer '
p1978
ag3
aa(lp1979
S"@nashg @ebeth afraid I can't make thursday  have a voddie for me"
p1980
ag3
aa(lp1981
S'@LynetteRadio Sorry about the screeching '
p1982
ag3
aa(lp1983
S'@OhMykix o out and do something or something. lol what are your plans for tomorrow?! '
p1984
ag6
aa(lp1985
S'@gfalcone601  who you havinbg a BBQ with?'
p1986
ag6
aa(lp1987
S'listen to the lonely island- we like sports  its the best'
p1988
ag6
aa(lp1989
S'@Chawtfish haha, i ROCK BAYBAY!! Sleep well Goob '
p1990
ag6
aa(lp1991
S'Sick with the flu. '
p1992
ag3
aa(lp1993
S'Sampe rumah ai, long time no see, curhat session (bigeyes) *udah lama ga nginep depok*  http://plurk.com/p/x8l43'
p1994
ag3
aa(lp1995
S"Thank you to all of you who gave me Follow Friday! It's all of you that make Twitter fun for me "
p1996
ag6
aa(lp1997
S'says goodafternoon plurkers...  http://plurk.com/p/rbwcb'
p1998
ag6
aa(lp1999
S'a quick analysis of my gmail account: 80% of my mail is spam. Fortunately, it all gets filtered.  Anyone else have similar numbers?'
p2000
ag6
aa.