(lp0
(lp1
S'I wish more people would follow me '
p2
aS'negative'
p3
aa(lp4
S'@leahcurtis  thanks. its so bloody hot here though. Still a little jet lagged. Heading out for dinner in Bandra.'
p5
aS'positive'
p6
aa(lp7
S'http://twitpic.com/7j8vf - Killing time at light installation '
p8
ag6
aa(lp9
S'HOORAY!!! Its Friday EVE!!! or Thirsty Thursday!!!  or... Well I really got no other word/phrase for Thursday...  O well...'
p10
ag3
aa(lp11
S'im in austin with nothing to do until like 11. cant call or text anyone cause my phone is broke.... '
p12
ag3
aa(lp13
S'ended up having a wonderful day '
p14
ag6
aa(lp15
S'@anythingpotato crappy love thingy... sumasabay pa sa ulan! di ba lalung nakaka-depress?  will make kwento tomorrow! i need a power hug!!'
p16
ag3
aa(lp17
S'on the around the world in a day album cover - he has strawberry-blonde hair? LMAOOOOOOOOOOOOO  ~XO*OX~  aaoowwaa!!'
p18
ag6
aa(lp19
S'@tastethenate @adorkablex erm, magic. '
p20
ag6
aa(lp21
S'So fucking bored '
p22
ag3
aa(lp23
S'needs to find money to actually go out tomorrowwww. ughhh. i need drinks &amp; fun!! i hate being broke '
p24
ag3
aa(lp25
S"@davidbeking k - you tell 10 friends and I'll tell 10 friends and by Thursday (at the latest) you should pretty much OWN the internet "
p26
ag6
aa(lp27
S"Getting ready for work this afternoon  I hope  that there's a bus on a Sunday to come home on ....hmmm"
p28
ag3
aa(lp29
S"Good Morning everyone!!! Let's have a wonderful Apple day LOL "
p30
ag6
aa(lp31
S"Ah spent the night at Chris's with Matthew and woke up waayy to early "
p32
ag3
aa(lp33
S'@Masterface Is that tomorrow? OMG have fun! And give Ianto a hug from me. '
p34
ag6
aa(lp35
S'Matthh Assesss Todayyy '
p36
ag3
aa(lp37
S'back from the hairdressers  staying in until tonite, BBQ for a birthday  '
p38
ag6
aa(lp39
S'@freeiphoneapps  iPod touch 1G  want to give me a free 2G?'
p40
ag3
aa(lp41
S"@thetricktolife I'm listening! Give me a shout out lol "
p42
ag6
aa(lp43
S'@ashleytisdale  So happy for you Ashley! Congratulations on the award!'
p44
ag6
aa(lp45
S'at sunny panama city beach..*sigh* how niiice '
p46
ag6
aa(lp47
S'Dam just got buzzed by another HUGE fly! This time it landed on my head...not impressed '
p48
ag3
aa(lp49
S"@MajorDodson Y thank U, I'm glad you feel that way "
p50
ag6
aa(lp51
S'KITCH; DOMO KUN!!! chase; i dont have any homeowrk? '
p52
ag3
aa(lp53
S"is praying for the people in Franklin County, Virginia...there's a tornado warning   Moving east to Pittsylvania County."
p54
ag3
aa(lp55
S'@vampirefreak101 Katie! I couldnt read any reply of you!  I hope you had a good trip! Summer is here!!'
p56
ag3
aa(lp57
S'@OliviaWilder Sorry I laugh, but was very funny   @ModelSupplies got me in trouble lol'
p58
ag6
aa(lp59
S"@jc_a You know what they say...it takes a 4.0 product before it's truly &quot;mature&quot; and perfected "
p60
ag6
aa(lp61
S'@kimla310 Yeah I miss her  But she will visit often and I always want an excuse to visit LV lol'
p62
ag3
aa(lp63
S'wants and needs some sleep, but instead sitting in pain in type class!! '
p64
ag3
aa(lp65
S'I just talked to my mom ad my dogs are howling in the background. I miss them SO much '
p66
ag3
aa(lp67
S"great quote- 'every hot blooded woman needs an object to crave' - "
p68
ag6
aa(lp69
S'i got stung by a bee. '
p70
ag3
aa(lp71
S'@Wossy  Morning Rossy, talking of dogs.....any chance you can do a shout out for @BellaGthePug  she only has a few followers    '
p72
ag3
aa(lp73
S'http://twitpic.com/7ia4h - LOOK! Something bite me under my ear last night! It was redder if thats a word, and all itchy '
p74
ag3
aa(lp75
S"saw someone using my aiba non-no's translation in her LJ with proper credits  nice!"
p76
ag6
aa(lp77
S"@jonessamonique I've been well. Grinding. Hope all is good with u! I want to hear ur music "
p78
ag6
aa(lp79
S'@OhCost yeah, this twitter cell phone app sucks! Se me hace mas dificil y no pd nii ver a mis followers ni reply '
p80
ag3
aa(lp81
S'@Drattigan I can finish it on my own too '
p82
ag3
aa(lp83
S"@RaeveenBrawla I think Nicholas' teeth are the only thing that gives us a heads-up that he's human because everything else is perfect. "
p84
ag6
aa(lp85
S"@grandjoke Ice cream sounds good! But vegan-ized!  I vote that adventure for tomorrow. You didn't sound mean, I just talk about my"
p86
ag6
aa(lp87
S'@dawngeary ouch! '
p88
ag3
aa(lp89
S'@ymaethetrinket citin hotel is just opposite pala puduraya bus station (so ok punta na tayo malacca talaga, hehe). '
p90
ag6
aa(lp91
S'Just woke up. Felt so good too.  i needed it. Whitnee wore me out last night!'
p92
ag6
aa(lp93
S"Making labels for Mae and Justine's books and notebooks. "
p94
ag6
aa(lp95
S'@acadnurul daaappppppp nyee. You made me want to fly home right now knurl~~  Oh come July quickk.'
p96
ag3
aa(lp97
S'All is well '
p98
ag6
aa(lp99
S'Missing Will '
p100
ag3
aa(lp101
S'@gemmak500 argh. The thunder woke me too. I love storms, but not at 6:30 when I went to bed at 2:00! Just woke up again now '
p102
ag3
aa(lp103
S"@Recordman7 you mean it's not 2pm EST?  it's already 3am here!!! arghhh"
p104
ag3
aa(lp105
S'At beerfest to watch vertical horizon  hope it is great!'
p106
ag6
aa(lp107
S'I think the yeast hate me. '
p108
ag3
aa(lp109
S"@beezan I've to admit..... I did a tiny bit of shopping. Whilst of course spending most of my time doing cultural things "
p110
ag6
aa(lp111
S'OMG its tooo quiet...someone say something... '
p112
ag3
aa(lp113
S'the new myspace is officially launched  myspace.com/cyanidedrunk'
p114
ag6
aa(lp115
S'Is playing tha wii '
p116
ag6
aa(lp117
S'Truth in advertising.  Hmm, might work  http://bit.ly/absMN #humor'
p118
ag6
aa(lp119
S"Don't want to go to work today. "
p120
ag3
aa(lp121
S'Just spent the evening at the shooting gallery. SO AWESOME  http://yfrog.com/earbkj'
p122
ag6
aa(lp123
S'ugh 2 hardiest exams tomorrow  hope i get atleast a B in both of them!'
p124
ag3
aa(lp125
S'@lulyz Yup I agree '
p126
ag3
aa(lp127
S'I miss accounting '
p128
ag3
aa(lp129
S'@figh Ah decent excuse... '
p130
ag6
aa(lp131
S'@EmilyYoung09 hey... morning... u gt any olans 4 2day? xx '
p132
ag6
aa(lp133
S"by the way.. it's johnny depp's birthday!!! happy birthday to him!! "
p134
ag6
aa(lp135
S"@migs_karlo yeah, but it's so hot - we're going to the beach later on "
p136
ag6
aa(lp137
S"@mvidaurri ok but if you need me I'm here  oie sorry q I didn't go with you I wanted pero my mom wasn't in the best of moods! i love u ok?"
p138
ag6
aa(lp139
S'@johncmayer and now you can sing free falling  which is better than the original! I love it!'
p140
ag6
aa(lp141
S'@marks thank you! you made me in a better mood for sure '
p142
ag6
aa(lp143
S'&quot;Those who provoke [North Korea] once will not be able to escape its unimaginable and merciless punishment.&quot; Oh dear, not lookin good '
p144
ag3
aa(lp145
S'It`s awesome following people because you get to see all the tweets on one page !   '
p146
ag6
aa(lp147
S"aw! I'm gonna miss my old username... nick jonas, shontelle layne, and sean kingston replied to my OLD USERNAME!  I'm gonna start all over"
p148
ag3
aa(lp149
S'@ohhaikelly sounds good to me '
p150
ag6
aa(lp151
S'Nothing to do today   any idea?'
p152
ag3
aa(lp153
S"um... so I don't think my text msgs have a &quot;subject line&quot; ... I fail "
p154
ag3
aa(lp155
S"@bnththespinlite i would love to but i'm busy tonight "
p156
ag3
aa(lp157
S"Hello twitterworld! I'm sooo sad! Failed my biology test! "
p158
ag3
aa(lp159
S'I think I need to invent a minus scale to describe my current training motivation '
p160
ag3
aa(lp161
S'Bought my ticket to SF! #WWDC here I come '
p162
ag6
aa(lp163
S'@Kerred I like it quite a bit.  The wife and I can discuss bills, and I can see my 13-week old to cheer me on a bad day.  '
p164
ag6
aa(lp165
S'just watched kellie pickler on ellen! aw man funny stuff! loe both of them! '
p166
ag6
aa(lp167
S"@Angelfan Praying for you to warm up too!!!  It wasn't bad tempwise here today, but if you are cold today-it must be headed my way!!  "
p168
ag3
aa(lp169
S'@dannywood You really gonna do a song on summer tour!?  Just  1  Cant wait to hear it, comin from Scotland UK to see ya!'
p170
ag3
aa(lp171
S'@followcassidy why are you upset? '
p172
ag3
aa(lp173
S"this week had been the best week i'd ever had (so far)  "
p174
ag6
aa(lp175
S'failed history, mom gonna kill me, dad too '
p176
ag3
aa(lp177
S'Omg its cold out side! Now getting out thee drive away! And be heading home! Texas here i come back home! '
p178
ag6
aa(lp179
S'Still recovering from my cold '
p180
ag3
aa(lp181
S'@TessMorris Thank you for your lovely message. I feel really encouraged by it.  It would be lovely to be walking with you all. '
p182
ag6
aa(lp183
S"@stylist24 oh smh Lord heal her n Jesus name smh U gonna get betta I'd I got anything Esay bout it  lol"
p184
ag6
aa(lp185
S'forgot to wake little one up for toilet before I went to bed last night, now I have lots  of bedding to wash. '
p186
ag3
aa(lp187
S"ok, so it looks like everyone else is out having a life tonight, i guess i'll go and watch conspiracy theory or something "
p188
ag3
aa(lp189
S"OMG today's the day hahah but not here  buuh1"
p190
ag3
aa(lp191
S'cant beat one boss on her Mario game... this is extremely frustrating. '
p192
ag3
aa(lp193
S"Thanks to @JimCim, @BarbaraBretton, and @KP_eezy for the writing encouragement. You'll support me, until you read my stories. HA "
p194
ag6
aa(lp195
S'@JohnhampsonUK Nicely done - I hope all goes well '
p196
ag6
aa(lp197
S'@backstreetboys Hi boys!! How are u?? Hey my birthday is in June 4th!!  I love you so much guys!! Kisses from Puebla, M\xc3\xa9xico!! '
p198
ag6
aa(lp199
S'@glsmeltr and thank you so much for your hospitality  I appreciate it!'
p200
ag6
aa(lp201
S'Why is there a crying Bumblee in Transformers 2?  DO NOT WANT '
p202
ag3
aa(lp203
S'Is having a superfanfabtastic weekend '
p204
ag6
aa(lp205
S'So getting ready, then moving the rest of my stuff to the house  boyfriend coming over today  Pumpkin (:'
p206
ag6
aa(lp207
S'@thesoftlanding I would love to see that, how exciting!!! YAY '
p208
ag6
aa(lp209
S"@ilindsay That's very cute! "
p210
ag6
aa(lp211
S'Waiting for JNU-ANC flight.  Some lady stole my $4 hat.  I liked that hat.  '
p212
ag3
aa(lp213
S'Twilight swept up five awards. whoa. '
p214
ag6
aa(lp215
S"@BoomerangPR Why am I not surprised it's raining  About to enjoy my first cup of coffee *happy face*, then off to play some golf."
p216
ag6
aa(lp217
S'@beezan it really is! just gonna make scrambled eggs and bacon...want some? and nice cuppa taye?  '
p218
ag6
aa(lp219
S'@juttayy  wizards of waverly place '
p220
ag6
aa(lp221
S'without net...bad times '
p222
ag3
aa(lp223
S'@riotlainie haha i was so frustrated i just looked it up. thanks, i was freaking out about that. and i still think you like coberst more '
p224
ag3
aa(lp225
S'Sarah Conner Chronicles canceled  -- http://tinyurl.com/onn5gd'
p226
ag3
aa(lp227
S'something in my hall smells and the smell is reminding me of Tokyo and making me a bit  sad '
p228
ag3
aa(lp229
S"Sitting in the urgent care center waiting on mom and daddy to come back out with nate. Baby brother isn't feeling great. "
p230
ag3
aa(lp231
S'I miss my Friends. I miss Joo and Bitches '
p232
ag3
aa(lp233
S"@mary_tina I could but I think I shouldn't. I have a 7am class tomorrow! "
p234
ag3
aa(lp235
S'@playitagain_sam this sucks '
p236
ag3
aa(lp237
S'Posted 1st Etsy Artist Feature: http://jenellsjewelryblog.blogspot.com/ Need more followers! '
p238
ag6
aa(lp239
S"I didn't want the night to end. "
p240
ag3
aa(lp241
S'oooh razzmatazz and BBQ baked chips are thee best!  thanks love @knoqueturnal'
p242
ag6
aa(lp243
S"@VICnJB123 im sori  HEy He's another word for a butt...plus thats just helpn us girls learn how to chose someone even better next time "
p244
ag3
aa(lp245
S"@stalkerchanning  Just trying to help? Write 'em a nasty letter... Sometimes Twitter is too popular for its own functionality."
p246
ag3
aa(lp247
S'It feels amazing to be able to sleep late.  Yay for weekends and pretty weather.'
p248
ag6
aa(lp249
S':: internets down once more  but gave me enough time to start planning my next move ::'
p250
ag3
aa(lp251
S'@memoirofagaysha Try 7 to 377 '
p252
ag6
aa(lp253
S'@plastichandgun i see. ok '
p254
ag3
aa(lp255
S'Hehe, 2-0 now '
p256
ag6
aa(lp257
S'trying to recover from my adventures with vodka and wii tennis.... good times '
p258
ag6
aa(lp259
S'@purplefae What a shithead. '
p260
ag3
aa(lp261
S'going out now.. missing the pens parade '
p262
ag3
aa(lp263
S'@tuxorhasboobs what happened? '
p264
ag3
aa(lp265
S'in a few minute the power has been stopped. '
p266
ag6
aa(lp267
S'going to sleep gotta get up early and watch the richmond race tonight, but of course work is going to keep me from watching the end of it '
p268
ag3
aa(lp269
S'@Whatakicker thanks. And nope. '
p270
ag3
aa(lp271
S'@dtabachnick OMG are you ok?!?  Is that the glass from your bathroom?  Agh I really thought I cleaned it '
p272
ag3
aa(lp273
S'@Bridget_CooKs Oh no...I meant walking!!! oh dear '
p274
ag6
aa(lp275
S'@tommcfly #TOMEATBRIGADEIRO i can cook for you, if you want  haha love you!'
p276
ag6
aa(lp277
S'Blah  cramps'
p278
ag3
aa(lp279
S'@spike1989 noooo  when do your exams finish?'
p280
ag3
aa(lp281
S"Listening to @mitchelmusso 'hey'. I don't feel lik that right now. "
p282
ag3
aa(lp283
S'When I say Jump, you say how high!! '
p284
ag6
aa(lp285
S'im offcially broke '
p286
ag3
aa(lp287
S'I WANT MY LUUUUUUUUNCH '
p288
ag3
aa(lp289
S'borring wants too go out but no 1 out  how depressing the weathers ok but nothing too do '
p290
ag3
aa(lp291
S'waiting for manang merienda is killing me '
p292
ag6
aa(lp293
S'@rachelgab wow. i have 2. for the longest time, i only had one. but I hate to shop. i may not actually be a girl. hahaha.  '
p294
ag6
aa(lp295
S"@emmaskrnjug Hope it isn't he swine flu  Oink Oink"
p296
ag6
aa(lp297
S"as if the day couldn't get any worse, I ran out of Easy Cheese "
p298
ag3
aa(lp299
S"coincidence that the @katyperry gig was postponed just as adie said she couldn't see me until august, the new date is august25th "
p300
ag6
aa(lp301
S'@skinnylatte @willyfoo i believe willy has a setup something like that.  #awaresg'
p302
ag6
aa(lp303
S'@amyn_8t cus Youre a poor, lonely child  Hahaha! What song is that? I forgot'
p304
ag3
aa(lp305
S"@BoyNamedDavid I want to but Rockky and Dale haven't texted me back. "
p306
ag3
aa(lp307
S'@MinDillard thanks a lot for the #followfriday '
p308
ag6
aa(lp309
S'is leaving portsmouth forever today! '
p310
ag3
aa(lp311
S"@LILthomasWAYNE You realllllllllly just said that didn't you? "
p312
ag6
aa(lp313
S'I have defensive driving class tonight  no so happy!!'
p314
ag3
aa(lp315
S"@WhitPR lol... i've been in Bk for over a year... going on 2 and u haven't come yet!!! "
p316
ag3
aa(lp317
S'Urgh, internet has been slowed down again  How am I supposed to get any research done now?'
p318
ag3
aa(lp319
S" It's an ugly day"
p320
ag6
aa(lp321
S"@francescaa i don't use the tub. it's too small "
p322
ag3
aa(lp323
S'thought..we will all die someday ..thats sad  ..guess we have to enjoy life..'
p324
ag3
aa(lp325
S"@plymouthgooner Don't worry let's tweet about Arsenal who's not signing anyone "
p326
ag3
aa(lp327
S"Awwwww man &quot;he&quot; fell asleep  what's new?"
p328
ag3
aa(lp329
S'Almost finished ikea-ing the pool. Also finished -almost- all 6 crates of beer '
p330
ag3
aa(lp331
S'watching one tree hill   got soaked on the way home even though i had an umbrella '
p332
ag3
aa(lp333
S'Too tired to leave bed. '
p334
ag3
aa(lp335
S'Did u?     RE: TanyaAX: I think I just killed a rabbit '
p336
ag3
aa(lp337
S"Shouldn't have sat down, shattered again "
p338
ag3
aa(lp339
S'I just finnished my amazing Vanilla Bean Frapp made by my girl @kelliebritton! soooo good '
p340
ag6
aa(lp341
S"his sister comes out to see what's goin on and she gives me a death stare lol. Clearly I'm not liked by that fam "
p342
ag3
aa(lp343
S'i miss mcfly  I WANT THEM BACK!!! NOW !!!!!! '
p344
ag3
aa(lp345
S'@rumoko bro, come pick me up and we can go together! '
p346
ag6
aa(lp347
S'Very happy about the traffic on my site www.designforless.eu '
p348
ag6
aa(lp349
S"I'm hungry lol What an annoying backache! awwwww "
p350
ag3
aa(lp351
S'Why does hayfever always play up at night '
p352
ag3
aa(lp353
S'GOOD MORNING TWITTER FAM '
p354
ag6
aa(lp355
S'@beregulina  \xd0\xbc\xd0\xbe\xd0\xb6\xd0\xbd\xd0\xbe \xd0\xb8 \xd1\x82\xd0\xb0\xd0\xba \xd1?\xd0\xba\xd0\xb0\xd0\xb7\xd0\xb0\xd1\x82\xd1\x8c ))'
p356
ag6
aa(lp357
S"The rub is that i can't touch any of the felt sculpture @ the cooper-hewitt. "
p358
ag3
aa(lp359
S'Eatting bacon pizza now...super hungry '
p360
ag3
aa(lp361
S'@senor_carlos  lol....that is silly.  '
p362
ag6
aa(lp363
S'friends cant spend the night '
p364
ag3
aa(lp365
S"Animated gems#19 'Dimensions of Dialogue' by Jan Svankmajer. Surrealist veg-e-mation extravaganza!  http://is.gd/13hDd"
p366
ag6
aa(lp367
S"@HappyMomAmy No... sadly I haven't heard back yet... I may pitch it again to a different person next week "
p368
ag6
aa(lp369
S'@razorbackrandy If I am... so are U, my friend.  HA!  But the thing is... WE make old look GOOD!  '
p370
ag6
aa(lp371
S"Heeeey!! i'm listening now to the new single &quot;its alright its O&quot; by ashley tisdale and it totally ROX!! she's awesome "
p372
ag6
aa(lp373
S'@DarynTufts  Welcome! @alyssa_milano speaks highly of ya! '
p374
ag6
aa(lp375
S'And I have no power at my house due to the storm '
p376
ag3
aa(lp377
S'@crazytales how mean  I hope u have a good bday though.'
p378
ag3
aa(lp379
S"@MsBunni LOL that will be you cuz my bedroom set won't be ready til the end of the month, and I can't have a party in an unfinished apt "
p380
ag3
aa(lp381
S'@zackdft So are we!!!! They better be writing new songs for us!  Unless it was a coincidence, in that case get some food.'
p382
ag6
aa(lp383
S"Not feeling well* wish it would stop rainging! Maybe I wouldn't feel so groggy! "
p384
ag3
aa(lp385
S"I'm starving!! This diet is killing me but I can't eat after 8pm "
p386
ag3
aa(lp387
S"@martinroyds morning mate, you don't seem to be in the best of moods, woke to a stream of twitter texts from you being "
p388
ag3
aa(lp389
S'my iPod touch keeps freezing '
p390
ag3
aa(lp391
S"wondering whether my class is actually running, or if i've stayed at uni an extra hour for no reason "
p392
ag3
aa(lp393
S'@RosemaryConley I love love love! M&amp;S food shops, they do the most loveliest fruit &amp; veg! yum. I hope you enjoyed your hair apt. '
p394
ag6
aa(lp395
S'carless  AGAIN.'
p396
ag3
aa(lp397
S"@Nia78 I'm pretty good about to lay it down in a sec . Had a long day &amp; night  Thanks for asking . And you ?"
p398
ag6
aa(lp399
S'waiting on this steamed shrimp... daydreamin and thinkin of him! I know my babe is NOT eatin this good rite now...  Damn Airforcers LLs'
p400
ag3
aa(lp401
S'@lalulorlor I wish I could just drive to new York. '
p402
ag3
aa(lp403
S'All of my posters and photos are down now except jb rolling stone! Byebye funny little joe pics and notes from @karinaemma '
p404
ag3
aa(lp405
S"SAT II. much more focused. let's hope for no modern history "
p406
ag6
aa(lp407
S'Ahhh algebra, english honors, and biology finals today '
p408
ag3
aa(lp409
S'@ABeautifulMind1 haha. i like that '
p410
ag6
aa(lp411
S"@matty_clark @bryangwin you guys need to come back to socal again. it's been foreverrrr!! "
p412
ag3
aa(lp413
S'@Grooveecar  hope u find it soon'
p414
ag3
aa(lp415
S"My eyes are stinging &amp; my belly is killing. All I wanna' do is sleep + take your money "
p416
ag3
aa(lp417
S"@sarah_janes I've made about 10 bucks so far, its been slow too "
p418
ag3
aa(lp419
S"Man, I really hope they aren't done in 10 wks  ONE MORE SHOW ONE MORE SHOW! no more roadtripping 4 this girl    so they hafta come here"
p420
ag3
aa(lp421
S'@Conscious I love people that love me '
p422
ag6
aa(lp423
S"its mid-day!! just woke-up!! Had a beautiful dream! Can't help smiling!! "
p424
ag6
aa(lp425
S'@sunbot sorry to hear you are sick.. hope you get better '
p426
ag6
aa(lp427
S'My dad is cooler than your dad. My dad gets to meet the president on Thursday. '
p428
ag6
aa(lp429
S"@Odrep that's great to hear. family members are out now. Tib and McB are together in LA, El's still in France I think. Bug's studying "
p430
ag6
aa(lp431
S"I haven't unpacked my suitcase yet and I just spilled juice on my last pair of clean jeans  - Laundry just became official!"
p432
ag3
aa(lp433
S"@SEXYTIMElove actually i didn't even see him @ church today "
p434
ag3
aa(lp435
S'@AnneAAM have u listen to the clip David confirming bout his album? eh? albums to be precise. '
p436
ag6
aa(lp437
S'@bagfetish well hope we both sleep better 2 nite!! '
p438
ag6
aa(lp439
S'twitter is wack yo. but im bound by boredom. '
p440
ag3
aa(lp441
S'@benjibrum what pigs?! where ARE you! '
p442
ag6
aa(lp443
S'@SoCal Trip Members. Please bring a sleeping bag or blanket AND a pillow please '
p444
ag6
aa(lp445
S'Thrift store shopping with my baby soon '
p446
ag6
aa(lp447
S'my computer is acting weird and now its deleting all my files today is not gonna be a good day '
p448
ag3
aa(lp449
S'@woaiberry123 awww can i eat with you guys too? '
p450
ag6
aa(lp451
S'Listening to: &quot;Jack Penate Have I Been A Fool Music Video on IMEEM Video&quot;irony...  ( http://bit.ly/12yxa2 )'
p452
ag3
aa(lp453
S"@strangetymes awesome!2 months!..but i go on holiday with some friends so..that's 10 days less,and on camp,thats another 10 days "
p454
ag3
aa(lp455
S'@FrankRamblings Yes Babby steps for eating meat. Too much meat makes me ill  I miss meat so much!'
p456
ag3
aa(lp457
S'@hortovdaciti I hear you love...same here '
p458
ag6
aa(lp459
S'@keeperofdreams Awesome...........finally..........good work!................ '
p460
ag6
aa(lp461
S"@TheRealJordin awe I met you today with kidkradic and I didn't get to take a picture with you  I'm like so heartbroken but happy I saw you"
p462
ag3
aa(lp463
S'@UlteriorAvesha good night '
p464
ag6
aa(lp465
S"WHY have twitter done the 'fix'?? Why........ "
p466
ag3
aa(lp467
S'Just finished updating my myspace page, with pictures of my baby... he is such a cute kitten, he cries when he wants his mommy! '
p468
ag6
aa(lp469
S'@nandiaramos *comes in rattling pots and pans and then quick;y regrets it* My heeaaaaadddd '
p470
ag3
aa(lp471
S"@buckhollywood I'm watching my Will &amp; Grace DVD's! And eating a lean pocket! "
p472
ag6
aa(lp473
S'new video up soon...sorry for the delay  . -lindsay'
p474
ag3
aa(lp475
S'@RMNH thnx for video! '
p476
ag6
aa(lp477
S'@JustA_Girl go join them '
p478
ag6
aa(lp479
S"just watched the women. cute! who didn't like it... men? pshawww. i saw the play last year too, love the idea of all women. liberating! "
p480
ag6
aa(lp481
S'is having an intense fat day '
p482
ag3
aa(lp483
S'@totalrapture Just commented your post - I liked that entry '
p484
ag6
aa(lp485
S"@ddlovato listening to your song don't forget. It's my favorite off your album. "
p486
ag6
aa(lp487
S'Listening to song that bring back memories  and chatting with repo friends'
p488
ag6
aa(lp489
S'@bets_carabuena dear! sa friday pa dito  thursday ang game '
p490
ag6
aa(lp491
S"@amymarie2534 Oooooh I can't wait. Have a good one darlin' "
p492
ag6
aa(lp493
S"@LucieMinor I Am SOOOOOOOOOOOOOOO jealous  wants to go beach. :'("
p494
ag3
aa(lp495
S'looooooooong day at work .. glad I have my 4th Twilight book '
p496
ag6
aa(lp497
S'@Fallen_Reason heh I know feeling '
p498
ag3
aa(lp499
S"When life hands you lemons you should make lemonade, right. But what if you feel that making lemonade won't make a difference? "
p500
ag3
aa(lp501
S'Good Morning everyone! Ready to start another exciting week. What? 59 degrees outside???? '
p502
ag6
aa(lp503
S'nothin on msn and talkin to people!!! '
p504
ag6
aa(lp505
S'@_amberlovely as in sicky sick, yeah '
p506
ag3
aa(lp507
S'I have an ear infection    so I played hookie from work and here I am a twitter-holic lol'
p508
ag3
aa(lp509
S'@megansu anytime miss Su. '
p510
ag6
aa(lp511
S'@AFineFrenzy wich colour do you painted your nails  ?'
p512
ag6
aa(lp513
S'http://twitpic.com/6q1hs - Fav of the day '
p514
ag6
aa(lp515
S"@LISAAASTHOUGHTS we're so coolish  hahaha, that is my new favourite word! "
p516
ag6
aa(lp517
S"Hi @NameCheap - out of interest what is the rule of you mis-spell something and re-enter your answer? I've done it twice in 24 hr "
p518
ag3
aa(lp519
S"Feeling really good- had a great workout  Now tackling these Sunday chores. Waiting for my personal assistant's @MissMillions assistance!"
p520
ag6
aa(lp521
S' i got yelled at 4 helping the cats by my neighbor'
p522
ag3
aa(lp523
S'has her maths exam this morning '
p524
ag3
aa(lp525
S'is looking at a blackberry curve 8900 '
p526
ag6
aa(lp527
S"@z0mbie_ I'm en route to the bar. No one wants to stop to the mall "
p528
ag3
aa(lp529
S'doing assignment .. due monday so i can watch my bf tomorrow '
p530
ag6
aa(lp531
S"@lastyearsgirl_ I think so. She's got a strange look in her eye. I kinda half wanted her to come out with her cat tonight, crazy cat lazy "
p532
ag6
aa(lp533
S'Have to take macbook in for service  The encasing broke. AGAIN. Guess I will have to work on windows for the remainder of the evening '
p534
ag3
aa(lp535
S'First tweet of the day is a rant at the stupid bus driver who was not gonna accept my ticket till I kicked up a fuss!!! Mean man! '
p536
ag3
aa(lp537
S'@MelissaGuei I wish I had korean bbq... all I had for dinner was a turkey sandwich  I feel poor'
p538
ag3
aa(lp539
S"@esoterismo You're welcome. "
p540
ag6
aa(lp541
S"@teajeni Am useless at stuff like that - can't do pastry or bake cakes "
p542
ag3
aa(lp543
S'I am heartbroken '
p544
ag3
aa(lp545
S'18 degrees at 10 in the morning, home office is like a sauna! Pulled several different muscles yesterday. '
p546
ag3
aa(lp547
S'oh where, o where, did my Buhbie go? oh where, oh where, can he be? back down to 161 folks '
p548
ag3
aa(lp549
S"Holy shit!?! 01.25am and I've got school tomorrow? :o I think I have to drop Heroes today!  where did the time go? Goodnight then xx"
p550
ag3
aa(lp551
S'@daphnemaia Guten Appetit  Have a good time there. The pineapple is simply divine.'
p552
ag6
aa(lp553
S"@pipupipu That's twitter client for Nokia fones "
p554
ag6
aa(lp555
S'@brianna_v Haha I bet you are uber happy about that '
p556
ag6
aa(lp557
S'@princessa_the1 congrats on getting your paper in  em is going to join us at robarts later...the more the merrier, even if its em :p'
p558
ag6
aa(lp559
S'just had a shower, so shes nice and clean '
p560
ag6
aa(lp561
S"@backpedalling @katherinekenny Recently bought everything by them on iTunes. Well worth it. Playing Electric Picnic but I'm not going "
p562
ag3
aa(lp563
S"RIP Acer Aspire 2010, you've been great to me for 4 years of my undergrad! Everyone say bye to lappie! "
p564
ag3
aa(lp565
S"@KeatWave We purchased PS3, had PS2 before that, &amp; then won the Xbox so I'd consider myself unbiased &amp; Xbox just blows the PS3 away sadly "
p566
ag3
aa(lp567
S"sad then @kennykillah didn't send me a morning email "
p568
ag3
aa(lp569
S'God I wish I could sleep more than 3 hours a night after I go out '
p570
ag3
aa(lp571
S'@casiestewart I dont know how to drive a stick OR auromatic lol '
p572
ag3
aa(lp573
S'@silvermarquis Sure thing.    We can also compare notes between sessions.'
p574
ag6
aa(lp575
S'@tommcfly Why did he have to kiss her?? And I wish if he did have to kiss her it was me '
p576
ag6
aa(lp577
S'@jimmyfallon you are doing an amazing job with the show, keep up the great work! you always make me laugh no matter what '
p578
ag6
aa(lp579
S"Can't wait for Toy Story 3 too. LOL "
p580
ag6
aa(lp581
S'@TEYANATAYLOR yeahhhhhhhh!!!!!!!!!!! lmfaoooooooooooo kobeeeeeeeeeee '
p582
ag6
aa(lp583
S'@spaceisgood Hey, some really great shots! Well done! '
p584
ag6
aa(lp585
S"I've got three other days not in school, and this means much science h/w from mcguinness. "
p586
ag3
aa(lp587
S'man.... cant just have this sitting around. bout to go lay it down. heading to the studio in a few. [ yes. im still in ATL] see about me. '
p588
ag6
aa(lp589
S'@scarletmandy well you are far to kind! and THAT is why I LOVE you  So when are ya coming to Toronto so I can LIFT you?'
p590
ag6
aa(lp591
S'@casparterhorst put in your fakes and receive reals  fresh money is popular in China, especially around NY, so change old notes for new.'
p592
ag6
aa(lp593
S"@trixie360 I'm glad I could have breakfast with you sweetie. "
p594
ag6
aa(lp595
S'flying to Dorchester all on my own '
p596
ag6
aa(lp597
S"Looks like it's going to storm. No bike to work "
p598
ag3
aa(lp599
S'this day turned into not such a good day. tear '
p600
ag3
aa(lp601
S'i HATE working out  i feel like crying when i do it :L:L:L so tireed and hungry now  woooo foood'
p602
ag3
aa(lp603
S'@jennydavis LOL! I thought that was a NY accent he picked up from all those years out there. '
p604
ag6
aa(lp605
S'@stonernation Wait I posted my post 7 minutes ago during the first.. does it make it invalid? You just announced it 27 minutes ago '
p606
ag3
aa(lp607
S'@Daxter80000 oh okay.  I got scared in the hospital morgue. I swear I heard someone grunting.'
p608
ag6
aa(lp609
S'@dorkexposed thanks.... I do take my drinking seriously when I do   the days of cheap ass beer are long gone'
p610
ag6
aa(lp611
S'Walking w jacks n alexis! No salsa lessons today!!! Ahahahhaha '
p612
ag3
aa(lp613
S"@Psychic09 Oh ok, then don't worry about it if you can't see anything. "
p614
ag6
aa(lp615
S'Getting ready for work 830am-130pm. And then class at 4. How DO I do it folks '
p616
ag6
aa(lp617
S"@kellyhines I'm on episode 5 of Lie to Me! It really is a very good show  Thanks for the suggestion!"
p618
ag6
aa(lp619
S'@chelleysmiles come come saturday.  if you guys can. '
p620
ag6
aa(lp621
S"We are headed up to Fremont today. Tomorrow is the viewing and then Tuesday is my Grandpa's funeral. It'll be a rough couple of days. "
p622
ag3
aa(lp623
S'Repos update always takes time when you are in hurry.. '
p624
ag3
aa(lp625
S"I'm eating now ...ouch my stomach hurts "
p626
ag3
aa(lp627
S'shower...ride to buggy... '
p628
ag6
aa(lp629
S"decided to go with soup cos the final ingredient i have, blackberry sponge pudding mix, doesn't go with my others "
p630
ag6
aa(lp631
S"Redbox, Hardee's and then home! "
p632
ag6
aa(lp633
S'I Really Wanna Go Bowling '
p634
ag3
aa(lp635
S'Goodafternoon twitter fam '
p636
ag6
aa(lp637
S"@stratosphear I missed this tweet.. but I understand. I'm being prodded by others  they are obviously not in favor, no mat'r whats said"
p638
ag6
aa(lp639
S"ugh. only half way home and we have been driving for ages  and macca's internet is sooo slow"
p640
ag3
aa(lp641
S'looking forward to karaoke session after work today ^^ no swimming this week '
p642
ag3
aa(lp643
S"I swam. It hurts. It's a good kind of hurt. Apart from that. That's the bad kind of hurt. owwww "
p644
ag3
aa(lp645
S'my mum was doing waitressing last night @ a wedding,julian rhind-tutt aka mac from green wing was a guest there! i have his place name '
p646
ag6
aa(lp647
S'I miss everyone from K4 '
p648
ag3
aa(lp649
S'@Hedgewytch @exsanguinator loves all things scifi fantasy and comics so should be able to engage over such things as well as being a geek '
p650
ag6
aa(lp651
S"me and jesse just made the most delicious cup cakes! ...combined with criminal minds s3 and coffee and i'm in my happy place "
p652
ag6
aa(lp653
S'@PJA4ever kl ok,  yay GO GO Paula , thank u'
p654
ag6
aa(lp655
S'I am realising I know nothing of popular culture - hahaha '
p656
ag6
aa(lp657
S"@rxrrazorblade Poor you.  I just finished work. You'll get through the day."
p658
ag3
aa(lp659
S"@tennisDijana That's it! FEDERER's the CHAMP!  6-1; 7-6; 6-4"
p660
ag6
aa(lp661
S'@Mattdavelewis Awesome new picture '
p662
ag6
aa(lp663
S'people make me smile. '
p664
ag6
aa(lp665
S'@NUfBXH Thanks '
p666
ag6
aa(lp667
S'man man man ....   R.I.P. TO MY 4th 360 And ED MCMHAN .... or however u spell the las name Sorry!! lol'
p668
ag3
aa(lp669
S'This day is a total let down. '
p670
ag3
aa(lp671
S'@courtneyjayneee preety keen for snuggles/big spooning...its soo cold out.!  what you up too fangz? '
p672
ag6
aa(lp673
S'@ddlovato R u doin the brimingham(uk) concert with the jb ? cuz i wana cum c u in concert so bad but u ent doin concerts in the uk '
p674
ag3
aa(lp675
S'interview this evening '
p676
ag6
aa(lp677
S'@ksaim @jasonloucks It was self assigned homework. Gotta stay on top of things. '
p678
ag6
aa(lp679
S'my grandparents are leaving today. '
p680
ag3
aa(lp681
S"so hungry! but there's no food "
p682
ag3
aa(lp683
S'Just arrived at school... Late again '
p684
ag3
aa(lp685
S'gorgie- why do you swear, me- BECAUSE. ur reaction to it is funny  gorgie then got a pissed off face and chased me round the house '
p686
ag6
aa(lp687
S'@LeighanneReena Thats great Brian came home. My husband is deploying for 4 months come June 8th. Not looking forward to that. '
p688
ag3
aa(lp689
S'today has not had a good start but i think itll get better. im hopeful '
p690
ag6
aa(lp691
S'@avl94 Surprising? Am i that bad  haha.'
p692
ag3
aa(lp693
S'Vital Information #2: Space travel will make people ugly  http://tinyurl.com/p3u8n3'
p694
ag3
aa(lp695
S'@geri1980 oh yeh it will be eh. i cant wait '
p696
ag6
aa(lp697
S'Awww my Whitestrips are not staying on '
p698
ag3
aa(lp699
S'All folk are speaking about is theman found dead on highstreet '
p700
ag3
aa(lp701
S"@itszMC I am going to Fairfax, VA.. probably nowhere near where you'll be   It was so great to meet you in Lancaster!!!"
p702
ag3
aa(lp703
S"Don't like black used as base (for most cases)... It's sinister  and it's hard for the eyes to relax - the readability's compromised..."
p704
ag6
aa(lp705
S'@whelming lol ok then ...im guessing she didnt. lol..i have forgoten to come on here :O im a bad tweeter.. '
p706
ag3
aa(lp707
S'@MissKatiePrice DId u enjoy the fashion sohw was it fun  x'
p708
ag6
aa(lp709
S'what do you think?  Hum........workin.....  '
p710
ag3
aa(lp711
S'I hear the ice cream man!!!!!!!  and its actually going slow!! '
p712
ag6
aa(lp713
S'@rxmxa sad, we never see Dan Dance anymore. '
p714
ag3
aa(lp715
S"@topdan Oh heck no shame Nev.  Tx for playing The Love Game by Lady Kaka tho... it's a fun song. ;-) Hope the queues are short! xx"
p716
ag3
aa(lp717
S'\xe2\x99\xab Working on a new Single for someone speshull ^^ Shhhhhhhhhh...should be done by today  http://tr.im/nyfY'
p718
ag6
aa(lp719
S"@TiphTiph I'm fine.  Did a crazy dip last night and a back muscle went, quote, &quot;sproing&quot;. But ice and a good night's sleep worked OK."
p720
ag6
aa(lp721
S'Missed all my Sunday night cartoons as the parents and myself were hanging my ceiling fan '
p722
ag6
aa(lp723
S'We lost  . what a day.'
p724
ag3
aa(lp725
S'@rapslikeportman BK sounds hella good  can we go after 6 ?'
p726
ag6
aa(lp727
S'Sooooooooooooooooooo cold '
p728
ag3
aa(lp729
S'Ah crap, work is becoming more difficult. Nethack and TV off to the side now '
p730
ag3
aa(lp731
S"I'm confused as to what to do with twitter haha "
p732
ag3
aa(lp733
S"is so very very tired, but can't sleep after a creepy day.  Meanwhile Abby is snoring it up  lucky dog!"
p734
ag3
aa(lp735
S'looking forward to June 12th '
p736
ag6
aa(lp737
S"Ok its 5am n I can't go to sleep!! Ugh!! Gotta be up in 4 hrs!! "
p738
ag3
aa(lp739
S'@trayceeking Wish you were here!  '
p740
ag3
aa(lp741
S"2.12am and i'm still doing my work. must wake up on time tomorrow "
p742
ag3
aa(lp743
S'likes the lyrics and is moving to the music...  '
p744
ag6
aa(lp745
S'well,i finished taking care of grandma. now,im relaxing in my room as im listening to music '
p746
ag6
aa(lp747
S'Weather is AWESOME in Phoenix!! Heading to First Friday '
p748
ag6
aa(lp749
S"is heading to bed - going to the silent breakfast in Edmond in the morning, then Ri's Peter Pan Production week begins "
p750
ag6
aa(lp751
S'@Rachecullen  *Hugs* '
p752
ag6
aa(lp753
S"@CherilynnKaye a family party but didn't invite family "
p754
ag3
aa(lp755
S'is getting teary-eyed because of GLOOMY SUNDAY... dang this song is so depressing... '
p756
ag3
aa(lp757
S"@rlich8 did you get any? My friend tried for us since I'm on the road...struck out "
p758
ag3
aa(lp759
S'@MikeDriehorst Always thinking....this is actually going somewhere. '
p760
ag6
aa(lp761
S'thundering again  glad i ran earlier'
p762
ag3
aa(lp763
S"i'm thinking kris allen has more talent than he's getting credit for,i wish he'd win ai, doubt he will. "
p764
ag3
aa(lp765
S'picking up my wardrobe '
p766
ag6
aa(lp767
S'@DonnieWahlberg i wont b  lol x'
p768
ag3
aa(lp769
S'yeah my ish is on the radio..silversun pickups i want to see them live  http://sml.vg/Bk2rXQ'
p770
ag3
aa(lp771
S'Real world is lonely at 4am when you wanna talk to people about your day '
p772
ag3
aa(lp773
S'work gets crapper and crapper every day '
p774
ag3
aa(lp775
S'@ladygagafan1 the stuff that you keep a secret.  once again, im not keeping up with replies. im lammmmmme!'
p776
ag6
aa(lp777
S'@Joecas71 Can I come? '
p778
ag6
aa(lp779
S"Can you believe it:Tomorrow Night will be Jay Leno's last episode of the Tonight Show  I encourage everyone to watch it and welcome Conan."
p780
ag3
aa(lp781
S"@siana_mia Hi sweetie! Great morning here! I hope you're having a good day too. "
p782
ag6
aa(lp783
S"@EczemaTreatment Yeah, a steroid cream and a moisturiser. It does help a bit but I'm still left with it on my arms. "
p784
ag3
aa(lp785
S"Really hoping Watase decides not to kill off my bb Tomite first and that he ends up with Takiko.  I'm so ~delusional..."
p786
ag3
aa(lp787
S'i hope my best frand doesnt move to kenucky!!!! '
p788
ag3
aa(lp789
S"Oh what a busy day this is going to be  now it's time for graduation practice!"
p790
ag6
aa(lp791
S"Morning everyone  looks like it's gonna be nice out today "
p792
ag6
aa(lp793
S"@missjorge you are going to have the most amazing time and accomplish so much while you're over there - i only wish i was coming with you "
p794
ag3
aa(lp795
S'@lucy1568 yeah i looked bad in thht one ! '
p796
ag3
aa(lp797
S"@fia_PWNS I'm so sorry that happened  That's TERRIBLE.  I &lt;3 you!"
p798
ag3
aa(lp799
S"@LorrainesLife watch out for the rusty chain - my 2 week old chain wasn't happy when i didn't clean it "
p800
ag3
aa(lp801
S"You start to see who cares and who doesn't. "
p802
ag6
aa(lp803
S'@Tcell1 -- . Yes '
p804
ag6
aa(lp805
S'Discussing with @ellewhite who should get Carlisle and who should get Jasper '
p806
ag6
aa(lp807
S'Just got done talking about how delicious sweet tea is... And I want some now... Pronto!!!! '
p808
ag3
aa(lp809
S"@venessagarza omg some how I'm sick or allergies or something was not up to partying on strand can't breathe  hows Arizona?"
p810
ag3
aa(lp811
S"have an overwhelming urge to shout 'MOVE IT, MOVE IT, MOVE IT' through a megaphone while standing up in an open topped jeep "
p812
ag6
aa(lp813
S'done packing for Baton Rouge, ready to leave '
p814
ag6
aa(lp815
S"@ jenjele thanks i hope so tooo! i can't believe you guys are graduating tomorrow...ahh "
p816
ag3
aa(lp817
S"@bjornyeo yeah  it's way more fun being &quot;hot, hot, hot&quot; in Boracay than Sg"
p818
ag3
aa(lp819
S'probably batting for other team '
p820
ag3
aa(lp821
S'@chandlervdw I was going anyway, but now...can I smack you with a big PC tower?   #Ta5'
p822
ag6
aa(lp823
S'@stacey79 ...I guess Booth decided to go home...yeah in the middle of the night...hello...so stupid...but yet I still watch... '
p824
ag6
aa(lp825
S"@gerimoran Re the kid kissing the pig - I would have stopped the kid just for the pig's sake. "
p826
ag6
aa(lp827
S'Goood night twweeeterr!! I just ate so much my tummy really hurts!  !'
p828
ag3
aa(lp829
S'@jshe lolz '
p830
ag6
aa(lp831
S'@clarisseCHICKEN aim, please '
p832
ag6
aa(lp833
S'@ANF16 ur silly. '
p834
ag6
aa(lp835
S'why am i alot sicker today than i was yesterday?  if i was this sick yesterday i wudda been able to miss school. . .'
p836
ag3
aa(lp837
S"@chrisdejabet http://bit.ly/KDkvO  twitter can't tell time  #getoffmylawn"
p838
ag3
aa(lp839
S"@persiflage It's not just you. "
p840
ag3
aa(lp841
S'going out is too much effort man  damn this week!!!'
p842
ag3
aa(lp843
S'Just got up getting ready for school '
p844
ag3
aa(lp845
S'Without electricity for 9hrs and counting '
p846
ag3
aa(lp847
S"@gmgcam sounds like a great day  Today I'm waiting for a friend, he looks after my Computer &quot;problem&quot; and I want to learn for some exams"
p848
ag6
aa(lp849
S'heigh-ho, heigh-ho, to feed the hungry i will go!!! want to join?  Hit me up! (214) 317-0485  @ Cathedral Of ... http://loopt.us/UjcNkw.t'
p850
ag6
aa(lp851
S"@pugofwar It Sucked and then I Cried by Heather Armstrong. It's no Twilight  What book are you on now?"
p852
ag6
aa(lp853
S"let's all think about @randomflowers who is today going to secure her place at her first choice uni "
p854
ag6
aa(lp855
S'What a great weekend.... and now im abusing my brothers new laptop... and this is my 500th twitter..... '
p856
ag6
aa(lp857
S"@joshcook83 Weird, huh? I guess my mind's in the gutter. "
p858
ag6
aa(lp859
S'@juliesauce why thank you '
p860
ag6
aa(lp861
S'@ChristinaGayle I was recently at a local event where @zarbees was talking about  a mom who took the medicine. just found out it was you! '
p862
ag6
aa(lp863
S'@Earl52 Tell us what fire ants are then maybe we can come up with suggestion '
p864
ag6
aa(lp865
S'hates Live being down, at least I have Broken Steel to support me. I miss World at War '
p866
ag3
aa(lp867
S"@coreyperlman I would if I could, it's for my husband and I'm not excited about the plans! But we've put it off for 2 Fridays now. "
p868
ag3
aa(lp869
S'Is tired but so much to do '
p870
ag3
aa(lp871
S'Afternoon folks!No tweets from me yesterday due to my excruciatingly painful sunburn  I officially hate the sun,bring back the rainy days!'
p872
ag3
aa(lp873
S'Somewhat dreading my graduation ceremony. '
p874
ag3
aa(lp875
S'Ahh Graduation was The BESSt!! wooot-woot  Cant Wait For Summer!'
p876
ag6
aa(lp877
S'my laptop is now somewhere. but not here.  hopfully it will get fixed.'
p878
ag3
aa(lp879
S'is now stressed about history  GREAT'
p880
ag3
aa(lp881
S'Sitting in a dentist chair getting two cavities filled  I am very unhappy'
p882
ag3
aa(lp883
S'@cherry_darling haha i agree.. @GamerManiac512 see gamer naps are nice '
p884
ag6
aa(lp885
S'@langfordperry The reader was good..................Im still traumatized '
p886
ag6
aa(lp887
S"Alright, can't do much with this fuckin' headache so I'm just going to pass out. Agh, paaaain. "
p888
ag3
aa(lp889
S'its that time of month again... newsletter writing time  it always makes me so sleepy!'
p890
ag3
aa(lp891
S'just finish doin a mile... its officially my everyday routine '
p892
ag6
aa(lp893
S"@gerdaduring LOL, so ur 'supervising' and providing encouraging support then. Like your style "
p894
ag6
aa(lp895
S"@allisondean hmmm nope, but I'll look it up on iTunes  thanks for the recommendation!!!!"
p896
ag6
aa(lp897
S"@evanslusher - I'll take mine medium-rare please.  With mustard on the side.  Thks!  "
p898
ag6
aa(lp899
S'hmmm. should i take a nap and then watch the MTV movie awards?? ... dont think sooo  way too tired. its 1:27am'
p900
ag3
aa(lp901
S'&quot; And how you can find love in un-expected places, and how best friends can become un-familar faces&quot;-Lina Reaffalli  it saddens me '
p902
ag3
aa(lp903
S'Oh my god I am addicted to tweeting already '
p904
ag6
aa(lp905
S'dad took max for a walk '
p906
ag6
aa(lp907
S"@ldntown yes, i'm very happy to be coming up there. i miss u &amp; arch &amp; lady barksalot. "
p908
ag6
aa(lp909
S'@YoungQ I told you we will go thru a 12 step tweeting program. '
p910
ag6
aa(lp911
S'wish this stupid flu would go away already! ; doctor didnt help it at all '
p912
ag3
aa(lp913
S"just woke up and I am wishing today wasn't suck a busy day      Too much to do"
p914
ag3
aa(lp915
S'is gutted that the GreenDay RockBand is only down load and 3 song waz hopein for a sepcial addition full on GreenDay RockBand game '
p916
ag3
aa(lp917
S"I barfed on the floor and Momma is mad.  I'm sorry, Momma, I'm sorry.  "
p918
ag3
aa(lp919
S'@StephanieFrank total synchronicity my friend - I was JUST looking at your name on my calendar this week &amp; smiling. '
p920
ag6
aa(lp921
S'riding in cars with boys... my pinched nerve is killing me '
p922
ag3
aa(lp923
S'Thats was ment to be really like, with a space in the middle '
p924
ag6
aa(lp925
S"@SimplySib oh the joys of stalking people....seriously it just becomes easier and easier. Booo Jimmy Carr didn't reply to you "
p926
ag3
aa(lp927
S"I've got something to say... "
p928
ag6
aa(lp929
S"i was just kicked out of @youripoddoc 's live chat for doing nothing "
p930
ag3
aa(lp931
S'@DiannePulham OOOOOOOO who with? (im not neither but thats because i need to study  )'
p932
ag3
aa(lp933
S'I am sooo hungry!! 2 hours till my next meal '
p934
ag3
aa(lp935
S"@questlove wait..how can you, if i'm here? "
p936
ag6
aa(lp937
S'Sad making! Bought Guitar Hero Metallica for my hard working soldier and it is not reading disc! '
p938
ag3
aa(lp939
S'@aileen2u2 I have permanent bad hair whatever the weather '
p940
ag6
aa(lp941
S'The Purple Turtle was VERY dark last night. I got some good videos of the bands but they are a bit dingy  Will upload later.'
p942
ag3
aa(lp943
S'just watched the new moon trailer, i like it '
p944
ag6
aa(lp945
S'setting up my music youtube '
p946
ag6
aa(lp947
S'@Dunkndisorderly Who the HELL is Duncndisorderly? '
p948
ag6
aa(lp949
S'Bored and tired + my ipods nearly dead and the charger is at home '
p950
ag3
aa(lp951
S'@LittleFletcher http://twitpic.com/6go2v - haha hlove your face!  and your hair is AMAZIIIING *----*'
p952
ag6
aa(lp953
S'I wish Scotland was going to the World Cup next year in South Africa - we need a miracle    #England'
p954
ag3
aa(lp955
S"@philaskew rocks doesn't it? i'm pretty much on @evernote 24x7x365 follow them too for ron's tips every few days "
p956
ag6
aa(lp957
S'off to work '
p958
ag3
aa(lp959
S"@MissysNoAngel aaahhh ok, i'll check that out, thanks! "
p960
ag6
aa(lp961
S'@JonDoll thank u I can always count onuto make me smile  x x'
p962
ag6
aa(lp963
S'turkey sandwich, rocky road and a rocket to the moon make revising seem tolerable '
p964
ag6
aa(lp965
S'@walthern thanks for your welcoming '
p966
ag6
aa(lp967
S'hair and makeup '
p968
ag6
aa(lp969
S"LOVED worship practice today! Lenny, Kelsey, Woodward &amp; Jordan- you rock! Now i'm at work.. Total damper on my good day "
p970
ag3
aa(lp971
S'Good Morning All '
p972
ag6
aa(lp973
S'It would be perfect if @mitchelmusso @mileycyrus @themasonmusso and @tracecyrus ALL touring together! '
p974
ag6
aa(lp975
S'Bacardi &amp; fruit punch.... wtf did Moob give me? Lol. &lt;333 WEEE! Mobile party to the Gates of Hell tonight '
p976
ag6
aa(lp977
S'Still at work. '
p978
ag3
aa(lp979
S'@jordanknight I voted Love ya guys. Love Renee '
p980
ag6
aa(lp981
S'Need to buy a bluetooth device for machine '
p982
ag3
aa(lp983
S'@mollydaniele you need an Edward '
p984
ag6
aa(lp985
S'Backing up your iphone cannot be more boring and annoying!!! '
p986
ag3
aa(lp987
S"@onetootwee That's cuz you are the amazing "
p988
ag6
aa(lp989
S"@Preaka Hey  I kind of am, I'm listening to Coldplay and just a bunch of stuff. Hope you have a great weekend "
p990
ag6
aa(lp991
S'So proud of @henrygerson for his decision to be under water. Congratulation!! '
p992
ag6
aa(lp993
S'Damn!!!!! Why did I have to have a good heart..... I gave up the big room!!!!!!!! '
p994
ag3
aa(lp995
S'@heybobnanna I tried to go, but it was sold out  Like early this week too! Have fun!'
p996
ag3
aa(lp997
S"@thatsjustmee haha i didn't sleep more than that myself  and now i'm at school, i'm sooo bored, and i have 5 hrs left.."
p998
ag3
aa(lp999
S"Haha sister and I were just yelling in anger at the tv so loudly. Puppy did not approve. I can't believe they killed him "
p1000
ag3
aa(lp1001
S"@Darkstallion21 do you mean me? haha, i'm not downtown. i'm at home being a geek and editing photos. NEXT TIME! "
p1002
ag6
aa(lp1003
S'How do you read a book in a day? big or small.... '
p1004
ag3
aa(lp1005
S"@SquareJaw i'm actually having computer problems... not good "
p1006
ag3
aa(lp1007
S'Chillin with Sarahface...Missed her '
p1008
ag6
aa(lp1009
S"N: LOL, ALEX! 'Why is my Bebo in Spanish .. I'M NOT SPANISH, I'M ASIAN.' No shit, Sherlock "
p1010
ag6
aa(lp1011
S"Grrr I got school today  so don't wanna go in :@"
p1012
ag3
aa(lp1013
S"@EvilEmpire It was a shame the way the Yanks lost yday in the last inning, lets' hope they kick ass today. "
p1014
ag6
aa(lp1015
S'@Mastr0 So I was at Hulas Saturday night...not for happy hour though '
p1016
ag3
aa(lp1017
S'I hate days like this! '
p1018
ag3
aa(lp1019
S'@laurennnyo How did i know that was coming !  .......... its better than supporting who you support ;)'
p1020
ag3
aa(lp1021
S'Still home  Going to see Gordon Peterson At the @Newseum on Sunday.'
p1022
ag3
aa(lp1023
S'@ZDAEfron I know '
p1024
ag3
aa(lp1025
S"@drewm Hmmmm, I'll let you away with it this time. I'm keeping my eye on you though. "
p1026
ag6
aa(lp1027
S"I'm going to miss red girl "
p1028
ag3
aa(lp1029
S'WOW!!  had very weird dreams...lol.. KTT I have to tell you about one later...haha   Goin over to KTTS later.. excited '
p1030
ag6
aa(lp1031
S'I cant fall asleep '
p1032
ag3
aa(lp1033
S'Eh. I dont feel so good. '
p1034
ag3
aa(lp1035
S'@Tarale sad! hope you are okay. sounds like you are having a really rough day. '
p1036
ag3
aa(lp1037
S"@AlexAllTimeLow my birthday's wednesday so is my earth science regents. fml. say happy birthday &amp; make it better? "
p1038
ag6
aa(lp1039
S'enjoying time in pennsylvania  fun day at the beach w/the fam'
p1040
ag6
aa(lp1041
S'is distracted from her English essay of doom by ants invading my living room. GTFO you crawly little sods!!! '
p1042
ag3
aa(lp1043
S'just woke up. had a horrible dream about the ocean. will never go to the ocean again. '
p1044
ag3
aa(lp1045
S'@mmitchelldaviss whoa awesome '
p1046
ag6
aa(lp1047
S'@imreallywildin u callin me grimmy '
p1048
ag3
aa(lp1049
S'my dog ran away!  im so sad and lonely!'
p1050
ag3
aa(lp1051
S'@EttejNahgaem your so talented and funny... cant wait for 10 things to premiere '
p1052
ag6
aa(lp1053
S'@Ancheeca Read and replied....love it!! '
p1054
ag6
aa(lp1055
S'NO  stay together, Jon and Kate!'
p1056
ag3
aa(lp1057
S'is getting ready to fly back to the mainland '
p1058
ag3
aa(lp1059
S"arhh, last night. whatta night  love'd it. but feelin' consequences now.  x"
p1060
ag3
aa(lp1061
S"Super pissed. My pedal and pedal board won't be here til next week. Fucking bullshit! my guitar came in 2 days. "
p1062
ag3
aa(lp1063
S'@WeekendPlaybook thanks brother '
p1064
ag6
aa(lp1065
S"Just got done downloading music &amp; My jonas brother cd that I just burned just got stuck in the cd part &amp; won't come out  tinas trying to"
p1066
ag3
aa(lp1067
S"#ilove crossaints &amp; gouda...mimosa and fresh fruit...in  Sanvannah bed &amp; breakfast's   #happiness"
p1068
ag6
aa(lp1069
S'beeeeehh  tired'
p1070
ag3
aa(lp1071
S'forgot my kitchen sink was full of left over sick. I AM NOT AMUSED '
p1072
ag3
aa(lp1073
S'Learning twitter! And rocking out with air1 '
p1074
ag6
aa(lp1075
S"Finallyhome!I was at Princess's casa and it was crowded!ahhh, but i saw @bitetiffanny &amp; others. Fun night! Seee you guys in modesto tmrw! "
p1076
ag6
aa(lp1077
S'Going to guitar center. '
p1078
ag6
aa(lp1079
S'Love the randomness on my way to Morongo Casino '
p1080
ag6
aa(lp1081
S'I just realized why they are called the doobie brothers!!! thanks to charlotte. '
p1082
ag6
aa(lp1083
S"Is watching the Hills finale! It's so sad to see Lauren go! "
p1084
ag3
aa(lp1085
S'i have no idea what to wear to the greek festival tonight '
p1086
ag3
aa(lp1087
S"i'm baaack  8km wuhuu soon i'll finally run 10 "
p1088
ag6
aa(lp1089
S'An F/1.4 prime lens, the easiest way to make a subject pop.  http://bit.ly/q841Z'
p1090
ag6
aa(lp1091
S'@theRemix I know, neither does watching them work out either. '
p1092
ag3
aa(lp1093
S'@om all panels must be 140 words or less '
p1094
ag6
aa(lp1095
S"sitting on bed, packing my clothes, don't know what to pack in ...... "
p1096
ag6
aa(lp1097
S'hmm got in 3 hours ago from drinkin all day, had 1 hours sleep, had a cold shower now its of to college for the day n i feel fuckin great '
p1098
ag6
aa(lp1099
S'at Mandeeeeeeeeees houseeee '
p1100
ag6
aa(lp1101
S'getting on roblox. going to look for something actully fun as a guest as i cant log in and guests cant talk '
p1102
ag3
aa(lp1103
S'@zozzled I once messaged other shardlows on facebook. Never got a response '
p1104
ag3
aa(lp1105
S'@jasmiinel hey! what happen? Anyway, no matter what happen, cheer up okay! Jiayou for CTs! '
p1106
ag6
aa(lp1107
S'ahhh i love waking up on a beautiful morning to the sound of birds chirping and stream flowing '
p1108
ag6
aa(lp1109
S'@sebbity I have tried every combination possible  The order number, customer number, pin number, email :S'
p1110
ag3
aa(lp1111
S'a few chapters in a new book, a big breakfast, and 3 cups of coffee is an excellant way to begin a day '
p1112
ag6
aa(lp1113
S'Working on my world history project, &quot;Ethnic Problems in Yugoslavia,&quot; school in a few hours! '
p1114
ag6
aa(lp1115
S"Ohh by the way man vs wild was amazing!! can't wait to see my loveys tomorrow super excited "
p1116
ag6
aa(lp1117
S"My laconica notices won't sync with twitter.  boo hoo. now im stepping thru the code line by line to fix it. mannnnnnnnnnnnnnnnnnnnnnnnnn"
p1118
ag3
aa(lp1119
S"@xarrrr Who is their support! I can't Wait! Monday is nearly here! "
p1120
ag6
aa(lp1121
S"ughhhh bored, tired, and my head hurts like you wouldn't believe "
p1122
ag3
aa(lp1123
S'Im at my boys wedding and theres nobody here to talk to   &quot;Im TAKEN&quot;'
p1124
ag3
aa(lp1125
S'OK SO W T H MAAN!!!! WHERE IS MY PIC COME ON NOW TWITTER '
p1126
ag3
aa(lp1127
S'@tommcfly the 1st one wont load for us  but i love the pic you had x'
p1128
ag3
aa(lp1129
S"@danielle_kelley I'm at 30 weeks - in the home stretch.  I just dont think the baby realizes this because I'm still getting sick - bleh "
p1130
ag3
aa(lp1131
S"wants to mail @AnoopDoggDesai, @MGiraudOfficial and @DavidArchie. )))))))))) DAYUM. I'M SO BORED. "
p1132
ag3
aa(lp1133
S'Playing a cool surgery game in NDS '
p1134
ag6
aa(lp1135
S"@MasterXell But I like using it... I've been using pidgin for *years*. Oh man, this is so hard "
p1136
ag3
aa(lp1137
S"Where is @jakeofficial....he's definitely been too quiet, miss his tweets!!! "
p1138
ag3
aa(lp1139
S"@1KedUP That's one of my role models!!! I love her  2x for pundits of color"
p1140
ag6
aa(lp1141
S'is gonna miss everyone when they go to ardeche, and i really wish i was going '
p1142
ag3
aa(lp1143
S"Tuned into Radio316's classical music show. Missed 2 hours of it though "
p1144
ag3
aa(lp1145
S"To all the GTD folks out there... I need a faster way for input on my Blackberry? I'm finding it faster to jot on paper and re-transcribe "
p1146
ag3
aa(lp1147
S'In maths with jess.  x'
p1148
ag6
aa(lp1149
S'aff, orkut, vai tomar no cu '
p1150
ag3
aa(lp1151
S'I cleaned the hell outta this place! worked up a sweat. yuck. '
p1152
ag3
aa(lp1153
S'yey! excited for tomorrow! EK! EK! EK! hahaha '
p1154
ag6
aa(lp1155
S'Summary of the day so far... District manager quit... $1000+ rollout of the store... Lost my store keys... '
p1156
ag3
aa(lp1157
S'feels sad today.  Wants to sleep more.'
p1158
ag3
aa(lp1159
S'Well everyone I am going now to the city so I will tweet later! Goodnight gorgeous people! Love to all  x'
p1160
ag6
aa(lp1161
S'@gogreenbeth Awesome, congratulations! '
p1162
ag6
aa(lp1163
S'This party is gonna kick so much ass! I have so much planned, definitely not your typical 21st bday party '
p1164
ag6
aa(lp1165
S"On the bus, on the way home. Excited for tmr's party! "
p1166
ag6
aa(lp1167
S"It's here!  My new precious iphone is here.  It's so pretty.  Unfortunately I can't play with it until I get home and hook it up "
p1168
ag3
aa(lp1169
S'@ichel09 iyaa sii, that exactly what i get from the video..kasian gw masih gw.dasar foxie sialan! '
p1170
ag3
aa(lp1171
S'Who is going to the Online Fashion 100 party tonight in London? I am invited but nobody to go with '
p1172
ag3
aa(lp1173
S'Back home after a great evening, great dialog about leadership, employee engagement, business models, union environments &amp; fly fishing '
p1174
ag6
aa(lp1175
S'Just My Lucky '
p1176
ag6
aa(lp1177
S"Can't afford tickets to see@mileycyrus at the London 02  my life is officially over :'("
p1178
ag3
aa(lp1179
S'@cHRIS_gREGORY you make it sound so easy  I have no idea what U just said lol x'
p1180
ag3
aa(lp1181
S'another 3 more eps, and Berserk(anime) wil be done.. then i can start the one.. '
p1182
ag6
aa(lp1183
S'just back from SuperCheap - a most successful trip. The bikes are tanked &amp; checked for the week, so all ready to start relaxing '
p1184
ag6
aa(lp1185
S"@kirikosage 2:30.  marty can't come, trevon can, don't know abt jake"
p1186
ag6
aa(lp1187
S'yea i be in ohio but that dont mean i love the Cavs... lets go Magic '
p1188
ag6
aa(lp1189
S"@lauraespino awwww so fun!!! Is it pretty out there!??? It's overcast here!!! "
p1190
ag3
aa(lp1191
S"@BennyGreenberg There were about a dozen beneath the article that didn't load for me , or I wouldn't have mentioned it "
p1192
ag6
aa(lp1193
S'Talking to a GAGOV candidate in about an hour. Time to figure out exactly what questions I want to ask him... SOOO many, not enough time! '
p1194
ag3
aa(lp1195
S'pineapple express; such a good movie '
p1196
ag6
aa(lp1197
S'@missiljestrom sorry i always get your Twitter name wrong ! Right, now time to pester Andrew re. djing together  #musicmonday'
p1198
ag6
aa(lp1199
S'@CappyT1982 Cablevision for the win!  I wish I could get 101megs... '
p1200
ag3
aa(lp1201
S'@songbookbaby cryface at you now '
p1202
ag3
aa(lp1203
S'Going to get me a new roomie today  '
p1204
ag6
aa(lp1205
S'@unegami @amyhahm My laptop refused to start up so I took it to the Apple store &amp; apparently my hard drive just decided to stop working. '
p1206
ag3
aa(lp1207
S"Ok! I feel awful and I'm so, so tired. Not funny anymore  * squints as hurts sleepy eyes to look at bright screen *"
p1208
ag3
aa(lp1209
S'@shaundiviney you should start the trend again shaun '
p1210
ag6
aa(lp1211
S'@lilmike11790 @doublea17 @Kayla912 damn I feel left out  this convo is too funny for that http://myloc.me/1MNo'
p1212
ag3
aa(lp1213
S'French class sucks  bored as hell.....'
p1214
ag3
aa(lp1215
S'@bargainmoose thansk for the tip '
p1216
ag6
aa(lp1217
S"@gale_x What's wrong? "
p1218
ag3
aa(lp1219
S'going to go pick up a swag '
p1220
ag6
aa(lp1221
S'so a murder? gotcha.  Cant believe it'
p1222
ag3
aa(lp1223
S"I'm not well- again. I'm all choked up "
p1224
ag3
aa(lp1225
S'so far from away from California '
p1226
ag3
aa(lp1227
S'is cold and bored... '
p1228
ag3
aa(lp1229
S'@alexkontis, @SierraVE looks like my little brother...but my bro has more hairs '
p1230
ag6
aa(lp1231
S"It's been 2 days without gas...the gas company turned it off to do maintenance. I can't cook. "
p1232
ag3
aa(lp1233
S"I'm bored &gt;.&lt;  and when the f*ck is TNT post going to bring me my skelanimals t-shirts? "
p1234
ag3
aa(lp1235
S'A very windy day here in NM '
p1236
ag3
aa(lp1237
S'I miss my puppy... '
p1238
ag3
aa(lp1239
S'@jamesharsch lol of course i do!  that would explain me being excited, knowing someone else does too!'
p1240
ag6
aa(lp1241
S'@8drianopelican0 your tweet was just included in The Longest Poem in the World www.longestpoemintheworld.com/tweet/14279/ '
p1242
ag6
aa(lp1243
S"i don't wanna go to work i wanna go to bed! "
p1244
ag3
aa(lp1245
S'@MikeMilan215 aww u stole my follower  she has a good personailty lmao'
p1246
ag3
aa(lp1247
S"ughhh i'm sick again "
p1248
ag3
aa(lp1249
S'@Itsjustme_Nicki I hope she is getting better. '
p1250
ag6
aa(lp1251
S'@ireneshsu lol I neeed to sleep! Youuuu nite owl '
p1252
ag6
aa(lp1253
S"i am not so feeling well.  class just started, i can't skipped class.. all my subjects now are major."
p1254
ag3
aa(lp1255
S"@KoreanCelt &lt;sigh&gt; No. At work for another hour and 20 min.  I swear as soon as I get there I'm gonna guzzle! (Responsibly.)"
p1256
ag3
aa(lp1257
S"I'm off to fold laundry and go to bed...  Yep it's a crazy Friday night! LOL    Got 1,000 more words though so WOOT!!! "
p1258
ag6
aa(lp1259
S'Out again with the Riot kids. Only a few of us tonight and a special guest. C&amp;O trattoria in Venice. Open air Italian by the ocean '
p1260
ag6
aa(lp1261
S'Why am I awake at 6am on a saturday? Worst excuse for sleep. Ever. Too hot, too many nightmares about spiders in my bedroom. Horrible '
p1262
ag3
aa(lp1263
S'@Hyacinths4 not too shabby '
p1264
ag6
aa(lp1265
S"@shedfire @miketually that's the problem isn't it, Brant mentions creating something and you know it'll be ace and VFM n hard to resist "
p1266
ag6
aa(lp1267
S'Says today is not Sunday, but Ross and Lisa Day '
p1268
ag6
aa(lp1269
S'@AnnaMariaPdT anna!! omg i love your hair!! haha is so cool!! CAN YOU SAY SOMETHING IN SPANISH? try it!  i would be so happy!!! kisses'
p1270
ag6
aa(lp1271
S'Rafa withdraws!!  Looks like Federer will be no. 1 again '
p1272
ag3
aa(lp1273
S'Finally going to sleep '
p1274
ag6
aa(lp1275
S'@Wyldceltic1 So Landileigh got her bag!  *yay*'
p1276
ag6
aa(lp1277
S'back from mall and is super bored '
p1278
ag3
aa(lp1279
S'upset that her relationship with the guy she thought she loved is now over... sums up how i feel right now. '
p1280
ag3
aa(lp1281
S'@Heather_Paige im diggin urs too '
p1282
ag6
aa(lp1283
S'Hi Lyyyyyyyyyyyyyyyssssssssssssssssss You deleted your happy birthday\xc2\xb4s tweet for me, why? I had it in my favs. I\xc2\xb4m very SAD! '
p1284
ag3
aa(lp1285
S'why is it 85\xef\xbf\xbd? thats too hot! i took like 4 showers today '
p1286
ag3
aa(lp1287
S"Sipping on a RedBull - and I don't even really need the extra energy. "
p1288
ag6
aa(lp1289
S'@elaineenglish09 ur luckky u get to go see them  they are freakkin amazing :] their new cd comes out 2moro &amp; im EXCitED [:'
p1290
ag6
aa(lp1291
S'@jerrybarnett ooh yes please! I likes ideas, storms, coffees AND world taking overness! Sounds great! Lunchtime, Warren St area tomozza? '
p1292
ag6
aa(lp1293
S'Going out for a meal with the family later today '
p1294
ag6
aa(lp1295
S'is tired and hungover and does not want to ne bloody studying on such a lovely day booo '
p1296
ag3
aa(lp1297
S'i want nobody nobody but you. and i love sunday pancakes. '
p1298
ag6
aa(lp1299
S"Workin' when it's hot outside "
p1300
ag3
aa(lp1301
S"@lulugirl896 sorry I couldn't there for you today  hope everything is better now!"
p1302
ag3
aa(lp1303
S"Summer 09  ''Let's make a memory'' "
p1304
ag6
aa(lp1305
S'going wherever the wind takes me '
p1306
ag6
aa(lp1307
S'marissa is gone. i have saturday school in the morning '
p1308
ag3
aa(lp1309
S'is sooooooo sick atm.........................feeling terrible '
p1310
ag3
aa(lp1311
S'Awh 3 exams done  xx'
p1312
ag6
aa(lp1313
S'Follow Billy Burke. Or I will find u. He is very nice. Also follow Peter Facinelli and Gil birmingham and..... me Pweez? '
p1314
ag6
aa(lp1315
S"Goodmorning tweets!! Off to the gym after school  Hopefully I'm not too sleepy XD"
p1316
ag6
aa(lp1317
S"http://twitpic.com/5d2zm - forever and ever,don't matter what "
p1318
ag6
aa(lp1319
S'http://twitpic.com/6bdl6 - At hm bored on a sat... Pooooooo '
p1320
ag3
aa(lp1321
S'WOO. ALY IS COMING OVER. I misssss her.  &lt;3 P.S. HI LISSA. xD'
p1322
ag6
aa(lp1323
S'I want my tattoo, and dreads, and lip piercing. Now.  Screw the &quot;under my roof under my rules&quot; law made by mothers everywhere.'
p1324
ag3
aa(lp1325
S"I'm heartbroken watching my poor puppy limp around the house! He hurt his paws when he fell in the pool yesterday "
p1326
ag3
aa(lp1327
S'no sunshine yet, this weather is so dreary '
p1328
ag3
aa(lp1329
S'@reankell DAMN!!!  got me all excited for a min there '
p1330
ag3
aa(lp1331
S"I have a picture of Britney Spears covering the screen of my cell phone. She's a nice companion. "
p1332
ag6
aa(lp1333
S"@Kanthalas I'm a lonely boy "
p1334
ag3
aa(lp1335
S'@CheekiThaSinger Prayers are still w u, get well soon. '
p1336
ag6
aa(lp1337
S'nothing. nobody to talk with and i cant find my blade '
p1338
ag3
aa(lp1339
S"Dumbledore's dead and so is Hedwig  I really liked Hedwig..."
p1340
ag3
aa(lp1341
S'random fact 1; i have a birth mark on my side in the shape of puerto rico  i wanted to feel cool too'
p1342
ag6
aa(lp1343
S"Good moviee! I don't feel good. "
p1344
ag3
aa(lp1345
S'@victoriastrauss you know, i would love to see 5 lies editors believe about writers. #justsayin '
p1346
ag6
aa(lp1347
S'Off to bed...Monday will come way too early for me. '
p1348
ag3
aa(lp1349
S'If im so annoying then why do YOU keep talking to me?! Seriously, idgaf '
p1350
ag6
aa(lp1351
S"&quot;king james left the playoffs as a loser&quot; by adrian wojnarowski http://tr.im/n7vc is spot on...and a sad commentary on lebron's &quot;legacy&quot; "
p1352
ag3
aa(lp1353
S'Morning world! I have a lonely day ahead of me. Just me in the @EcoSearch office all alone '
p1354
ag3
aa(lp1355
S'@TaperJean_Girl_ Good morning!! Have you missed JK then  xxx'
p1356
ag3
aa(lp1357
S'@ChaosKittyPie ILL BE YOUR LITTLE SIS!  wait, am I older than u...?'
p1358
ag6
aa(lp1359
S'Did hatton win? I missed it '
p1360
ag3
aa(lp1361
S"@fenderlove in reply to CDS. You'll love him, them even more when you've been through all the music vids  I want to see them in concert"
p1362
ag6
aa(lp1363
S'@sarahfrance Man, CGtextures got me through my final major college project in style '
p1364
ag6
aa(lp1365
S"@drakkardnoir I see you don't have a tweet addiction, and that's great! "
p1366
ag6
aa(lp1367
S"OMG MILEY IS CONECTED AND I CAN'T DO NOTHINGGGGG "
p1368
ag3
aa(lp1369
S'Wkend is now here! let the sun shine and the drink flow '
p1370
ag6
aa(lp1371
S"14 hours until i see Adam again. Haven't seen him all week "
p1372
ag3
aa(lp1373
S'Gotta go pay some bills now.. I seriously need some sleep '
p1374
ag3
aa(lp1375
S'@slkrck Bring it! '
p1376
ag6
aa(lp1377
S'@TomFelton You are so lucky, I wish I had some in the house. My day has been terrible. '
p1378
ag3
aa(lp1379
S"@daisyrjordan that's amazing. they'll do a concert here in may 28, a day after my birthday but my dad don't let me go "
p1380
ag3
aa(lp1381
S'Just dropped my muffin on the floor.  '
p1382
ag3
aa(lp1383
S'Waiting to go to the club! have to say goodbye to Jazz! waaaaa '
p1384
ag3
aa(lp1385
S"@antoine_i I guess that's just the mentor in me...trying to save the youth LOL! But her voice is amazing, fav song is Some Unholy War!! "
p1386
ag6
aa(lp1387
S'@carobuckman Happy Birthday, Caroline '
p1388
ag6
aa(lp1389
S'@Andrew_Johnson Oeh oeh oeh, thanks for reminding me  I will check it out later '
p1390
ag6
aa(lp1391
S'@officialTila how come no reply back Tila? '
p1392
ag3
aa(lp1393
S"@Seorse Sweet! You're gonna LOVE it! Pssst! The butler didn't do it! "
p1394
ag6
aa(lp1395
S'still in PJs and i got up like an hour ago haa x looks like another lazy day '
p1396
ag6
aa(lp1397
S'@HerEvilRoyalty Hmm have been quite intrigued by it for a bit so sounds a good idea '
p1398
ag6
aa(lp1399
S'@mantic59 The pleasure is all mine '
p1400
ag6
aa(lp1401
S'i wish i had polarizer for my wide-angle '
p1402
ag3
aa(lp1403
S'waiting to smoke. wishing class was canceled '
p1404
ag3
aa(lp1405
S'david plzz reply in my account plzz need some follow up to you  im the one of some you fans  i really like your songs '
p1406
ag6
aa(lp1407
S'@BooDy I switched to linux.. Yamli is great.. but mesh bas7melo for long writings '
p1408
ag3
aa(lp1409
S'about to go on a walk with adam... '
p1410
ag6
aa(lp1411
S"Back people.... I'm getting sleepy already... "
p1412
ag3
aa(lp1413
S'@_Cube_ LOL glad u liked it  ... i thought it was funny but, i had consumed 2 glasses of wine '
p1414
ag3
aa(lp1415
S'@schwern not_ok please '
p1416
ag6
aa(lp1417
S'On my way to work out! '
p1418
ag6
aa(lp1419
S"I'm stuck in an elevator right now. And I wish I was kidding "
p1420
ag3
aa(lp1421
S'@moble thank u SO much,I didnt see ur tweet until now,have no idea how I missed it!thanx 4 the follow,hope 2 interact w/ u in the future! '
p1422
ag6
aa(lp1423
S'Ok so the eye is getting worse, me thinks a trip to the hospital may be in order '
p1424
ag3
aa(lp1425
S'Movies!!! Munching on some popcorn (yum) '
p1426
ag6
aa(lp1427
S"Saw Up instead. Yes, still a kid @ heart, but @ least now I'm old enough to drink. Can I get a &quot;Cheers&quot; for that?!? "
p1428
ag6
aa(lp1429
S'OK for real I am going to sleep. I am so discombobulated being out of my normal habitat. I miss my bed invading snoring little girls. '
p1430
ag3
aa(lp1431
S"@Jonasbrothers &quot;Paranoid&quot; ... OMG.. I Love this song!!  &quot;Hey Baby&quot; It's so pretty!! "
p1432
ag6
aa(lp1433
S'http://twitpic.com/6r1m5 - Cooking lunch with nicole '
p1434
ag6
aa(lp1435
S'@juanamyupangco yup hes been sick.  YA it was fun but now am sick. '
p1436
ag3
aa(lp1437
S"@jeffaxup E-mail has some serious issues, and Wave definitely has potential in supplanting it. Especially as it'll be pushed by Google "
p1438
ag6
aa(lp1439
S'@tommcfly Lucky you '
p1440
ag6
aa(lp1441
S'I left my heart @holdenbeach  Hoping to go back for a couple of days around the fourth (via @AnNa_HaLe)'
p1442
ag3
aa(lp1443
S'The smell of Pin-Sol shall reign for 1000 years in my bathroom...or until Rusty takes a crap. Whichever comes first '
p1444
ag3
aa(lp1445
S"@deathburlesque same here, love! summer cannot come fast enough! I miss you terribly!  I'm sorry you're sick! *hugs*"
p1446
ag3
aa(lp1447
S"@ashgant I'm sorry!  you looked put of it at lunch...boo on being sick!"
p1448
ag3
aa(lp1449
S'@gaiansoul I honor your new name, and feel sadness at the &quot;loss&quot; of the old one. The loss is mine - not yours. You are growing! '
p1450
ag6
aa(lp1451
S"Cookies for breakfast!  They have oats and peanut butter so it's ok "
p1452
ag6
aa(lp1453
S'raining...raining...raining... '
p1454
ag3
aa(lp1455
S"@yeager OMGosh.. i'll go change it right now...   thanks so much for letting me know."
p1456
ag3
aa(lp1457
S'Cleaning, laying out with Nicole, Visiting RIC later '
p1458
ag6
aa(lp1459
S"Everyone is going Crazy. This isn't a sad graduation whatsoever  "
p1460
ag6
aa(lp1461
S'@MarielleBait yea like how they ended friends '
p1462
ag3
aa(lp1463
S'I gotta get back INTO today. Geez. Really not on top of my game today. All the star wars shiat 4 today. Just reminds me of jedi FAIL '
p1464
ag3
aa(lp1465
S"@jack_welch Nice article. Y're right about Twitter allowing you to be on a sort of cocktail party. Even to those you where not invited "
p1466
ag6
aa(lp1467
S"in @snajd 's hood - shopping for a lamp "
p1468
ag6
aa(lp1469
S'@tledford then please send some my way! I still feel icky!! '
p1470
ag3
aa(lp1471
S"I'm following 268 people. How many tumblelogs are you all following? - kellylove: 297. 606 77 1183.,  128... http://tumblr.com/xeo1wykkz"
p1472
ag6
aa(lp1473
S"ok so I am drunk, so sue me.. fuck you I don't care, you got a problem with it??!? of course you don't... no one cares. I'm full of it "
p1474
ag6
aa(lp1475
S'@lameymacdonald Will do....the commissoned piece got a bit to go but will give you the nod '
p1476
ag6
aa(lp1477
S'@MelRy217 GOOD LUCK TOMORROW ON MONDAY!!  you and tye looked so cute in the pictures from the maxim party! '
p1478
ag6
aa(lp1479
S'@tickledtink no problem! There will be more  hope all is well.'
p1480
ag6
aa(lp1481
S"@TherealRyu If I'm ever in town you'll have to introduce me to this legend so I can see what I'm missing. ;)  Deal? "
p1482
ag6
aa(lp1483
S'@hayleyjfoster awww sweety! '
p1484
ag3
aa(lp1485
S"Yahoo, thanks for creeping me out with the &quot;2012&quot; trailer.  By the way, didn't say this yesterday.. RIP Gary Papa. "
p1486
ag3
aa(lp1487
S'@riapatel HAHAH BLATES. ohmy, i didnt ring you earlier :S i was out til about half 5 so i kinda forgot about it '
p1488
ag3
aa(lp1489
S'*cough cough splutter sneeze*  Uuuurrgggh.  Morning.  http://tinyurl.com/m9797m'
p1490
ag3
aa(lp1491
S'@Doctor_Donna What can I say? The Doctor makes a good cup of tea. '
p1492
ag6
aa(lp1493
S'*yawn* well, im off to bed. Night twitter '
p1494
ag6
aa(lp1495
S'soccer in a couple hours      MAMAS DAY! fiddler was so good!'
p1496
ag3
aa(lp1497
S'is actually going to miss wallyworld  esspecially merdina, thankyou love for making my sift hillarious.'
p1498
ag3
aa(lp1499
S'Just got email from @lewisdvorkin - @TrueSlant is moving to beta soon. 250,000 uniques, 100 writers, just in alpha!  http://is.gd/RFMH'
p1500
ag6
aa(lp1501
S"Why does it have to rain so? Makes for a crappy father's day "
p1502
ag3
aa(lp1503
S"i'm NOT READY for final exam !! "
p1504
ag3
aa(lp1505
S'Ugh I wish he would just be a man about it. '
p1506
ag3
aa(lp1507
S'Playing Call of Duty 4..i keep getting my behind beat every round  . I need to step my game up!'
p1508
ag3
aa(lp1509
S'@roseji27 happy sunday 2 u! '
p1510
ag6
aa(lp1511
S'@cancercures At ASCO they also talked about how survivors of childhood cancer can suffer from post-traumatic stress disorder. '
p1512
ag3
aa(lp1513
S'@emmsyish I think your new avatar was worth the wait. It seems to capture the essence of your present indisposition '
p1514
ag3
aa(lp1515
S'Meeting is over!!!! Now I have to study for my test '
p1516
ag3
aa(lp1517
S'@thesiren. they minty lux and all that? yes they are lost in the internet ether '
p1518
ag3
aa(lp1519
S"I'm out twit... cuida a mis crazy sisters  @Yadirocker @Rocketwomann"
p1520
ag6
aa(lp1521
S'So happy today  By the way, still have to Fight for tomorrow exams!'
p1522
ag6
aa(lp1523
S"can't believe it's friday already! Happy Birthday @petewentz "
p1524
ag6
aa(lp1525
S"Er, I've been refreshing my browsers a couple of times and there still isn't any download link activated.  Wazzup, Apple? "
p1526
ag3
aa(lp1527
S'I want to party. Michelle, Camilllee, Gerliee... where you at! Justine, why did you have to start summer school NOW? '
p1528
ag3
aa(lp1529
S'wishing @max17r0n would come over '
p1530
ag3
aa(lp1531
S'@Izaaza wot?? why izaa said no? rugi eh  huhu'
p1532
ag3
aa(lp1533
S'Feeling left out, I guess pregnancy will do that to ya '
p1534
ag3
aa(lp1535
S"@ColorblindFish Good! Who knows, I may fall in love w/ the place and go to school there!  Can't wait. Will be my first time there."
p1536
ag6
aa(lp1537
S'Me I want something!  love u'
p1538
ag6
aa(lp1539
S"@Nuff55 Yes, he sent me a message on FB, don't worry about a thing  "
p1540
ag6
aa(lp1541
S'danny and john just left my casa  yay! N64!'
p1542
ag3
aa(lp1543
S"Jet lag, can't sleep and supposed to wake up in 6 hours to work "
p1544
ag3
aa(lp1545
S'SleeP over goin sound  (Y)'
p1546
ag6
aa(lp1547
S'tweeting now '
p1548
ag6
aa(lp1549
S"omfg. why am i still awake!? and why hasn't this tylenol pm started working yet??? urg. "
p1550
ag3
aa(lp1551
S"@avalanchelynn see! the rain's comin' "
p1552
ag6
aa(lp1553
S"@anz_rocks19 I had a mad on this morning. Listening to Tool on my way to work didn't help!  How about you?"
p1554
ag6
aa(lp1555
S'@invisagal Sorry '
p1556
ag3
aa(lp1557
S"@recamel Welcome back!!!  You said you'd send Me something, but I never received anything, figured you didn't get a chance to send it "
p1558
ag6
aa(lp1559
S'I like this sms  --&gt; Jkt arwan 27 halo laras,mau request the whitest boy alive yg br dong. Kpn maen2 k kntr axioo lg?hehe..met siaran ya'
p1560
ag6
aa(lp1561
S'@yesterdaysprize argh I would but I currently lack a vehicle. '
p1562
ag3
aa(lp1563
S"@angelenic I hope every one of them that tweeted while looting goes to jail for looting..  It's a depressing mess in #dtla today "
p1564
ag3
aa(lp1565
S'@DakotaFanning9. What is your email address? For Myspace '
p1566
ag6
aa(lp1567
S'@kristenstewart9 Your background is soo cool I had to stop looking at it though it was beginning to hurt my head :S   Love it though '
p1568
ag6
aa(lp1569
S'@itsme_carolina and i miss YOU, you.. you..  i miss you '
p1570
ag3
aa(lp1571
S"@LennyKravitz ...I'm really sad about that....cheers from Italy "
p1572
ag3
aa(lp1573
S'Revision is killing me now. '
p1574
ag3
aa(lp1575
S"is really bored and really sleepy...and mad she can't find a custom lanyard maker that wont make me buy 1000000 minimum "
p1576
ag3
aa(lp1577
S'I want to know what i did...... '
p1578
ag3
aa(lp1579
S'@MrTomHill Thank a yoou  how are you? #TwitterTakeover'
p1580
ag6
aa(lp1581
S"Nooooo...it's Monday again tomorrow! "
p1582
ag3
aa(lp1583
S'watching andrews twit fit  and i know he can do betterrr xP'
p1584
ag6
aa(lp1585
S"@jeeesss I know, I know...but..aaahhh.  idk..two of my friends are going, and I know I'm just going to feel so left out haha."
p1586
ag3
aa(lp1587
S"Falling asleep gotta wake early 2 go 2 school..... I'm takin summer classes &amp; now I regret it "
p1588
ag3
aa(lp1589
S'is home and having a BBQ '
p1590
ag6
aa(lp1591
S"&quot;It's easier to deliver a small lie, than a painful truth.&quot; - Robin Williams as Teddy Roosevelt. "
p1592
ag6
aa(lp1593
S'@ChicagoGirl Gotcha.  My place is Atlantic side.  Better for surfing   Plus I like to be close to the crazy foreign restaurants. Mmm, FL.'
p1594
ag6
aa(lp1595
S'@iKieran me not been up 2 much lol just revision lol which sucks lol and no xbox 2 play cus bro killed it  so it had 2b set of 2 b fix lol'
p1596
ag3
aa(lp1597
S'@scottrmcgrew http://twitpic.com/6tb4n - yes! this one... I like that your nose is clean and your up on your manscaping '
p1598
ag6
aa(lp1599
S'ehh i have nothing to wear '
p1600
ag3
aa(lp1601
S"Woot! My back is slowly turning less red and more brown since getting toasted yesterday  Thank god it's not an insanely hot/stinging burn!"
p1602
ag6
aa(lp1603
S"has an upper-respiratory infection (and NOT the swine flu!) Still, she's on anti-biotics for the 4th time this year! Not fun "
p1604
ag3
aa(lp1605
S'I still hope warne plays some good shots and make the team win.. And he goes off as i type this '
p1606
ag3
aa(lp1607
S"@VLaverne Happy Mother's Day Mommy i love youuu "
p1608
ag6
aa(lp1609
S"Soo my appt was at 230....i stil haven't seen the doctor "
p1610
ag3
aa(lp1611
S'@Jam_Freeq ~ I feel the same way!! I rocked the show tonight! '
p1612
ag6
aa(lp1613
S'@TrishaMalkin LOL - I always go to a local place that grinds it for me &amp; hubby mixes it w/Folgers and its his own magic blend '
p1614
ag6
aa(lp1615
S"ok guys I'm going to take a nice HOT bubble bath to try and relax after that ridiculous drama...wk n 10 is uploading  enjoy it! loves ya"
p1616
ag6
aa(lp1617
S'On Eurovision 2009: I wanted Russia to win so much '
p1618
ag3
aa(lp1619
S'@KianaBritney i know! season finale '
p1620
ag3
aa(lp1621
S'not gonna give up until #bradiewebb is a trending topic '
p1622
ag6
aa(lp1623
S"Ugh I'm glad today is shopping day. Already feels like a bad day and I know that'll cheer me up "
p1624
ag6
aa(lp1625
S'@hollia369 yep!!!! '
p1626
ag6
aa(lp1627
S"Home from school. Sooo tired. But I got a B in the Englishtest &amp; a C in the Frenchtest  I'm so ready for holidays now."
p1628
ag6
aa(lp1629
S'gots new billie finally!!!   Not only 1 special edition copy but 2 bahahaha'
p1630
ag6
aa(lp1631
S"Morning all. Can't wait to take these photos "
p1632
ag6
aa(lp1633
S'Just let me live my life !!! '
p1634
ag3
aa(lp1635
S'Full day - happy to have been outside and away from my desk '
p1636
ag6
aa(lp1637
S'@stephjonesmusic YEs  lol'
p1638
ag6
aa(lp1639
S"theres 2 many twitter haters out there  but there's also alot of twitter lovers "
p1640
ag6
aa(lp1641
S'@gwynduffy wellllll, i only did it that one time (i will again!) but i have been working out every day. '
p1642
ag6
aa(lp1643
S'Went to FNM...Won once, lost twice. All in All I had fun. '
p1644
ag6
aa(lp1645
S"this isn't fair. i hate this, it's just another reason. :/  D:"
p1646
ag3
aa(lp1647
S'great day  NCDC won Outstanding Student Org. AND Outstanding Community Service Event (Project Pumpkin!) PLUS FNS IM Soccer won 4-1!! WOOT!'
p1648
ag6
aa(lp1649
S'Home... afte the big exam... relaxin... '
p1650
ag6
aa(lp1651
S'has been ill all day. Moves back to Berwick tomorow too! Double '
p1652
ag3
aa(lp1653
S'@themisscazshow Key Skills is DEADLY! hahah! '
p1654
ag3
aa(lp1655
S'Back to reality '
p1656
ag3
aa(lp1657
S'http://twitpic.com/6qdkl - Getting the ticket of Tokyo JAAAAZZZZZZ!!! Yeah! '
p1658
ag6
aa(lp1659
S"@KittyKat_1988 YUS!!    I want Sims.    Might attempt to dig out the Sims 2.  Scared my Disc 1 isn't in the box though. . .  :S"
p1660
ag3
aa(lp1661
S'off school, crappy ill '
p1662
ag3
aa(lp1663
S"@AlfinaHawaii Hey Darling, sounds like you had a great time at the Fair! Hope you're sleeping well! "
p1664
ag6
aa(lp1665
S'was going to go shopping today. but my ass is BROKE!  *tears'
p1666
ag3
aa(lp1667
S'Off to work. I get observed by my Asst. Principal today.  Time for my evaluation.    Hope it goes well...'
p1668
ag6
aa(lp1669
S'@MelodyDarlene, fffffffffffuuuucccckkinnnggg fudge mayne..missed it...thought it was '
p1670
ag3
aa(lp1671
S'@oxofamilydad Hey Oxo am I glad to see you! '
p1672
ag6
aa(lp1673
S'It should have been a night out with the boys from Basildon, turned into a quite night with family in Colchester '
p1674
ag3
aa(lp1675
S"#iremember wearing Tommy Hilfiger down to my socks and drawers..where's Tommy @ now "
p1676
ag3
aa(lp1677
S'headed to Guitar Center and Woodcraft when they open. Unfortunately leaving empty handed '
p1678
ag3
aa(lp1679
S'more sunshine :O why am i still white?  stoopid work'
p1680
ag3
aa(lp1681
S'i love short stack more than... ... ... dammit! im not very creative '
p1682
ag3
aa(lp1683
S"@megandresslar I didn't get in to my other two transfer schools so I didnt expect to get in to Fordham and have to make this decision "
p1684
ag3
aa(lp1685
S'@LilKido http://twitpic.com/6fpsz - They were awesome. '
p1686
ag6
aa(lp1687
S'@AshyJonas uhmm i cant see the mtvm too  until Thursday, whats up\xc2\xb4!? '
p1688
ag3
aa(lp1689
S'Local beauty spot '
p1690
ag3
aa(lp1691
S"I've food poisened myself "
p1692
ag3
aa(lp1693
S'Why do I have to be awake right now. Sundays are meant for relaxing.  Gotta work I suppose...then two days off.  yes!'
p1694
ag6
aa(lp1695
S'without an iphone till friday... '
p1696
ag3
aa(lp1697
S'On t-n.weebly.com adding stuff. Also on photobucket to find some good pictures to spice up the site a bit. '
p1698
ag6
aa(lp1699
S'Wow do i have bed hair, i look like a rooster. I also have a splitting headache!  Did i snore 2 loud?! Blueberry muffin &amp; then excedrin.'
p1700
ag3
aa(lp1701
S'missing housewives finale because i am sooo exhausted '
p1702
ag3
aa(lp1703
S"It's almost 10pm...still waiting at Bunda...it's been 5 hrs...  capeeek..."
p1704
ag3
aa(lp1705
S'fuck!!! I really struggled with 10 miles today  it is noted that i over indulged on @maximopark frenzy week and you could tell!!'
p1706
ag3
aa(lp1707
S'@AllieT1983 I remember those days fondly. But that was back when I found sitcoms funny. '
p1708
ag6
aa(lp1709
S"@elenarr you can make me feel nice and warm ;) cause it's gonna be freezing here.z we're going to some tower placey "
p1710
ag6
aa(lp1711
S"@kezhound I bookmarked 'em for the prices but hadn't ordered yet... so you can pay me back by letting me know how they work. "
p1712
ag6
aa(lp1713
S'@Corina_Bianca who says ugh to a photoshoot! Lol, there fuuuun. '
p1714
ag6
aa(lp1715
S"dear wetzels, I only bought a pretzel dog from you because auntie anne's is cash only. "
p1716
ag3
aa(lp1717
S'@billyraycyrus billy, r u planning to come to PNE again this year in Vancouver? and if u dont, keep us all updated of upcoming shows '
p1718
ag6
aa(lp1719
S'@ the gas station waiting for my daddy to come pump my gas! I hit the snooze button 4 times this morning  super sleepy'
p1720
ag3
aa(lp1721
S"Can't say I'm too impressed with iPhone os 3.0. And I'm not 4sho yet but I think it's made my phone slower. "
p1722
ag3
aa(lp1723
S'@MC_mahon aaww awesomei bet that was good! '
p1724
ag6
aa(lp1725
S"@tonyadam I wouldn't be able to handle it. I can barely keep up thru the web "
p1726
ag6
aa(lp1727
S'@nish7x - oh great ! '
p1728
ag6
aa(lp1729
S'Does God hear tweets  http://bit.ly/Ib0we'
p1730
ag6
aa(lp1731
S"@gplama I've been pushing for this in XC for a while, and I've written some detailed documents and software to handle it. Still... "
p1732
ag3
aa(lp1733
S'@theshellmeister I think it would place has in Gothenburg we like this kind of music.Get John Simm to Sweden would be heavenly fun. '
p1734
ag6
aa(lp1735
S'@beccaRAR I like your new pic '
p1736
ag6
aa(lp1737
S"I can't watch that show any more.... "
p1738
ag3
aa(lp1739
S"belmont today! very exciting. i think i'm going to hop on board and cheer for mine that bird with the rest of america "
p1740
ag6
aa(lp1741
S'missed the school bus today! had to walk quite far in the horrible rain  school show was well good though '
p1742
ag3
aa(lp1743
S'Its a beautiful day in the neighborhood '
p1744
ag6
aa(lp1745
S'Happy birthday to my mom and dad  so excited for the beach tomorrow'
p1746
ag6
aa(lp1747
S'tired as all get out, sick, and can barely walk.  feel bad for me'
p1748
ag3
aa(lp1749
S"@katherinemarsh my parents won't let me get it cos apparently it 'clogs up the computer' it'd be epic to play on the mac too! "
p1750
ag3
aa(lp1751
S'@mkvlln Mr president, your tweets get cut off, i cant read everything. send it in an email? thanks love. '
p1752
ag6
aa(lp1753
S'housework makes u ugly but someone has to do it.. bye bye for now.. '
p1754
ag3
aa(lp1755
S"@skyejaden I wish I was sleeping in - I'm getting up at 3:30am to drive to Houston for photography day at the zoo   (I'm a geek)"
p1756
ag6
aa(lp1757
S"is warning you, if a physio tells you they want to do 'soft tissue manipulation' this, in fact, means they want to KILL you and be EVIL!! "
p1758
ag3
aa(lp1759
S'napping is what i do best '
p1760
ag6
aa(lp1761
S'Wish me luck today!!!!!!!!  '
p1762
ag6
aa(lp1763
S'just got home from Julius grad party '
p1764
ag6
aa(lp1765
S'marking some papers for my mom $_$ '
p1766
ag6
aa(lp1767
S'@Nathaliekhouri   i know!!! i can not get out of your sight now '
p1768
ag3
aa(lp1769
S'@jennihogan Your hubby is lucky to spray tan you!  Your new assignment is to find someone as fun as you that I can help tan '
p1770
ag6
aa(lp1771
S'@FarashaFly good night farasha and sweet dreams '
p1772
ag6
aa(lp1773
S'homework, shopping then downtown for THRIVING IVORY with the ladies '
p1774
ag6
aa(lp1775
S"Haylie Ecker's had a new baby. Someone else replaced her as the first violinist. I'll miss Haylie "
p1776
ag3
aa(lp1777
S'My throat hurts '
p1778
ag3
aa(lp1779
S'@LesterJr Yes  check my new theme http://tinyurl.com/pqq8rx'
p1780
ag6
aa(lp1781
S'Missing my boyfriend like crazy! I need a vacation thats for sure! Wink Wink VA here i cme '
p1782
ag6
aa(lp1783
S"night  need some good sleep for tomorrow's training "
p1784
ag6
aa(lp1785
S'Off to go get some new duds for my new job tomorrow  gym later!!'
p1786
ag6
aa(lp1787
S"@rapunzels_tears That's lovely, thank you. I'll try... "
p1788
ag6
aa(lp1789
S'Good night twitter ppl! Back 2 work ma\xef\xbf\xbdana '
p1790
ag3
aa(lp1791
S'started the morning off just great! got a speading ticket! '
p1792
ag3
aa(lp1793
S'@SheToldMe you are welcome . Thanks for the feedback '
p1794
ag6
aa(lp1795
S'@jessicastrust http://bit.ly/1a2XGq  does but not a great chance to read it,as just on way to Tesco '
p1796
ag3
aa(lp1797
S'Yay Top Gear!!!! '
p1798
ag6
aa(lp1799
S'@QueenOfInk yes '
p1800
ag3
aa(lp1801
S'http://twitpic.com/7ye1d - Goodbye baby  ha i really do love dogs'
p1802
ag3
aa(lp1803
S'@victorvitug vv my breaky is soooo good. have a taste! '
p1804
ag6
aa(lp1805
S'I just love the disney channel '
p1806
ag6
aa(lp1807
S"@_fatdad LOL..Ur funny! I love kitties! Besides, she's too little to even be an appetizer....just kidding "
p1808
ag6
aa(lp1809
S'so much fun last night in boston! relaxing for the day. work tomorroowwww '
p1810
ag3
aa(lp1811
S'3 minutes....this is so nerve wrecking! '
p1812
ag6
aa(lp1813
S'is upset cus he cant go to the pool party '
p1814
ag3
aa(lp1815
S'The newly launched @WolframAlpha locks up my Firefox from time to time '
p1816
ag3
aa(lp1817
S'Palm Pre is out today.  I am sad because I will not get to have mine until September '
p1818
ag3
aa(lp1819
S'@jeffpulver As a Biz Mentor &amp; Entrepreneur based in dynamic Asia - I am emphatically having the business time of my life  Ciao Tweeters!'
p1820
ag6
aa(lp1821
S"I'm super pumped For my new career at song writing "
p1822
ag6
aa(lp1823
S'@citysage my thoughts exactly '
p1824
ag3
aa(lp1825
S"@emelgeek Btw happy mom's day to hannah and your mom and han's mom! Yey! Moms unite! This is your day "
p1826
ag6
aa(lp1827
S'I never love someone like I love you... '
p1828
ag3
aa(lp1829
S'@TaraCandelaria you still twitting around to? How koo! '
p1830
ag6
aa(lp1831
S'@bleezy15 Hellz yea! Cuz you know my camera is outta commission! '
p1832
ag3
aa(lp1833
S'wearing a summer dress just cuz i really want summer right now! (well i always do but, yeah..) its kinda still too cold to wear it '
p1834
ag6
aa(lp1835
S"@Monica2112 Oh don't worry, I don't mind if you are.    I'm just happy u want to meet me!"
p1836
ag6
aa(lp1837
S'preparing for 9am meeting tomorrow '
p1838
ag3
aa(lp1839
S'@Prinbird im good ty got to go to work 2day  and someone has stole the sun!!'
p1840
ag3
aa(lp1841
S'On a diet.... Woke up 2day Hungry '
p1842
ag3
aa(lp1843
S"listening to David Archuleta album it's amazing "
p1844
ag6
aa(lp1845
S'waiting for danny now '
p1846
ag6
aa(lp1847
S'@ZnaTrainer lol I LOVE that about &quot;raising your bottom line&quot; '
p1848
ag6
aa(lp1849
S'@Shrek1337 truuuuuue story lmfao! im on this at work cause i get bored '
p1850
ag3
aa(lp1851
S"Missing Michigan Girl's Mother Says She Is 'Completely Innocent' After Body Found -http://shar.es/oTcO #tcot A innocent child. RIP "
p1852
ag3
aa(lp1853
S'i lost my livelavelive braclet  i wear it everyday fml'
p1854
ag3
aa(lp1855
S'Took a nice walk to the seaside... I saw a lot of fish! They are so watery and mysterious... '
p1856
ag6
aa(lp1857
S'Argh, why do I feel ill all the time? '
p1858
ag3
aa(lp1859
S'@binghamwray damnit i would but i have to go to leahs graduation at like 6! and i still have to get ready  wanna come? one open seat!'
p1860
ag3
aa(lp1861
S'@viintagedresses aww poor Caity  :L add people n they will add you'
p1862
ag3
aa(lp1863
S'@benstone i love you for saying that. yes, yes it is! '
p1864
ag6
aa(lp1865
S"I have class soon but don't want to go. Maybe I should have some more coffee "
p1866
ag6
aa(lp1867
S"@JuliusCrosslin that's kinda rough there... But OH... thanks for the 40 bucks HAAAAAAAA not "
p1868
ag6
aa(lp1869
S'iLoseWeight for charity rejected by Apple for the app store. We have to remove all &quot;for charity&quot; cues.  wtf? #iloseweight#'
p1870
ag3
aa(lp1871
S'I hate gymmmm '
p1872
ag3
aa(lp1873
S'my first employer after college, Eddie Bauer, filled for bankruptcy today     http://www.nytimes.com/2009/06/18/business/18bauer.html?em'
p1874
ag3
aa(lp1875
S"@Vialka aaaah u guys r playing uno without me  school starts on 4 30 vi. Its still 9 30 am here... I'll tell you when i'm arrived"
p1876
ag3
aa(lp1877
S'@jennafbean thanks . You have fun too '
p1878
ag6
aa(lp1879
S'On set of @ShutYourBlogOff &amp; getting hungry. Missed breakfast today  That mini shredded wheat man that sits on my shouldfer is not happy.'
p1880
ag3
aa(lp1881
S'@ddlovato haha my mom likes your music! she hear it on radio disney and she say you are super cute! and she like your voice '
p1882
ag6
aa(lp1883
S'@WDurigIV Thanks Willy '
p1884
ag6
aa(lp1885
S"@Sansaa You stupid girl,hahah. Don't be negative! I want it too,but I have to wait. We can be tortured together,okay? "
p1886
ag6
aa(lp1887
S'i wear my sunglases at night '
p1888
ag6
aa(lp1889
S'All of these beautiful ladies ran the LA Marathon with me  My girlfriends R awesome! http://yfrog.com/0xnzej'
p1890
ag6
aa(lp1891
S'bummer, the bell on my bike broke off '
p1892
ag3
aa(lp1893
S'In just occurred to me - since Obama so much wants us to be like Europe, maybe soccer will finally get the popularity it deserves. '
p1894
ag6
aa(lp1895
S'Getting ready to go to job number 2   all I wanna do is sleep right now!'
p1896
ag3
aa(lp1897
S"@SomeKuwaitiya Cuz I'm late  so late :'("
p1898
ag3
aa(lp1899
S'http://bit.ly/eFc3f  good readings '
p1900
ag6
aa(lp1901
S"On a Sister Souljah high One word Brillaint its funny to say but I'm proud of her LOL although she's older than me  but she's intelligent"
p1902
ag6
aa(lp1903
S"Honestly..am I the only one who is going insane because I have to wait till November to see New Moon? I can't wait 6 months "
p1904
ag3
aa(lp1905
S"@drea88 And I'll be there "
p1906
ag6
aa(lp1907
S'spinal taps hurt '
p1908
ag3
aa(lp1909
S'Georgia Williams is sleepy because of the weather and going to miss Sarah!  http://apps.facebook.com/dogbook/profile/view/67742'
p1910
ag3
aa(lp1911
S'@purityring check obnoxious  and sign on in like..3 hours cause i gotta go to school rn'
p1912
ag3
aa(lp1913
S'Santigold is at House of Blues right now, only 30 minutes from me, and i cant go '
p1914
ag3
aa(lp1915
S'Twitpic  comes in handy. '
p1916
ag6
aa(lp1917
S'it was sooo funny yesterday  .. girls ?! luv yaa x3 going to be the newspaperlady soon '
p1918
ag6
aa(lp1919
S'Just Landed... Home Sweet Home '
p1920
ag6
aa(lp1921
S'Today has been crappy. Still packing and feeling sick. '
p1922
ag3
aa(lp1923
S'Rearranging my @TweetDeck groups. @mixero had failed me dearly. '
p1924
ag3
aa(lp1925
S"@letsbrocknroll dude, i hope you're showering sometime soon.  you smelled gross tonight "
p1926
ag3
aa(lp1927
S'... I can get 300 followers!  follow to @lizzmartin!  and @goresecretstar! '
p1928
ag6
aa(lp1929
S'@Ayla_F Oooh! Do we get to see? '
p1930
ag6
aa(lp1931
S"memorial then my big sis Shoe's baby shower... talk about extremes but God is still sovereign and THAT is a beautiful thing...Gmorning "
p1932
ag6
aa(lp1933
S'@spongenb got the first one and last one offa itunes, middle one not on there  good shout'
p1934
ag3
aa(lp1935
S'@petiteandchic I have dressy tops, tunics (short &amp; long), few brocade jackets, sarees and churidaars. Also embellished bags '
p1936
ag6
aa(lp1937
S'movie night with myself  road trip &amp; now saved!'
p1938
ag6
aa(lp1939
S'@robluketic oooooooohhhhhh '
p1940
ag6
aa(lp1941
S'going to get my wisdom teeth out '
p1942
ag3
aa(lp1943
S'My cat got me nothing for fathers day. '
p1944
ag3
aa(lp1945
S'@bening Huhu jealous. Even my dad is flying there tonight! '
p1946
ag3
aa(lp1947
S"You can tell it's Friday afternoon... I need a coffee. And possibly some chocolate. "
p1948
ag3
aa(lp1949
S'damn it!!! What am I gonna wear now? My skirt is super cute '
p1950
ag3
aa(lp1951
S'@krystinaag yes yes they wud, bt thx for the thought! we dnt get donuts here  have a gud sleep!!!'
p1952
ag3
aa(lp1953
S"hasn't had this much *** in months.. No wonder I'm so fucking sore (pun MAJORLY intended)       SORRY FOR RUINING YOUR EYES, EVERYONE!  &lt;3"
p1954
ag6
aa(lp1955
S'@simplycraig hey!! '
p1956
ag6
aa(lp1957
S'goinggg to workk '
p1958
ag3
aa(lp1959
S'@bjhenry Almost here  asking for anything good?'
p1960
ag6
aa(lp1961
S'Has anyone got any spare tickets to go see Pink in Melbourne? I dont have a credit card I can use to purchase online '
p1962
ag3
aa(lp1963
S'If an angel came to see you would you make her feel at home?-Black Oak Arkansas. Well yeah! God must really love me - I have TWO coming! '
p1964
ag6
aa(lp1965
S'@alabamawhirly in to my inbox to clear it all out. Now I have to open up my work laptop '
p1966
ag3
aa(lp1967
S'says bye. be back...  http://plurk.com/p/x6krb'
p1968
ag6
aa(lp1969
S'@dougiemcfly http://twitpic.com/3negn - god danny looks so different, tom very nicee '
p1970
ag6
aa(lp1971
S'@textualoffender Yes! The man of my dreams, on the white horse! Alas! he met me an year too late!! My bad luck!! '
p1972
ag6
aa(lp1973
S'good news n bad news ppl good news im back in school yeaaaaa bad news im @ work so i dont feel good '
p1974
ag3
aa(lp1975
S"Ughh!! didnt want to see Oregano's face again "
p1976
ag3
aa(lp1977
S'I think I need a new power source for my computer '
p1978
ag3
aa(lp1979
S"@nashg @ebeth afraid I can't make thursday  have a voddie for me"
p1980
ag3
aa(lp1981
S'@LynetteRadio Sorry about the screeching '
p1982
ag3
aa(lp1983
S'@OhMykix o out and do something or something. lol what are your plans for tomorrow?! '
p1984
ag6
aa(lp1985
S'@gfalcone601  who you havinbg a BBQ with?'
p1986
ag6
aa(lp1987
S'listen to the lonely island- we like sports  its the best'
p1988
ag6
aa(lp1989
S'@Chawtfish haha, i ROCK BAYBAY!! Sleep well Goob '
p1990
ag6
aa(lp1991
S'Sick with the flu. '
p1992
ag3
aa(lp1993
S'Sampe rumah ai, long time no see, curhat session (bigeyes) *udah lama ga nginep depok*  http://plurk.com/p/x8l43'
p1994
ag3
aa(lp1995
S"Thank you to all of you who gave me Follow Friday! It's all of you that make Twitter fun for me "
p1996
ag6
aa(lp1997
S'says goodafternoon plurkers...  http://plurk.com/p/rbwcb'
p1998
ag6
aa(lp1999
S'a quick analysis of my gmail account: 80% of my mail is spam. Fortunately, it all gets filtered.  Anyone else have similar numbers?'
p2000
ag6
aa(lp2001
S'work gets worse and worse each day '
p2002
ag3
aa(lp2003
S'@missfuntracy what you stealing my songs for?   I miss you!  '
p2004
ag3
aa(lp2005
S'In Hollywood, trying to not get jumped by some creepy, weird (sorta stalker-ish) swingers... '
p2006
ag3
aa(lp2007
S'What should I eat for lunch? I forgot to bring food to work '
p2008
ag3
aa(lp2009
S'@tintinMR thankyou sweetie '
p2010
ag6
aa(lp2011
S"Beth's homework this weekend: a paper and two rewrites.  Finished one rewrite, half of the other, but still hasn't written that new one "
p2012
ag3
aa(lp2013
S'victory! icon change haz been accomplished. BIRDIE RODRIGUEZ IS COMING FOR YOUUUUUUU! or something. '
p2014
ag6
aa(lp2015
S"it's so warm &amp; sunny  but i have to go to work soon (N)"
p2016
ag6
aa(lp2017
S'@Ali_K_30 and my bf will be home he will b staying out 4 a month this time around '
p2018
ag3
aa(lp2019
S'Aww my huppy just went home '
p2020
ag3
aa(lp2021
S'www.nuklearpower.com is coming to a end it seems  i hope the next comic is just as good'
p2022
ag3
aa(lp2023
S'UGH!!! 3weeks of email problems '
p2024
ag3
aa(lp2025
S"@sbsbea @koball I'm allergic to work, too. I only want to do stuff I think is really fun these days. "
p2026
ag6
aa(lp2027
S" didn't get to meet bachmann, but her young texan intern filled my quest for crazy..."
p2028
ag3
aa(lp2029
S"The battery in my computer burned  out &amp; now I'm having withdrawals. iPhone will have to do foe now "
p2030
ag3
aa(lp2031
S'Was sick all day so didnt go to the concert. '
p2032
ag3
aa(lp2033
S"Still bummed about losing my signature earrings...bc that's clearly the worst thing in my life. NEED black plastic flower earrings. "
p2034
ag3
aa(lp2035
S'@MGiraudOfficial Reprise of White Chocolate with Kris, Anoop and Allison! '
p2036
ag6
aa(lp2037
S"@miguelstdancer i have money enough to go to his city, but i'm 15, remember? my mum doesnt let me do it  she thinks that is crazy"
p2038
ag3
aa(lp2039
S'I really need more positive people in my life! Negativity and stress is really starting to bring me down '
p2040
ag3
aa(lp2041
S"WOOT. I ran the best PFT I've ever done yesterday...and I haven't workout in a month! 100 crunches, 20 pull-ups, and a 21:26 3 mile time. "
p2042
ag6
aa(lp2043
S"@5erg i'm good  very excited because i wrote an article for Style Sample Magazine &amp; its coming out tomorrow! "
p2044
ag6
aa(lp2045
S'Up for the last breakfast in Dublin  #eahil2009'
p2046
ag3
aa(lp2047
S'So sad that Rafa lost to Soderling '
p2048
ag3
aa(lp2049
S"@jaright I didn't know you were sick Hun Hun  what's wrong?"
p2050
ag3
aa(lp2051
S"I'm up ! Thanks alot iinsomnia  anyways what's the bug deal with the laker parade?shit, ud think a riots bout to go down"
p2052
ag3
aa(lp2053
S"@LillieBarnes dougie ahh, awhh he's not well atm  bless his lovley bum"
p2054
ag3
aa(lp2055
S'is at home. suffering from a headache due to excessive drinking of vodka last night at the ark '
p2056
ag3
aa(lp2057
S"Star Trek again!   and Guillermo Del Toro tonight!  Oh, I do have to work in between but don't matter. It's all good!"
p2058
ag6
aa(lp2059
S'why oh why did sleep on my hackintosh thinkpad break '
p2060
ag3
aa(lp2061
S'@JonathanRKnight feeling better?  hope so '
p2062
ag6
aa(lp2063
S'Who knew you can watch She-Ra and He Man on YouTube? Gotta love technology '
p2064
ag6
aa(lp2065
S'The more I talk to you that harder it is to stay away. YEAH.....I dont know what to do either! '
p2066
ag3
aa(lp2067
S"@jmelencholy I'm having lunch already  ur a lil late buddy!"
p2068
ag3
aa(lp2069
S'Download movie  Notorious http://tinyurl.com/d2u4gs cool #movie'
p2070
ag6
aa(lp2071
S'@braddaughtery nah! I get to see him all the time. Lol jk heck ya im jealous! Just kick me when im down! Lol '
p2072
ag3
aa(lp2073
S'@JoshMyHeart attacked by the seatbelt once...that thing DID NOT like me very much '
p2074
ag3
aa(lp2075
S'@billiemcfly okay  hahahhh and yeah sure x'
p2076
ag6
aa(lp2077
S"@jemilygreger oh wow ! those are good  !! &amp;&amp; it's a SONG ! you should play it one day and put it up on youtube or something ? haha."
p2078
ag6
aa(lp2079
S'waiting for 5pm to go for a drink with ones out of work because Belinda leaving today  at least the sun is shining for her!'
p2080
ag3
aa(lp2081
S'@maryxboney Holy crap. I just had 3 bars out here, now nothing! Wish this would send. '
p2082
ag3
aa(lp2083
S'@monnie Raincheck!  You can come and see me on stage one day soon. ;)'
p2084
ag6
aa(lp2085
S'@milkshakex3 loool!i kno '
p2086
ag6
aa(lp2087
S'@sybastien yep -- one who eats Steves.  Can you believe people actually pronounce it like that? They NEED to look at my website logo. ;)'
p2088
ag6
aa(lp2089
S'@TrishaReal Tbaggerrrr xoxo I miss you!  p.s i love ur background'
p2090
ag6
aa(lp2091
S"Needs to watch the new season of Desperate Housewives! OMG! Mike and Susan forevs! I wasn't able to catch up with the new season. "
p2092
ag3
aa(lp2093
S'@ClarenceMcMill aww yay! Enjoy your day! '
p2094
ag6
aa(lp2095
S"http://twitpic.com/6vrv9 - My hair on this looks totally '80 or &quot;Roxette&quot; (Per Gessle, not Marie Fredriksson sadly  )."
p2096
ag3
aa(lp2097
S'Day off.. still gotta go in and get my check '
p2098
ag3
aa(lp2099
S"no @brianedward today  Sadness!! Have fun in Cali, I'll miss youuuu"
p2100
ag3
aa(lp2101
S'yay MST3k always cheers me up '
p2102
ag6
aa(lp2103
S'my moms aslppe and snoring. im so jealous. '
p2104
ag3
aa(lp2105
S'Noob learning to makes apps for the iPhone. PLEASE help me out  I know VERY little but quick learner. Need a starting guide or something.'
p2106
ag3
aa(lp2107
S'Reading: http://bit.ly/3ePkDY  This article is really interesting. '
p2108
ag6
aa(lp2109
S'@KitsuneKael Heh, that sounds like a fun time. '
p2110
ag6
aa(lp2111
S'Suffering big time, can hardly walk or talk.. the morning after the night before without the night before... no fair '
p2112
ag3
aa(lp2113
S'Randolphs last show :/ this sucks  http://short.to/9vuc'
p2114
ag3
aa(lp2115
S'@mitchelmusso hey mitchel, i love you  im working on getting your album. i will get it asap'
p2116
ag6
aa(lp2117
S"You were paid to spend half a day at a bookstore, @catjuan ??? Wow, now that's a dream job. "
p2118
ag6
aa(lp2119
S'I had to create a cover letter for retail. My resume is chock full of teaching experience, but back in the day I managed a music store '
p2120
ag6
aa(lp2121
S'@nachojohnny... wishes I was back n Vegas right now... throwback a shot of patron 4 me '
p2122
ag6
aa(lp2123
S"@FrancineEvents I'm an &quot;SEO ninja&quot;. Not really, but I've seen huge results. my seo site: www.thomasconsultation.com I LOVE and teach SEO! "
p2124
ag6
aa(lp2125
S"it's getting to the point where i can't even watch a jonas brothers video without crying "
p2126
ag3
aa(lp2127
S"Arrived at 8am. *sigh* I'm tired. Home 'tweet' home "
p2128
ag6
aa(lp2129
S"@sengming Sure did! 3 shots of cherry sourz, 3 brandy+cokes, plus a lotsa rollies and tailors. I'm happy. It'll b a detox weekend 4 me! "
p2130
ag6
aa(lp2131
S'May has been a trying month, but the clouds are clearing and there is a forecast of sunshine  '
p2132
ag6
aa(lp2133
S"I've done something to hurt my finger, and the pain woke me up.  "
p2134
ag3
aa(lp2135
S'Bawling my eyes out watching this chick flick  bleh.'
p2136
ag3
aa(lp2137
S'Doing a little cleaning can help you find so much stuff haha '
p2138
ag6
aa(lp2139
S"interning. didn't even get to have my starbucks yet. "
p2140
ag3
aa(lp2141
S'@seemeplease07 DORITOS!!! lmao  ((eat eat eat))'
p2142
ag6
aa(lp2143
S"don't think my phone is working "
p2144
ag3
aa(lp2145
S"Wats good my twiggas..just wakin up gttin ready...anotha day anotha dolla $$  $$ I'm Locked In!!"
p2146
ag6
aa(lp2147
S"today mosavi's supporters marched in valiasr st holding candles, in silence. they were attacked afterwards  #iranelection"
p2148
ag3
aa(lp2149
S'HAHA!!! Kel and I were out in the st with Jack, then we tried to come inside and we were locked out!!!  lol.. kel was scared of aliens!!!'
p2150
ag3
aa(lp2151
S'Watching the final riot right now and drinking arizona green tea '
p2152
ag6
aa(lp2153
S"I'm tired. Would type more, but wayy to sleepy.  "
p2154
ag3
aa(lp2155
S'@AnnyWasted omg!  You really have that?  That sucks.  '
p2156
ag3
aa(lp2157
S"It's finally the year of the Mindy. http://www.nhc.noaa.gov/aboutnames.shtml Too bad hurricanes are no fun "
p2158
ag3
aa(lp2159
S'@radha_ @fraands Aiyo! dat sounds nothing like What I wanted to hear!! '
p2160
ag3
aa(lp2161
S'@Jessica4225 aw....that makes me sad that i missed it, I know you sang along for me though! '
p2162
ag6
aa(lp2163
S'@MarkMorb thanks  xxx'
p2164
ag6
aa(lp2165
S'@videogametweets and heres my Collectors Item of the Day  http://i43.tinypic.com/21ocuc6.jpg http://twitter.com/TinyPicTweets/statuses ...'
p2166
ag6
aa(lp2167
S'woo! gosh, its hot here too! But there were popscicles after kickball so its all good. We won, of course '
p2168
ag6
aa(lp2169
S'just lost her brother '
p2170
ag3
aa(lp2171
S'@ifoundmycapo alexandra D: i might need to skype u again later cuz im real sad '
p2172
ag3
aa(lp2173
S"@taianderson @macpowell maybe you'll win next time "
p2174
ag6
aa(lp2175
S'@willwhite this was good advice '
p2176
ag6
aa(lp2177
S'@BrianMcnugget hey brian, when are u releasing set in stone here, i LOVE it, and wanna see u in concert '
p2178
ag6
aa(lp2179
S"@yavor_marichkov LOL!  Thanks!  I'm just an average girl. Makeup, lighting and cute clothes really make the glam effect.  "
p2180
ag6
aa(lp2181
S"No, I don't think it! Tomorrow school and that's not so fine  I go offline/ ByeBye.?"
p2182
ag3
aa(lp2183
S'i like when cute boys text me for no reason. '
p2184
ag6
aa(lp2185
S"@Lizzzieeee You bully me  and I meant to say. You don't know how much i hate you. Use your brain"
p2186
ag3
aa(lp2187
S'@Stephanie329 but seriously the poster turned out better than the ideas i had for it. '
p2188
ag6
aa(lp2189
S'@llorracanit just some bad news of ill health in my immediate family '
p2190
ag3
aa(lp2191
S'hates bitches. '
p2192
ag6
aa(lp2193
S'@TittySalad wow so you having a charles hamilton NO SHOTS FIRED '
p2194
ag6
aa(lp2195
S'\xef\xbf\xbdGeek\xef\xbf\xbd In The White House, Will Pols Get Social Media? Venture Capital WSJ http://bit.ly/L3gup (Chris Sacca calls Obama Geek '
p2196
ag6
aa(lp2197
S"http://twitpic.com/6boq5 - I guess it's time to dry my eyes &amp; put up my Cav earrings "
p2198
ag3
aa(lp2199
S'@phyllig MTV Movie Awards. Go vote! STAT '
p2200
ag6
aa(lp2201
S'Preparing cycling trip for the weekend, and the weather will be great  '
p2202
ag6
aa(lp2203
S"Ok, running coaching is all over now  but I'm now signed up for the Auckland Half Marathon so gotta keep training! Bit chilly today tho"
p2204
ag3
aa(lp2205
S"Trying to think of an excuse to stay at home tomorrow but I've used them all up. Looks like there's no avoiding the trudge to work "
p2206
ag3
aa(lp2207
S'@BitSnow Loved it, its always great to see something completely original. And you were incredible, really your best performance i think '
p2208
ag6
aa(lp2209
S'@JesCoolbaugh Have you ever been a waitress? '
p2210
ag6
aa(lp2211
S'@anna_belllle  yeah it is... You dont love me anymore'
p2212
ag3
aa(lp2213
S'Scratchy throat making me feel like shit '
p2214
ag3
aa(lp2215
S'@eckorecord hopefully!! Money n the bank I got money in da bank... Sing it w/me! &lt;3 get a phonneee '
p2216
ag3
aa(lp2217
S'@SoulIsTheGoal neither do I, and I live in the whong part of the country for the decent stuff '
p2218
ag3
aa(lp2219
S'@joshbhughes not sure about that. you would not even drink with me last night '
p2220
ag3
aa(lp2221
S'exam was hard  pasta time'
p2222
ag3
aa(lp2223
S"I'm leaving for Bintan for BBG camp  So excited... It's going to be awesome!"
p2224
ag6
aa(lp2225
S'RIP my beautiful little canary, Romeo. '
p2226
ag3
aa(lp2227
S"Razzle's with Jac and Kate "
p2228
ag6
aa(lp2229
S'With @taylorconnolly and John, trying to figure out something to do lol I miss my baby so much '
p2230
ag3
aa(lp2231
S"@bouncingdan don't think so - all leffe induces is naptime "
p2232
ag6
aa(lp2233
S"@matheussiq8 ah i wanna watch it  and i'd love contemporary bossa nova thx!"
p2234
ag3
aa(lp2235
S'ohh and bummed cos didnt watch Muriel  fell asleep instead - was/and still am in desperate need of sleep..............'
p2236
ag3
aa(lp2237
S"#steam why must you fail me so!  The Unreal pack is UNREAL but you won't let me add it to my cart "
p2238
ag3
aa(lp2239
S'@archetypo if I could play Scrabble on Twitter, I would have no need for facebook. '
p2240
ag6
aa(lp2241
S'out with @NRMcclelland @devinxrhodes and michael '
p2242
ag6
aa(lp2243
S'@jordanknight Count me in '
p2244
ag6
aa(lp2245
S'@Stargate_Addict yeah... I replied to it too.... you didn;t get it? '
p2246
ag3
aa(lp2247
S"There are some really creepy men on Trekspace.  and they love to hit on little ol' me."
p2248
ag3
aa(lp2249
S'sitting in bed, doing my makeup about to get today started, whaaats good '
p2250
ag6
aa(lp2251
S'I miss my kitty a lot '
p2252
ag3
aa(lp2253
S"@ChattyDM That's a fun game system. Of course, I see every game I run like episodes of a tv show...so it fit "
p2254
ag6
aa(lp2255
S'@hotchiq915 tell all your friends to follow me !!  '
p2256
ag6
aa(lp2257
S'Lol well thats good everyone can use some love and everyone can use a friend  and u have BOTH :O lucky xp lol &lt;*i&lt;3urface*&gt;'
p2258
ag6
aa(lp2259
S'Shoot all day, got to see my megan, now sleep '
p2260
ag6
aa(lp2261
S"@DarylPalumboCC I love you, like you totally don't even know. "
p2262
ag6
aa(lp2263
S'@Tyrese4ReaL  AND THAT IS WHAT MAKES YOU SO BEAUTIFUL! *SIGH*  MUAH!'
p2264
ag6
aa(lp2265
S"Dreamt everyone in high school hated me and wouldn't let me use their catapult. "
p2266
ag3
aa(lp2267
S'O.MAI.GAD!!! I NEED TO BE WHERE PP IS NOW  AHH MASKED HONGKI MASKED JAEJIN MASKED JONGHUNMASKEDSEUNGHYUNMASKEDMINHWANOMIGADDD *SKILM*!!!'
p2268
ag3
aa(lp2269
S"@Caroljs She'll say it soon - too cute "
p2270
ag6
aa(lp2271
S'@ebassman hug me at jones bech, the count down is on '
p2272
ag6
aa(lp2273
S'Ok not running tonight  Instead Chanel &amp; I will take a walk down to Lake Calhoun.'
p2274
ag3
aa(lp2275
S'Hahah. Wow. Isolated insidents by dane cook right now. Oh man. This is by far the best. '
p2276
ag6
aa(lp2277
S'Feeling pretty good today. Might try and do some work '
p2278
ag6
aa(lp2279
S'@BlackTheBeast awww thanks babe '
p2280
ag6
aa(lp2281
S'@Sion71 yep im good ! planning on staying in doors and dodging the rain  it is misserable here today ,'
p2282
ag3
aa(lp2283
S"I'm moving out today!!!  God I'm going to miss college.. No more excuses... lol"
p2284
ag3
aa(lp2285
S'I had the worst dreams EVER. attempting to go back to sleep  atleast I have 4 more hours, that makes me feel better.'
p2286
ag3
aa(lp2287
S"@lukieebro come on tw?tter b?tch!  ?'m sorry for everyth?ng baby. ? do need you, ? don't love you as much as logan, you know that."
p2288
ag3
aa(lp2289
S"@manwellreyes I got you man!!!! I'm really proud of this album "
p2290
ag6
aa(lp2291
S"@creative_home @creative_home So that's 11pm EST right? I am time challenged. "
p2292
ag6
aa(lp2293
S"ok I think it's officially now an illness  I've sat on my couch for like two hours now afraid to move in case the motion makes me puke "
p2294
ag3
aa(lp2295
S'I just looked through ALL of my comments since day 1 on myspace. It brought back good and bad memories.  It kind of made me sad.  '
p2296
ag3
aa(lp2297
S'@elizapi I hope so its costing me enough '
p2298
ag6
aa(lp2299
S'@ninwest haha well hopefully i can keep it up! '
p2300
ag6
aa(lp2301
S'2 more full days of school '
p2302
ag6
aa(lp2303
S'bsnl is alive again after 2 days!!... '
p2304
ag6
aa(lp2305
S"How come TweetDeck won't minimize to the tray anymore? "
p2306
ag3
aa(lp2307
S"just watched 'what happens in vegas'. funny movie! and now i am heading to bed, as study waits till tomorrow! no winter sounds for me "
p2308
ag3
aa(lp2309
S'10 minute warning, the 6am start has just kicked in so must be off shortly  Love to all, knowing nods to some x'
p2310
ag3
aa(lp2311
S'all this old shit on my blackberry caught me off guard.got rid of calender dates,my call log,hearts off a name &amp; countless cute pics  fml'
p2312
ag3
aa(lp2313
S'@SteveJSimms I nearly had a heart attack in the middle of a shop in Aber last week when I saw beef flavour was back! mmmm!  heartiscoming?'
p2314
ag6
aa(lp2315
S"I'm so torn! I'm totally behind Ziva/Tony, but I'm so, so bummed that things with this random dude didn't work out "
p2316
ag3
aa(lp2317
S'had the most amazing timee tonight '
p2318
ag6
aa(lp2319
S'@triniaguirre i miss you  !!!! ??'
p2320
ag3
aa(lp2321
S'oh how I miss my truck... I could have my whole place moved by now...  '
p2322
ag3
aa(lp2323
S'Just had my snack. '
p2324
ag6
aa(lp2325
S'Twitter hasnt been too exciting to me,,,,,    hello anybody,lol'
p2326
ag3
aa(lp2327
S'Witnessed a man save his wife from being hit by bus. If I was him.. I would have pushed her.. Ahahahah. I kiiiidddd '
p2328
ag6
aa(lp2329
S'doinq the same thing buh watchn enough with jennifer lopez my cuzin '
p2330
ag6
aa(lp2331
S"but i don't want to change. "
p2332
ag3
aa(lp2333
S'@PaulFrankRizzo awesome! it was a thrilling moment! '
p2334
ag6
aa(lp2335
S"@tommcfly awwwwwn tom... you're killing me like that, right? it not fair. "
p2336
ag3
aa(lp2337
S"&quot;yar?n da istanbul'day?m.&quot; \xef\xbf\xbdmr\xef\xbf\xbdm\xef\xbf\xbd yedin batuhan  re: http://ff.im/3lG8Y"
p2338
ag6
aa(lp2339
S'mid-coastal this weekend... yesssss '
p2340
ag6
aa(lp2341
S"The rush for 3.x has been a /little/ more than I anticipated. ;P. Please, have patience with site malfunctions.  (via @saurik) it's coming"
p2342
ag3
aa(lp2343
S'aghh!  great dinnerr!! working out tomorrow morning with kami'
p2344
ag6
aa(lp2345
S"Watching 220..wishing I was there. Clicking heels didn't work "
p2346
ag3
aa(lp2347
S"Awww my daddy! Got in a car accident! Pray for him! He's shook'n up a lil! "
p2348
ag3
aa(lp2349
S'back to school tomorow '
p2350
ag3
aa(lp2351
S"Dogs and thunder don't mix. At least all is quiet now, poor pooch had no idea what was going on "
p2352
ag3
aa(lp2353
S'I need &quot;Sabb Kah Do&quot; Day again  #warid'
p2354
ag3
aa(lp2355
S'Right, off to sort my day out  be back tonight twits!  xxx'
p2356
ag6
aa(lp2357
S"@bobby_o_shea, i know  i'm not surprised. i'm not that big of a fan now that they are famous, they were so much more interesting before."
p2358
ag3
aa(lp2359
S'wish I was in Houston for the @Houston_Dynamo game instead of here for work '
p2360
ag3
aa(lp2361
S"@jamopo Leicester???? I've heard of that place... Have they got a footie team? "
p2362
ag6
aa(lp2363
S"loved Dollhouse episode 11, can't wait for 12! And too bad 13 isn't going to be aired "
p2364
ag3
aa(lp2365
S'Work! On sunday morning '
p2366
ag3
aa(lp2367
S'@DeepaPrabhu Pamposh! Is it a bengali name? Its truly fascinating. in ma list it would be Tamara and Tarana '
p2368
ag6
aa(lp2369
S'going to bed with a headache '
p2370
ag3
aa(lp2371
S'Photovia onemoreurl) *sigh* Back to LB in a few days. :|  http://tumblr.com/xec1xirfi'
p2372
ag3
aa(lp2373
S'Trying to focus on the light at the end of the tunnel '
p2374
ag6
aa(lp2375
S"moto accident .... again ~~~&gt; bad luck but actually i'm lucky today when they're good guys,thanks! i've to be careful more!  &amp;..."
p2376
ag6
aa(lp2377
S"Ah at last  just wanted to say was up most of the night after a dodgy BBq spare ribs from local take a way  So who's all on here?"
p2378
ag3
aa(lp2379
S'my hands still feel gross from the oily sunscreen bleh  I miss brian already'
p2380
ag3
aa(lp2381
S'My head hurts '
p2382
ag3
aa(lp2383
S'@TheRealMrRiley @VarrenofFDMuk yayy! '
p2384
ag6
aa(lp2385
S'flight delayed. sitting at the serawak airport. had one of the best trips of my life! '
p2386
ag6
aa(lp2387
S"@jellyyy cannit believe you're on holiday and i'm not "
p2388
ag3
aa(lp2389
S'Thanks tornado warning, for the sleepless night. camp should be fun with no sleep tomorrow! not...ugh.  see you saturday, world.'
p2390
ag3
aa(lp2391
S'@yelyahwilliams have a nice day '
p2392
ag6
aa(lp2393
S'A week passed away very quickly. Alone again with family gone back  '
p2394
ag3
aa(lp2395
S'No @DHughesy on Rove tonight? '
p2396
ag3
aa(lp2397
S'The news about David Carradine is so sad '
p2398
ag3
aa(lp2399
S"Kellie Pickler was so great on Ellen friday talkin' about &quot;tweeter&quot;! LOL. She is so funny! And I love Ellen "
p2400
ag6
aa(lp2401
S"@pressdarling Oh that's right. No worries, was just getting a bit lonely  lol. Hope you guys had a great time."
p2402
ag3
aa(lp2403
S'@psychemedia I just wanted to join in  Good idea though!'
p2404
ag3
aa(lp2405
S"@flipgenie Oh, wicked, we'll definitely have to make sure we bump into each other then! "
p2406
ag6
aa(lp2407
S"no internet on laptop, spent the last hour trying to fix it, ran hijack this, deleted a couple BHOs and now it's working = relief "
p2408
ag6
aa(lp2409
S'@krisgreen65 v good thanks. just watched coach trip ep 25  Looking forward to our &lt;s&gt;lunch&lt;/s&gt; coffee with brendan on tues!'
p2410
ag3
aa(lp2411
S'@andreeatea I Know!!! No  I Found It Online Lol.'
p2412
ag3
aa(lp2413
S'@luv2bred29 No. I feel like sh*t.  No pepto downstairs- I started crying! Me=mess.'
p2414
ag3
aa(lp2415
S"@salandpepper Actually started hurting after ASDA, maybe I'm getting too old and decrepit to shop! Off to park now with boy, beach later "
p2416
ag6
aa(lp2417
S'wakey wakey '
p2418
ag6
aa(lp2419
S'@Squibby_ twas good. Freakshow and womanizer highlights for meee '
p2420
ag6
aa(lp2421
S'Ok, im leaving to kickbox. '
p2422
ag6
aa(lp2423
S"@sunshine1883 oh. I think that's why it won't work on mine...I'm not on Globe "
p2424
ag3
aa(lp2425
S'Looking for new songs to download... Any suggestions? '
p2426
ag6
aa(lp2427
S'HAHA! night! Let me know if you have any animal visitors tonight '
p2428
ag6
aa(lp2429
S'pop it, lock it, polka dot it, countryfy it, hip-hop it, put your hawk in the sky, movie side to side, jump to the left, stick it, glide '
p2430
ag6
aa(lp2431
S'@roychang do u mind switching your twitter username with mine ?  please...'
p2432
ag3
aa(lp2433
S'http://twitpic.com/7n1b1 - So upset, my NKOTB mug broke  boo hoo'
p2434
ag3
aa(lp2435
S'Beach balls, summer essentials, and PT thoughts on Failure all at FLAMINGO ROAD CHURCH TODAY  WWW.FRCLIVE.TV join us at 930 11 1245 &amp; 5'
p2436
ag6
aa(lp2437
S'@jaycantu merry christmas, pappy. now you look even MORE like a gpa...BALD and all '
p2438
ag6
aa(lp2439
S'@tracingpaper Thank you so much for mentioning http://hyperlocavore.com on your smarty pants blog!  http://tinyurl.com/cfhspc'
p2440
ag6
aa(lp2441
S'@inkserotica your welcome '
p2442
ag6
aa(lp2443
S'@Hadramie  Do you want shopping tips? Hehe...'
p2444
ag6
aa(lp2445
S'Hates work '
p2446
ag3
aa(lp2447
S'Might see if I can get a tenner to get myself some much needed tops, going to cheapo Primark; I prefer quantity over quality '
p2448
ag6
aa(lp2449
S'@stinsauce Doing my best.  Thanks for coming for movies w/Mind the other night. cheered me up.'
p2450
ag6
aa(lp2451
S'Be vigorously aware of what you have...   the small things in life are great!  plus theres so many of em!  (via @RevRunWisdom)'
p2452
ag6
aa(lp2453
S'bad day is almost over, looking forward to tomorrow '
p2454
ag6
aa(lp2455
S"@nuttychris am not a teen anymore  i'm 21 in august!"
p2456
ag3
aa(lp2457
S'#inaperfectworld i would not be a luke warm christian which i learned at bible study last night  *forgive me father*'
p2458
ag3
aa(lp2459
S'@cithara congrats maya! good luck '
p2460
ag6
aa(lp2461
S'@joristoonders nice  post some pics..'
p2462
ag6
aa(lp2463
S"@spilledbean that's good I guess. lmao. have fun doing research tomorrow. "
p2464
ag6
aa(lp2465
S'Studying my life away, however, I can see the light at the end of the tunnel- ONLY 5 days to go!!! '
p2466
ag6
aa(lp2467
S'reading until I pass out. Hooray. '
p2468
ag6
aa(lp2469
S'omg so wet and rainy these days  cant do anything outside'
p2470
ag3
aa(lp2471
S'@champange is helping me start mine....its more fun '
p2472
ag6
aa(lp2473
S'@ilovecpstyle arizona has a great 4th of july. #justsayin '
p2474
ag6
aa(lp2475
S'@xSKYLINES Are you getting an error or anything with your databases at Bubble? '
p2476
ag3
aa(lp2477
S'@MFG94 haha probably not til summers over  but other than that we havent really talked about..'
p2478
ag3
aa(lp2479
S"@charly_murg lolol, well a lot of places are bloody rough these days! Whinmoor's no exception. 'The posh end', everyone says that!  x"
p2480
ag6
aa(lp2481
S"@Syeck  she's gona miss you, ladybug."
p2482
ag3
aa(lp2483
S'Im riding the toys r us ferris wheel '
p2484
ag6
aa(lp2485
S"I can't do anything  My little dog is dead  I can't stand why  Today is going to be a hard day "
p2486
ag3
aa(lp2487
S'I just sign on to twitter! Looking forward to learning more and making friends on twitter. I using the BlackBerry Storm wish me luck. '
p2488
ag6
aa(lp2489
S'@madmup We watch My Name is Earl, Reaper, Chuck, Castle and kind of Dollhouse together and @bishma also watches Sarah Connor Chronicles. '
p2490
ag3
aa(lp2491
S"Can't sleep  dam naps lol... and its hot"
p2492
ag3
aa(lp2493
S"@leahjadee I know :/ it sucks. It's only me, paige and mark in science, lol "
p2494
ag6
aa(lp2495
S"playing on mom's instinct...wat a friday nite "
p2496
ag3
aa(lp2497
S'Scary weather is scary! Feel like I should be hiding under the stairs. '
p2498
ag3
aa(lp2499
S'trying to figure this twitter thing out '
p2500
ag6
aa(lp2501
S'My computer is dying '
p2502
ag3
aa(lp2503
S'6:30am, up. Probably gonna hop in the shower. My stomach hurts!  Seriously thinkin I have the flu.'
p2504
ag3
aa(lp2505
S'@Polkadotrobots hello my darling!! now you can follow me '
p2506
ag6
aa(lp2507
S'@chelsea_playboy noooo  take them off ;)'
p2508
ag3
aa(lp2509
S'So sad  just found out my favorite clothing line is closing'
p2510
ag3
aa(lp2511
S"my computer is acting dumb so i can't get on it.  peace &lt;3 "
p2512
ag3
aa(lp2513
S"@1poundchallenge I'll be in Berner's Street for a lunch today. Not too far from soho. I'll give you your pound if you like. "
p2514
ag6
aa(lp2515
S'hey twitter world! ahahah. '
p2516
ag6
aa(lp2517
S"had fun with gayle but is incredibly pissed at dan's dad "
p2518
ag3
aa(lp2519
S"@mikal_d that's what you get for being you "
p2520
ag6
aa(lp2521
S"@SushiGotEaten Thanks so much, he needs all the prayers he can get :-/ We haven't told my brother yet, we're doing that tonight "
p2522
ag3
aa(lp2523
S'New friends, I bloom Lotuses; Souls just like you  http://cli.gs/TZHUvr Tell me about YOU...'
p2524
ag6
aa(lp2525
S"Here's the deal guys. I'm going to pick 5 random followers and I'm going to follow you! I'll post the names "
p2526
ag6
aa(lp2527
S"@autumnkaine when you finish whatev you're reading now, remind me to send you a link to the crime fic i like. you'll like it, s'hilarious "
p2528
ag6
aa(lp2529
S"@mileycyrus I'm watching the HM movie for the third time...I love it...you're amazing "
p2530
ag6
aa(lp2531
S'its day one of my ivf injections so let the fun begin '
p2532
ag3
aa(lp2533
S"@Yosoian Just hanging with friends and fam  I *can* cook, I just don't, usually..."
p2534
ag6
aa(lp2535
S'Oracle buys Sun Microsystems for $7.4 billion. In your face, IBM! '
p2536
ag6
aa(lp2537
S"@kozza_ wouldn't have missed it for the world maaaang "
p2538
ag6
aa(lp2539
S'Thanks to @bjj_bug for being my 300th follower! I totally hearts you!  &lt;333 (original post was an oopsie...:grins'
p2540
ag6
aa(lp2541
S"@JonathanRKnight you don't know where you are because you miss Virginia Beach already.    We would sit through a Hurricane for you guys "
p2542
ag6
aa(lp2543
S"@mikehirschkorn went to the south of france for some sunshine  how's the throat?"
p2544
ag6
aa(lp2545
S'@GailPennington Belated Happy Birthday! None of your &quot;colleagues&quot; spilled it.  Many happy returns!'
p2546
ag3
aa(lp2547
S'HAPPY JONAS DAY EVERYONEE!! '
p2548
ag6
aa(lp2549
S"wow it will b another scorcher 2day i will need 2 drink powerade and wated  '''"
p2550
ag3
aa(lp2551
S'A little bit longer and I\xe2\x80\x99ll be fine......... '
p2552
ag3
aa(lp2553
S"@robdyrdek but.......I like little you. You'll never dance the same again "
p2554
ag3
aa(lp2555
S'food..bath..then bed. not felt like this in a long time '
p2556
ag3
aa(lp2557
S'@SusanAkaSARK Hello and welcome to the twitterverse! I missed you not getting NoHo! '
p2558
ag3
aa(lp2559
S'@LaiSan_C Oh and... the pie can thing is weird. Never heard of it. Guess it never emigrated to the US. '
p2560
ag6
aa(lp2561
S'@Ashlynn_Brooke What a good sport you are! '
p2562
ag6
aa(lp2563
S'@VickiPeace lol lucky! i want some '
p2564
ag6
aa(lp2565
S'@mollyblock   Ha!  Awesome   You are always the best new people finder I know.'
p2566
ag6
aa(lp2567
S'Why not kick back and book a holiday with http://www.traveljunky.com   http://blip.fm/traveljunky.com  ? http://blip.fm/~5enws'
p2568
ag6
aa(lp2569
S'@jchoi526 ... omg if you have time say hello. '
p2570
ag6
aa(lp2571
S'get YoungQ ladies, he may send that message on '
p2572
ag6
aa(lp2573
S'ready for religion   p.s love the background!!'
p2574
ag6
aa(lp2575
S'Obsessing over Le Creuset Slate Grey Collection... Discontinued '
p2576
ag3
aa(lp2577
S"Update on guitar: still poorly. I'm going to have to restring my old Yamaha and play that one 'til it's fixed... "
p2578
ag3
aa(lp2579
S'@HelpSaveBees  #ElevensesTime Ah go on, go on, go on! '
p2580
ag6
aa(lp2581
S"@Seal_girl Good! Seriously, we have a proper spare bed and everything, you're very welcome "
p2582
ag6
aa(lp2583
S'@sheenamarieanne me too. goodbye vacation. @WL_Philippines not me. '
p2584
ag3
aa(lp2585
S'missing my baby '
p2586
ag3
aa(lp2587
S'Ill again '
p2588
ag3
aa(lp2589
S'For what? I used to say that '
p2590
ag3
aa(lp2591
S'Aquarium was in terrible condition, 3 hours cleaning and repairing broken filter '
p2592
ag3
aa(lp2593
S'@LucyBowen post gig depression  i wanna see doug again!  just about to upload my pics '
p2594
ag3
aa(lp2595
S'@Ms_TiaTia Finde ich auch '
p2596
ag6
aa(lp2597
S'Watching a fam movie... True lies! I am so happy to b home from tour and to c my baby w/ flowers for me when i got off the bus '
p2598
ag6
aa(lp2599
S'@MrCeno haha,thank u! sorry for the delays...a lot going on at the same time '
p2600
ag6
aa(lp2601
S'Broke my nose again.. '
p2602
ag3
aa(lp2603
S'at home chillin...goin back to richmond soon tho '
p2604
ag3
aa(lp2605
S'I think that it cell phone had language options like on a computer, that would just be amazing.  [xMx]'
p2606
ag6
aa(lp2607
S"...I'm so tired of everything *sigh* "
p2608
ag3
aa(lp2609
S"@ceedubb6 we text each other within the same house. all the time. don't feel too lazy. "
p2610
ag6
aa(lp2611
S'@sigfpe The most interesting part of Erlang is its runtime, which unfortunately has no peer in other languages '
p2612
ag3
aa(lp2613
S'first time twittering. just checked NBA update. lakers vs. magic. fun match up. first game on friday morning beijing, still at work '
p2614
ag3
aa(lp2615
S'hates that i cant post pics on twitpic. Smart failed me here at baywalk.  #conass'
p2616
ag3
aa(lp2617
S'@gunitweeze FA SHO... UMMA BE AAAWWIGHT THO... '
p2618
ag6
aa(lp2619
S"How did we lose that...here's to the Ashes "
p2620
ag3
aa(lp2621
S'Cracked the screen on my beloved N95-3...will have to learn to live with it  Vibo kinda blows, as does Vodafone Sharp 703shf!!'
p2622
ag3
aa(lp2623
S"is it 6pm yet?  I want some Cab!!! #donatilive can't you get here any sooner?"
p2624
ag3
aa(lp2625
S'entire weekend ruined by work. there should be a law.  '
p2626
ag3
aa(lp2627
S"can't find my phone charger.. So I'm switching my service over to my old phone "
p2628
ag3
aa(lp2629
S'Going t get that ice cream I was craving for '
p2630
ag6
aa(lp2631
S'@ChelseyHart i was just visiting my great auntie, shes got two blocked arteries in her brain :S and my great uncle is really ill aswell '
p2632
ag3
aa(lp2633
S'@MarieLuv What the!?!? You are here in South Florida?? Sweet '
p2634
ag6
aa(lp2635
S"@bonkersbonnie well you won't tell me anything so I can't tell ya can I. "
p2636
ag3
aa(lp2637
S'@NJTanner ha ha! That was some funny shit. Got home at 6am. Woke up at half 3 today '
p2638
ag3
aa(lp2639
S'wow, paranoid - jonas brothers love it '
p2640
ag6
aa(lp2641
S"I totally LOVE Iggy Pop's 'I wanna go to the beach'.  What a beautiful &amp; melancholy song."
p2642
ag6
aa(lp2643
S'plus a little extra spending money would be great! i havent been able 2 shop 4 clothes/shoes in a hella long time '
p2644
ag3
aa(lp2645
S'@DJSlikk man jus workin on my clothing designs  whats goin on for you?'
p2646
ag6
aa(lp2647
S"I don't think she's gonna do it "
p2648
ag3
aa(lp2649
S'durian durian. '
p2650
ag6
aa(lp2651
S'#afazenda Animal esse reality show!  hein? hein?'
p2652
ag6
aa(lp2653
S'awhh  lol..ahh lovely lmao..that was revolting! Lmao!'
p2654
ag3
aa(lp2655
S"groundeed all summer long... couldn't find anything more boring than staying home everyday! "
p2656
ag3
aa(lp2657
S'Is in a Good Mood 2day i hav never laughed so much in town!  got work in abit cba but its money'
p2658
ag6
aa(lp2659
S'@adambmetal I recon it would be exciting. Did it give u tingles in your van-gina. '
p2660
ag6
aa(lp2661
S'Good Morning everyone! '
p2662
ag6
aa(lp2663
S'Oh yes!! Paul Collingwood you are a god!!! Shame about Sidebottom not playing though  But still ENGLAND WIN!!!!'
p2664
ag3
aa(lp2665
S"Editing @christoboom 's history term paper of 2008 for my editing course. should've chosen something that needs less editing "
p2666
ag3
aa(lp2667
S'back to ohio to see my baby. im going to miss all my jcu friendsss. '
p2668
ag3
aa(lp2669
S'goodbye purple bit of hair '
p2670
ag3
aa(lp2671
S"@rodneyedwards Found note to self - &quot;Keep Mum&quot; Now, does that mean don't bung mum in a home, or, keep rod's tax records a secret? "
p2672
ag6
aa(lp2673
S'catherinee isss upsettt  hahah inside jokee'
p2674
ag3
aa(lp2675
S'@DakotaMac thats fun eirbearrr honestly haha so this whole twitter thing isnt liking me very much i wont let me put a pic '
p2676
ag3
aa(lp2677
S"@princessbeebz I totally just watched that! I think it's hilarious! "
p2678
ag6
aa(lp2679
S'ahhh late night margaritas make me beam.  '
p2680
ag6
aa(lp2681
S'Not looking forward to sitting in traffic on the way home......  '
p2682
ag3
aa(lp2683
S"had an eventful time but now feels sad  maybe it's lack of sleep"
p2684
ag3
aa(lp2685
S'I have just played football with the floor! Ouch! '
p2686
ag3
aa(lp2687
S'I hope I have a normal happy patient today. '
p2688
ag6
aa(lp2689
S'@corecases you saw I have your cases in my collection too '
p2690
ag6
aa(lp2691
S'Just woke up and its raining '
p2692
ag3
aa(lp2693
S"does anyone have any good tips for curing hayfever? I've taken medicine... It didn't work  I need to study today and I cant concentrate!"
p2694
ag3
aa(lp2695
S'New to Twitter '
p2696
ag6
aa(lp2697
S"@thinkaboutart... no pig pics but that is why i'm asking if anyone in toronto has seen them. "
p2698
ag6
aa(lp2699
S'I need a haircut '
p2700
ag3
aa(lp2701
S"@DavidArchie i really want to see that movie! i'm glad you had a good time "
p2702
ag6
aa(lp2703
S'@TechWraith Waitaminute. How did you lose it? It was obviously an oversight on my part '
p2704
ag6
aa(lp2705
S'@supmanda http://www.kwod.net/index.php this is why '
p2706
ag3
aa(lp2707
S'@jenspeedy I would suggest avoiding 360 Living.  Not goodness    Try contacting Scott at MKCC mkccrenovations@rogers.com 905-303-9009'
p2708
ag3
aa(lp2709
S'@Jayde_Nicole bananas and chocolate pinkberry sounds so legit right now! excellent combo '
p2710
ag6
aa(lp2711
S'twitter wont let me upload a photo '
p2712
ag3
aa(lp2713
S'FONE BROKE  going to pay for season tickets tomorrow and maybe get a hockey stick tuesday daddys day with me going to play golf others'
p2714
ag3
aa(lp2715
S'I am not happy with Carl Edwards qualifying back to 25th so far '
p2716
ag3
aa(lp2717
S"@wordgrl First. Go vote on my tshirt. Second. I'm grumpy. How the fuck do you THINK I'd be! I'm unemployed! "
p2718
ag6
aa(lp2719
S'@dev0kan I am in a good mood! I hope you are too! Considering coming to one soon - probably this Saturday  Thinking about Wednesday.'
p2720
ag6
aa(lp2721
S'@ALOliver that happened to me on Facebook tonight.    I hate spoilers.  #fixreplies'
p2722
ag3
aa(lp2723
S'I will try to remember to Twitter from the George Strait concert '
p2724
ag6
aa(lp2725
S'spent the day with lee over  ( he helped me study for exams.. =( ) buttt ehhhnywayy haha todays my mommys birthday!'
p2726
ag6
aa(lp2727
S"@dejaminaj it's quite fantastic huh? "
p2728
ag6
aa(lp2729
S'Firefox, Chrome and IE are really being cranky on my laptop today...Donno why '
p2730
ag3
aa(lp2731
S'my cus and i were hidding so that the parents would not find us but 1 of then 1 of them found us '
p2732
ag3
aa(lp2733
S'@chaeseco sorry about that. Had your username wrong in last post. Thanks for pointing out my seesmic anniversary '
p2734
ag6
aa(lp2735
S"@msmonogram It's ME!! You are missing Me "
p2736
ag6
aa(lp2737
S"@Streyeder yeah, it's a fail right now. but i've had problems with Twitterfon in the past, too. granted, my iPhone is also acting up "
p2738
ag3
aa(lp2739
S'I wonder if M&amp;S at Kings Cross is closed for good, no Percy Pigs '
p2740
ag3
aa(lp2741
S'@What_A_Legend Start with Me '
p2742
ag6
aa(lp2743
S'so i woke up today &amp; i was sitting here listening to JB .. wow their soo amazing '
p2744
ag6
aa(lp2745
S"The Yankees are in first place!!!!!  I love it...tell me again who's number 1?? ;)"
p2746
ag6
aa(lp2747
S'@benpike that kinda makes me sad.. i thought the loyalty plan was really cool of t-mobile '
p2748
ag3
aa(lp2749
S'attention Ari Shapiro: silence cell phone during national radio interviews  #NPR'
p2750
ag6
aa(lp2751
S'playing pet society '
p2752
ag6
aa(lp2753
S'okay so im officially workin for no reason again.....  and my boys are off and just chillen...lol'
p2754
ag3
aa(lp2755
S'7 things - miley cyrus - i hate more than 7 things about myself '
p2756
ag3
aa(lp2757
S'@Don_J Let me know when please. Enjoy your coffee. '
p2758
ag6
aa(lp2759
S'Going to lay out by the pool! '
p2760
ag6
aa(lp2761
S"@rick_burgess awwwww, I thought it was some kinda special kinky outfit thing. I'd take em both ways, lol! "
p2762
ag6
aa(lp2763
S'@cherub_rock123 oh gosh I know I got a project dumped on me at 5 this afternoon which is why I am on the laptop working now '
p2764
ag3
aa(lp2765
S"@EliMcLaughlin  just watched 'the Clique' (had to wait since it comes out in germany) and OMG ! I LOVE IT ! just wanted to say you that "
p2766
ag6
aa(lp2767
S"@mousecrazy55 I'm glad to hear that! LOL  "
p2768
ag6
aa(lp2769
S'@snoopzmccraccin wow. wat was that for? that was very hurtful  im not even worth proper words?'
p2770
ag3
aa(lp2771
S'@onhae  I enjoyed doing them. I love the jewelry on your site...I bet I could make a pretty necklace with one of those wired stones.'
p2772
ag6
aa(lp2773
S'@shellsmania '
p2774
ag6
aa(lp2775
S'@phmancus yeah but I didnt get exempt from that exam '
p2776
ag3
aa(lp2777
S"I am at Marie Calander's! And Joanna ate all of my snacks!!!  roar"
p2778
ag3
aa(lp2779
S"i woulda been on my way to the 02 right now if seetickets didn't mess up  gutted"
p2780
ag3
aa(lp2781
S"@momof3gr8kidz Aww, that means a lot to me! God bless you and yours' as well "
p2782
ag6
aa(lp2783
S'sleep hates my life..im convinced '
p2784
ag3
aa(lp2785
S'@LyanaEvrilow Lightning is made of awesome '
p2786
ag6
aa(lp2787
S'@Ryankfm @RichardHardiman I would so pay to watch that - in dresses, of course! Can do it for charity!  &quot;Hi, my name is Charity&quot; '
p2788
ag6
aa(lp2789
S"@YoungQ Hey! That's craziness! Always something going on when you're on tour! "
p2790
ag6
aa(lp2791
S'I miss the school, there i see my best friends every day '
p2792
ag3
aa(lp2793
S'KELLEY YOU NEED TO WAKE UP AT 4AM. WHAT ARE YOU DOING?!?!  aaaaaackkkk!!'
p2794
ag3
aa(lp2795
S"I loved UP, didn't think they needed that type of villain. Story was great, looked like they reused some assets from past movies  #UP"
p2796
ag3
aa(lp2797
S'@asobitech If I had the money, I would '
p2798
ag3
aa(lp2799
S"@andrzejkala Me too. Shall we arrange something soon? I know @Scryypy doesn't have broadband right now though "
p2800
ag3
aa(lp2801
S'@beaniecolleenie Booo, get a new bank. Chase sucks  We just changed all of our stuff when we were back in June.'
p2802
ag3
aa(lp2803
S'In the hospital visiting my cuzzo '
p2804
ag3
aa(lp2805
S"I think I might be in love with Srider. He's amazing. ElfBoy's pretty cool too, though. So depressed that wizard dude died "
p2806
ag3
aa(lp2807
S'Spring 1, year 1. '
p2808
ag3
aa(lp2809
S"I feel bad for Mike Tyson's daughter and I hope she gets well. "
p2810
ag3
aa(lp2811
S'@caityyyyyy am stuffeddd ! haha am meant to be studying but am on heree ha ha and its mothers day too  i wanna be with mummyyy'
p2812
ag3
aa(lp2813
S'is at the summit with mia and elissa. '
p2814
ag6
aa(lp2815
S'on msn and doin homework '
p2816
ag3
aa(lp2817
S'@Will_UK Wordpress for sure '
p2818
ag6
aa(lp2819
S"@ahavayafeh Aww, don't cry "
p2820
ag3
aa(lp2821
S"A couple is wearing some couple shirts n'awww! I'm jealous "
p2822
ag3
aa(lp2823
S'@JL_Pagano Thank you '
p2824
ag6
aa(lp2825
S"awww doesn't courtneyfriel have a twitter page bummed out now  does anyone know if she updates #curious RE: @ courtneyfriel ???"
p2826
ag3
aa(lp2827
S'Sitting at home, working and eating Strawberry Shortcake '
p2828
ag6
aa(lp2829
S"@rdkcchild awwwww btw it's . FierceCouture. from goSupermodel, member the forum topic I made? You poor thing  feel better"
p2830
ag3
aa(lp2831
S"if you can't think of anything to do, i recommend you to watch hyd the movie. hahaha. sweet, "
p2832
ag6
aa(lp2833
S'Dag..u ever done something u regret?? Wish u can turn back the hands of time?? I do...damn. Smh..my stomach hurts jus thinkin about it.  '
p2834
ag3
aa(lp2835
S'I am so so so so so bored of studying '
p2836
ag3
aa(lp2837
S'YAY for the amore gym floor trainer job! '
p2838
ag6
aa(lp2839
S"@xkathyxrocksx I can come to Blastbeat July 4th! can you?  my dad's sorting out the driving."
p2840
ag6
aa(lp2841
S"I'm on my way into town listening to good ol' billy ray "
p2842
ag6
aa(lp2843
S'@ermadea Passed the satanic number of cult members now chick! Hope your day improves! '
p2844
ag6
aa(lp2845
S"@zeashanashraf yea, i'm not a big hip-hop fan either,, just lovin what's good "
p2846
ag6
aa(lp2847
S'I hate vomitting  I had hardly anything to gang up!'
p2848
ag3
aa(lp2849
S'@BeeReel LOL.....no prob, glad I could help '
p2850
ag6
aa(lp2851
S"@mgsteciu http://is.gd/17nO6 Apparently an issue with silverlight running from 'File://' and not 'http://', but I need 'file://' "
p2852
ag3
aa(lp2853
S'awww, im so glad diversity won bgt  and not stupid susan boyle, hahahaa.'
p2854
ag6
aa(lp2855
S"@LucienBurm woo! I can't wait! "
p2856
ag6
aa(lp2857
S'Got the baby watching princess diaries while I get ready for church '
p2858
ag6
aa(lp2859
S"@jodifur i am on my cell phone and can't see the link "
p2860
ag3
aa(lp2861
S'@Terry_Leon  heard from someone else that they have already choosen '
p2862
ag3
aa(lp2863
S'@secret_sub LOL! her place is a fucken dump! my god! '
p2864
ag3
aa(lp2865
S'@squrespace whats goin on  #suarespace'
p2866
ag3
aa(lp2867
S'SOULJA BOY GONE   (souljaboytellem live &gt; http://ustre.am/2UhS)'
p2868
ag3
aa(lp2869
S'At Barnes &amp; Noble in line waiting to get my book signed by Artie Lange  http://twitpic.com/6hxbx'
p2870
ag6
aa(lp2871
S'Is back and ready for work but the tan has already started to fade '
p2872
ag3
aa(lp2873
S'I was midnight cleaning my bathroom, pause for reaction, and I think I inhaled too much clorox. Headache   time for bed. Ha'
p2874
ag3
aa(lp2875
S"i hatee dumfries  can't wait to get away from here..."
p2876
ag3
aa(lp2877
S'@bassfacejess ME TOO!! tomorrow is meant to be the last sunny day tho  xx'
p2878
ag3
aa(lp2879
S"@Lakeithea lol....I'm good....alittle tired...    lol"
p2880
ag3
aa(lp2881
S'thinks she needs to do some reading.. lots to do for dissertation... '
p2882
ag3
aa(lp2883
S'@3TrueBuhbz hha yeea i dont wanna be alone ! heeey ben ben ben lols what wrong  loving th people yr following , aahmhm keri hilson hha'
p2884
ag3
aa(lp2885
S'is workin 2nite , Also doing Race For Life 2moz . Shame i got sunburn '
p2886
ag3
aa(lp2887
S"I want to ride my bicycle today, but it's too cold and cloudy today  http://snipurl.com/izzsn"
p2888
ag3
aa(lp2889
S'wanna start work on an artistic masterpiece ...any ideas ???   '
p2890
ag3
aa(lp2891
S'i am feeling very O-L-D today '
p2892
ag3
aa(lp2893
S'exam Monday '
p2894
ag3
aa(lp2895
S'finally has my new blog up since i cant fix my other one  http://megglesphotos.blogspot.com/'
p2896
ag3
aa(lp2897
S"@SueSpaight thank you Sue-the big day is only a few hours away... not that I'm keeping track or anything... "
p2898
ag6
aa(lp2899
S'http://twitpic.com/6turp Sitting on the beach with 4 out of 5 of my fav girls  miss u men men'
p2900
ag6
aa(lp2901
S'Transformers is out! I want to see it '
p2902
ag3
aa(lp2903
S'I need some Chocolates to relieve my stress.  #pinoy #barkada #singer #model #poker'
p2904
ag3
aa(lp2905
S"OK I DIDN'T WASH YESTERDAY SO TODAY IS THE DAY "
p2906
ag3
aa(lp2907
S'my tweetie is broken. '
p2908
ag3
aa(lp2909
S'on my way to work...then off to ohio for the weekend '
p2910
ag6
aa(lp2911
S'reliving the aasha build thru photos on facebook....man what a great trip it was '
p2912
ag6
aa(lp2913
S'it sucks that the new iphone 3gs wont be able to send mms till late summer! '
p2914
ag3
aa(lp2915
S'Hopefully when i go to work today i have those cookies i requested '
p2916
ag6
aa(lp2917
S"Believing the weather forcasts &amp; going jacketless today, hope this belief doesn't bite me in the butt later "
p2918
ag6
aa(lp2919
S'I WAITING FUNNY LADIES '
p2920
ag6
aa(lp2921
S'wow... made it to the kitchen for breakfast - wish i could spend the whole day in bed - but too much school work '
p2922
ag3
aa(lp2923
S"Sitting here feeling like I'm coming down with something. Not going to the hospital to visit Grandma then "
p2924
ag3
aa(lp2925
S'@carlacharisse tell me happy stuff Carla. i want to be happy today '
p2926
ag3
aa(lp2927
S"In children's hospital ER hoping Meredith does NOT have a broken elbow/arm "
p2928
ag3
aa(lp2929
S'I have 3 mosquito bites on my butt from sitting in the grass. '
p2930
ag3
aa(lp2931
S"today's sky is so damn gorgeous! too bad I don't have an slr camera to capture it "
p2932
ag3
aa(lp2933
S"argh. i forgot to buy buttermilk and frosting for the cupcakes! i guess i'll be running back to the store.  - http://bkite.com/07rQ1"
p2934
ag3
aa(lp2935
S'Man with a great sense of humour... Venky Pachad? '
p2936
ag6
aa(lp2937
S"All lies and jest, still the man hears what he wants to hear And disregards the rest....ahhh the boxer..now there's a song "
p2938
ag6
aa(lp2939
S'A cup of coffee and yogurt with fruit for breakfast '
p2940
ag6
aa(lp2941
S'she keeps me going '
p2942
ag6
aa(lp2943
S"OMG! I have 1,000 updates! I'm very happy.. wow. I got it  reach thanks to David &amp; Hannah ;)"
p2944
ag6
aa(lp2945
S"@Wilkesey I know, people actually laughed. Bet they won't be laughing tomorrow  I bruise horrifically, it's quite dramatic!"
p2946
ag6
aa(lp2947
S"@GREENARROW09 WHAT'S GOING ON?? "
p2948
ag6
aa(lp2949
S'Dev Team is taking forever to release the jailbreak software '
p2950
ag3
aa(lp2951
S'Oh help me! Driving in my friends car. Shes not 2 good of a driver! She even admited it!!   She almost killed us last nite! Goin2 Triple A'
p2952
ag3
aa(lp2953
S'Wowwieee is @Monday_  defensive! We were only inviting you to the better side! Join if you want '
p2954
ag6
aa(lp2955
S"tried to look at AM's profile - still &quot;temporarily unavailable&quot;. If memory serves, for the fourth or fifth day running "
p2956
ag3
aa(lp2957
S'Happy mothers day to those of u that are mothers, and happy mothers day to all of your mothers      I miss my mom....'
p2958
ag6
aa(lp2959
S"- Meh.... eating grapes and watching 7 Pounds. Had fun today playin' mini golf with Richie, Reva, and Thomas. "
p2960
ag6
aa(lp2961
S"I don't like my pic thing being green oh next time I'm online I need to change it "
p2962
ag3
aa(lp2963
S"Addendum: I hate it when people can't accept that I'll tweet in three different languages and two different alphabets. "
p2964
ag3
aa(lp2965
S"@carlylive i'm trying to erase all traces of him "
p2966
ag6
aa(lp2967
S'Chilling....Listening to Checkenfoot '
p2968
ag6
aa(lp2969
S"work is so dull today, everyone seems so depressed  what's happening in twitterverse today?"
p2970
ag3
aa(lp2971
S'@richardepryor Oh yes - have to complete form for Polo. Cool thing though - Matt Horne is telling people about my mashup &amp; remix podcast '
p2972
ag6
aa(lp2973
S'the weather has eaten away my evening walk '
p2974
ag3
aa(lp2975
S"@Raeknightowl4 TELL HER I'M SORRY AND I'M NO LONGER LOCKED TO GO AHEAD &amp; FOLLOW ME!!! SORRY AGAIN! "
p2976
ag3
aa(lp2977
S'@LukePritch well then, have fun! i wanted to come but unfortunatly i gotta work '
p2978
ag3
aa(lp2979
S'Meu Shih Tzu Max parece um coelhinho! My puppy Shih Tzu Max looks like a bunny! It\xef\xbf\xbds very funny. '
p2980
ag6
aa(lp2981
S'went shoppin 4 cross country shoes- no luck '
p2982
ag3
aa(lp2983
S'@erkaprka that would be friggen awesome '
p2984
ag6
aa(lp2985
S'@foiledcupcakes it is pretty crazy!  It has taken me a lot longer than a few months to get my 802 followers '
p2986
ag3
aa(lp2987
S'why is it that when i chew on a gumball, it severely hurts my left temple ?! '
p2988
ag3
aa(lp2989
S'Workout - go take physical......stuuuudy '
p2990
ag6
aa(lp2991
S"Confed Cup was loud, and noisy, and unpleasant, and the ref was DODGY - but I'm really glad I went, I feel like a true South African "
p2992
ag6
aa(lp2993
S'is The Centrepoint has no more vouchers for redemption!  http://plurk.com/p/1177aj'
p2994
ag3
aa(lp2995
S"@Ree_C I'll try not to! "
p2996
ag6
aa(lp2997
S'WHY DOESNT CHIPOLTLE DELIVER...I MISS MY CAR...mannnnnnnnn. '
p2998
ag3
aa(lp2999
S'is sitting in the cutest cafe in vermont..  had a very long trip here but it was well worth it.'
p3000
ag6
aa(lp3001
S'helllooooo boston legal '
p3002
ag6
aa(lp3003
S'Got the shock of my life when Fi texted earlier saying she is in hospital with suspected appendicitis! Hope she feels loads better soon '
p3004
ag3
aa(lp3005
S'@FoolishEarthlng I never played Doom  I only had Wolfenstein! I was poor, dammit, POOR.'
p3006
ag3
aa(lp3007
S"Just had a funny dream where a girl told him she was &quot;horizontally challenged&quot;. That's awesome. I hope I never hear it for serious! "
p3008
ag6
aa(lp3009
S'Trying to explain metaphysical things to my very rational boyfriend is really difficult sometimes '
p3010
ag3
aa(lp3011
S'@louiethecat Seriously. It was even worse on Monday when it was off during daytime '
p3012
ag3
aa(lp3013
S"@Charliered23 That's what's up, drink up!! "
p3014
ag6
aa(lp3015
S'@TimmyGrunt you should know '
p3016
ag6
aa(lp3017
S"@tomwaits too bad this doesn't work in germany "
p3018
ag3
aa(lp3019
S"Writing dialogue sucks!  It's very frustrating!  I talk more than anyone I know, so you would think it would be a natural thing!  "
p3020
ag3
aa(lp3021
S'Just had my Fuji S9500 returned from servicing came back worst that before I sent it '
p3022
ag3
aa(lp3023
S"Laughing at bird taunting, teasing Smokey.  Should I play overprotective parent and have talk w/ bird's mother or let Smokey handle? "
p3024
ag6
aa(lp3025
S'had an awesome time @ MK vrede fest &amp; cool runnings '
p3026
ag6
aa(lp3027
S'@sun_ho Welcome to Twitter Sun! ROCK ON!! '
p3028
ag6
aa(lp3029
S"wow. i haven't gone a night without talking to you in a long time..... it isn't fun.  &lt;3333"
p3030
ag3
aa(lp3031
S'think its time to do some maths '
p3032
ag3
aa(lp3033
S'@EzyBlogger Lol..thanks! '
p3034
ag6
aa(lp3035
S'finished organising my books. I feel like a librarian now '
p3036
ag6
aa(lp3037
S"@FSBigBob I'm having the SAME problem! "
p3038
ag3
aa(lp3039
S"Eep! I haven't said anything for 4 days. WOW. But I have been a little occupied. And our production is finally over. yay. "
p3040
ag6
aa(lp3041
S'Just found out that I will be gone for 12 days starting this weekend. To a place I find completely uncomfortable.  Can kitty come with me?'
p3042
ag3
aa(lp3043
S"boooooo they're using Starlight by Muse.  i don't know why i hate it when the songs i like are used on major broadcasts such as this."
p3044
ag3
aa(lp3045
S'My foot is swollen. I stepped on a bee... '
p3046
ag3
aa(lp3047
S'looking forward to the next vacay... 85-90 degrees is more my kind of weather '
p3048
ag6
aa(lp3049
S"@WeTheTRAVIS There's nothing to be nervous about. You'll do amazing, like always. No worries! "
p3050
ag6
aa(lp3051
S'Eating grapes for breakfast. Very refreshing i ensure you '
p3052
ag6
aa(lp3053
S'witt my earphones for my ipod just broke '
p3054
ag3
aa(lp3055
S'@KlownDogg goodnight '
p3056
ag6
aa(lp3057
S"@mitchelmusso 's new song is actually pretty good "
p3058
ag6
aa(lp3059
S'I fucking hate my life '
p3060
ag3
aa(lp3061
S'@Killsbury3 @graf808 agrees w/your advice on what to bring for camping. '
p3062
ag6
aa(lp3063
S'going to go to school '
p3064
ag6
aa(lp3065
S'@OfficialAS  -hugggles-'
p3066
ag3
aa(lp3067
S"@biznic Hey Nicole, I'll have Duncan send you some references, so you can talk to some MemberClicks clients "
p3068
ag6
aa(lp3069
S'Time to sleep. All is relatively well. Random feeling of positivity. Night '
p3070
ag6
aa(lp3071
S'all time low in two days '
p3072
ag6
aa(lp3073
S"@TakeshaVictoria @aecarter doesn't like Twitter, so i have no clue when she'll see your Broadway tweet... "
p3074
ag3
aa(lp3075
S"@JoseMendez14 um it's someone special's b-day "
p3076
ag6
aa(lp3077
S"&quot;Like A Rolling Stone&quot;: what a great song. Putting it on ele's trip playlist; hope she doesn't take it personally. "
p3078
ag6
aa(lp3079
S'tooth hurts '
p3080
ag3
aa(lp3081
S'awwwwww  gunna miss ya too. Lol. Ttyl(angel) heres ashely...or arlene..watevr'
p3082
ag3
aa(lp3083
S"can't afford sonasphere tickets  sucks much..."
p3084
ag3
aa(lp3085
S'watching a very fun french movie - Jules and Jim  '
p3086
ag6
aa(lp3087
S"@billyjensen are you saying you're behind the fake @mattcutts? "
p3088
ag6
aa(lp3089
S'@battlebays That sucks   Have you thought about a franchise type business?  I do this: http://bit.ly/1864ml'
p3090
ag3
aa(lp3091
S"@acalderwood um no, winterpeg treated me well for 18 years, ps: i'll be in toronto soon, then we'll seriously be 48 hours away "
p3092
ag3
aa(lp3093
S'had an awesome day with Anni '
p3094
ag6
aa(lp3095
S'More advanced, or even advanced basic knowledge of Photoshop would help me out now. But i suppose Paint will do '
p3096
ag3
aa(lp3097
S'Up for work  be back on around nine!'
p3098
ag3
aa(lp3099
S'@captainborealis same here! I didnt know where she was. Kallang is far for me though! @ least you saw @samantharonson before! '
p3100
ag6
aa(lp3101
S'@timlaytonsr yep  but can t wait for the Palm #windowsmobile'
p3102
ag6
aa(lp3103
S'She does eat with her mouth open though   Lonelyandroid ):'
p3104
ag3
aa(lp3105
S'@MYIDOLTOWN haha Tee/Cookie fan...lol I like that! '
p3106
ag6
aa(lp3107
S"@isilwath sad that hot tub isn't working "
p3108
ag3
aa(lp3109
S"@xtiarn yeah. i've been playing it on the computer!! "
p3110
ag6
aa(lp3111
S'The move is OVER and I just ate about 1/2 of a 5-6 pound roast + bowl of potatoes '
p3112
ag6
aa(lp3113
S'@JohnBlackk Saw The Hangover a few days ago, incredible. Too bad it depicts so many stereotypes of #vegas Vegas is the place to play! '
p3114
ag6
aa(lp3115
S"@LetheinVegas that's pretty good.. where can i get the rest of the story?  Yeah my drawing are pretty kiddish compared to that.. "
p3116
ag6
aa(lp3117
S'listening to some Owl City. '
p3118
ag6
aa(lp3119
S'Oh anxiety....you are getting the best of me tonight '
p3120
ag3
aa(lp3121
S'Really bored and tyred  wot should i do?'
p3122
ag3
aa(lp3123
S'@goofunk I do not even know what to respond to that '
p3124
ag6
aa(lp3125
S'@MsAlexisMarie hahaha ok. Ur gonna DIE! Laughing. Grab some Cheez-Its and enjoy '
p3126
ag6
aa(lp3127
S"Watching basketball with my mom is no fun at all; she's murdering the fun for me. "
p3128
ag3
aa(lp3129
S'Secret Place-Danity Kane '
p3130
ag3
aa(lp3131
S"@aushin lmao!omg we're compatible if youre 4 and i'm 8 aha.i got excited when i foundout how many seconds old i am, but it's eastern time "
p3132
ag3
aa(lp3133
S'@creativewax '
p3134
ag6
aa(lp3135
S'@aliise Why do you have to go '
p3136
ag3
aa(lp3137
S"Just finished working  with 1.5 hours delay! will wake up at 9:30 to go on a Vespa tour. that's the only good thing right now."
p3138
ag3
aa(lp3139
S"Jealoussssss!!!! Filippo my new friend goes to Bali for his summer holiday  I'm so boring, boring people, boring life"
p3140
ag3
aa(lp3141
S'my grand fathers day plans have been foiled!  must go make millions now so dad can retire and not have to work wknds anymore '
p3142
ag3
aa(lp3143
S'Finishing up some work, getting super pumped for the weekend! '
p3144
ag6
aa(lp3145
S'@MODSUN you should send me it that would be a key '
p3146
ag6
aa(lp3147
S"@elextrix101 It's gonna be a good show. See if you can motivate Pennywise to play Land Down Under. They do a kick ass cover "
p3148
ag6
aa(lp3149
S'After I upgraded TweetDeck to v0.25.1b favorites and &quot;in reply to&quot; are broken '
p3150
ag3
aa(lp3151
S'Ouff... Service Pack 2.0 and Cumulative Update 09 for SharePoint validated on test platforms... Procedures and test plan validated '
p3152
ag6
aa(lp3153
S"bummer. my internet crapped out the entire night.  didn't get to listen to the commentary for roddick-monfils match."
p3154
ag3
aa(lp3155
S'too boring weekend :| &gt; '
p3156
ag3
aa(lp3157
S'@djscuba  hope you get well soon!'
p3158
ag3
aa(lp3159
S"desi's musical on monday. ice cream trip with mads and kate on friday. sleepover with jess on saturday. hell yeah! exams such, though "
p3160
ag3
aa(lp3161
S'missed yoga    trying to figure out why im such an arse.'
p3162
ag3
aa(lp3163
S'loving summer so far '
p3164
ag6
aa(lp3165
S'@_xotashhh I love having days off school, I had one on friday too '
p3166
ag6
aa(lp3167
S'Damn they always tryin to get me for my paper...problem is they always win '
p3168
ag3
aa(lp3169
S"@yoko71 the gecko pic isn't working!! it won't upload onto picasa which i am using to make the collage  have any others?"
p3170
ag3
aa(lp3171
S'This is so sad. We need to stick up for our trans friends so crap like this stops happening. Another young girl - dead  http://tr.im/p7iF'
p3172
ag3
aa(lp3173
S"To all mothers out there in Twitterland: Happy Mother's Day. I hope your day is a great one.  ~Tara Mae"
p3174
ag6
aa(lp3175
S'@c_davies I had no idea a four slice toaster was that much larger than a 3 slice toaster.   Frankly, I need a 10 slice toaster'
p3176
ag6
aa(lp3177
S'@galgo im good thanks, miss all you guys '
p3178
ag3
aa(lp3179
S'@smellycents There is only one way to find out I guess.... '
p3180
ag6
aa(lp3181
S"@BluWhskE I was going to phone you lol as a joke, and that's when i found out my phone is off "
p3182
ag3
aa(lp3183
S"Ricks leaving me!!!!!!!!!!!!!!!!!!!!!! I hate my life, I'm going to be so alone!     but I'll always do it better !"
p3184
ag3
aa(lp3185
S"http://twitpic.com/6odhk - I want to get back on these days  Isn't it cool??"
p3186
ag3
aa(lp3187
S"@twelve20 That's what Nelson Muntz says "
p3188
ag6
aa(lp3189
S'birthday cards and cakes to be bought, fun day for me '
p3190
ag6
aa(lp3191
S'@Katie_Fitch heya Katie, yeah sorry i was busy working on the trailer!  i will talk next time '
p3192
ag3
aa(lp3193
S'@sweatpantninja I was wondering where you were seated. wasnt it beautiful?! you should play there. '
p3194
ag6
aa(lp3195
S'At work.  no rest for the wicked!'
p3196
ag3
aa(lp3197
S'the heat stole my energy  ..thief... goodnight!'
p3198
ag3
aa(lp3199
S'I think I broke my toe. '
p3200
ag3
aa(lp3201
S'I miss my A-Dawg..! '
p3202
ag3
aa(lp3203
S'My gorgeous boy playing with his musical toy- 10 wks old today!  http://twitpic.com/4eeth'
p3204
ag6
aa(lp3205
S'@cybette - sorry SUPER belated response.... BUT... course will send you the details!! would be wicked to have you there '
p3206
ag6
aa(lp3207
S'I lost my ipod '
p3208
ag3
aa(lp3209
S'Oh shit! I seriously doubt that I can see Transformers 2 this saturday. '
p3210
ag3
aa(lp3211
S'@bbbernice the next day?! i dun think the doctor gave me enough pills to last the entire holiday  they run out on the last day'
p3212
ag3
aa(lp3213
S'ready for the weekend and sad that I have to be at the office again tomorrow morning '
p3214
ag3
aa(lp3215
S'Patrick St late night is always fun. Geriatric granny cabbie failing to park her merc. I thought a driving licence was required? '
p3216
ag6
aa(lp3217
S'At lunchhhh. I forgot my chap stick '
p3218
ag3
aa(lp3219
S'@wahseiluj awh.  one day...'
p3220
ag3
aa(lp3221
S'@glembotzky Thanks '
p3222
ag6
aa(lp3223
S'has a staff meeting tomorrow at nine '
p3224
ag3
aa(lp3225
S'My tweet deck is so slow today, like one hour behind everyone else  pourquoi?'
p3226
ag3
aa(lp3227
S"Go to a family meal in 1 hour. I'll cheer up my grandpa "
p3228
ag6
aa(lp3229
S"@jillianjoyce BJ's is open till midnight I believe! "
p3230
ag6
aa(lp3231
S'uh-oh battery power low... '
p3232
ag3
aa(lp3233
S'anyone have a verizon fone i can borrow for the mean time while i get my replacement? '
p3234
ag3
aa(lp3235
S'@al3grab nighty .. Miss you '
p3236
ag3
aa(lp3237
S"worse is, it's one the same day as HM: the movie premieres in singapore! I WANNA GO AND WATCH MILEY, NOT blow some stinkin' instruments "
p3238
ag3
aa(lp3239
S'@reverieBR I think that Vania is avoiding me    lol!'
p3240
ag6
aa(lp3241
S"@23graeme23 Arghh that doesn't sound fun...I'm having a lazy day today...Got a busy week "
p3242
ag3
aa(lp3243
S"Dude...this weekend, I'm making a Mr. McKown fan group on Bookface. Go and look out for it "
p3244
ag6
aa(lp3245
S'@Yonoooy yeah! RK luv...  Michael who? wehehehehe )'
p3246
ag6
aa(lp3247
S'@erichalvorsen I do too '
p3248
ag3
aa(lp3249
S'@ingridmusic Justin Vernon is brilliant... love Bon Iver. '
p3250
ag6
aa(lp3251
S"@maureenjohnson I'm a red head and love it. Red Heads have more fun. "
p3252
ag6
aa(lp3253
S'OMFG!!!! WE ARE SOOO GOING TO SEE J.HOLIDAY....2 WEEKS!!!! IM SOOOOOOOO EXCITED!!!!!!! '
p3254
ag6
aa(lp3255
S'frankie had nonnas and now i really want some '
p3256
ag3
aa(lp3257
S"@ddlovato-Have fun!! Next time, we'll really go out and party it up. Within reason "
p3258
ag6
aa(lp3259
S'@HanSpam Just clicked link from yday! I cant wait! Ive been waiting for this movie since last yr!! still have a yr to wait!  hehe '
p3260
ag3
aa(lp3261
S"@zegolf Crap. Really? Even more expensive than Vista Ultimate? That's just ridiculous... and stupid. "
p3262
ag3
aa(lp3263
S'going to the beach this weekend '
p3264
ag6
aa(lp3265
S"@modelstruck I'm in need of a new profile pic and pics with Talena "
p3266
ag6
aa(lp3267
S'Thanks to @sparkette @indigoeyes @BugsMom16 for the #followfriday love! '
p3268
ag6
aa(lp3269
S"Wife's website now live running Railo on EC2 instance. (http://bit.ly/46YIy). Please tell your wives and girlfriends! "
p3270
ag6
aa(lp3271
S'@fitprosarah ps- missed u guys too! '
p3272
ag6
aa(lp3273
S'Deleting some stuff fron my project  and making new stuff.... what a rainy whether, just like my mood ;-)'
p3274
ag3
aa(lp3275
S"@janicereyes I totally know what you mean... I've given up on that though, it's disastrous with the kiddos all by myself! "
p3276
ag3
aa(lp3277
S"@pandakabobs bummer i'm already booked for that weekend  are you planning on visiting art star next weekend?? or renegade??"
p3278
ag3
aa(lp3279
S'I miss my mom..  &quot;May angels lead you in&quot;'
p3280
ag3
aa(lp3281
S"Bah Windows won't connect to the router, and now I have a craving for some Grandia 2 but my PS2 version is at home "
p3282
ag3
aa(lp3283
S'@kzluvskim23 :Heyyy caseyyy!  hahahhaa! welcome to twitter!'
p3284
ag6
aa(lp3285
S'is in a chill mood. '
p3286
ag6
aa(lp3287
S" I'm going to miss a lot of F1; I'm going out with the family for my parent's anniversary. anyone willing to text me results? ahaha"
p3288
ag3
aa(lp3289
S'@NathanFillion you need shorts mate, very hot all over the country for this week, before getting cloudy towards the end of the week! '
p3290
ag6
aa(lp3291
S'@mileycyrus hey! congrats! love watching hannah montana! please check your multiply. '
p3292
ag6
aa(lp3293
S'@instantmashup im JEALOUS! no topmans here in hong kong '
p3294
ag3
aa(lp3295
S'@rells02 wow its not a good day so far  hope it gets better'
p3296
ag3
aa(lp3297
S'raleigh to see butters! &amp; ginas going away party '
p3298
ag3
aa(lp3299
S'still has that tingly in-love-with-Jesus feeling from over the weekend.  #fb'
p3300
ag6
aa(lp3301
S"My iTunes store is set on US and I can't figure out how to change it back to UK "
p3302
ag3
aa(lp3303
S"@LeeMac13 helloo i am feeling , i feel really dizzy  i wish i hadnt had it done now, i can't eat it hurts too much and its alrightxx"
p3304
ag3
aa(lp3305
S'@Elladan_E these days you can pretty much just divide HK$ by 10 to get pounds '
p3306
ag3
aa(lp3307
S'Not so excited about david going to NTC '
p3308
ag3
aa(lp3309
S'@hb_beth_21 http://chicago.craigslist.org/nwi/cas/1193798835.html Mor Cls funny for you '
p3310
ag6
aa(lp3311
S'Shit man =( i want to be 21... I cant go to carolina liar tomorrow its at a place with an open bar '
p3312
ag3
aa(lp3313
S'i just wanna know why murakami ryu has loads of books translated into fran\xef\xbf\xbdais mais not in english  @staceybeeeee aww thanks &lt;3'
p3314
ag3
aa(lp3315
S'@JeffTracey A pleasure '
p3316
ag6
aa(lp3317
S'@hirominami Thanks for introducing  his music to me   I think his music is pretty good \xe3\x80\x80\xe3??\xe3\x82\x8c\xe3?\xab\xe3?\x97\xe3?\xa6\xe3\x82\x82\xe3\x80?\xe6\x9c\xac\xe4\xba\xba\xe3?\x8b\xe3\x82\x89\xe7\x9b\xb4\xe6\x8e\xa5\xe9\x80\xa3\xe7\xb5\xa1\xe6?\xa5\xe3?\x9f\xe3?\xa3\xe3?\xa6\xef\xbc\x9f\xe3?\x99\xe3?\x94\xe3?\x84\xe3?\xad\xef\xbc?'
p3318
ag6
aa(lp3319
S'Eating  meat '
p3320
ag6
aa(lp3321
S'I wish i live in USA '
p3322
ag3
aa(lp3323
S'shall we start talking about blue now or after the game?  tongiht is gonna be a blue night'
p3324
ag6
aa(lp3325
S'Big_Rick: You will be missed  http://tinyurl.com/nmm8bs'
p3326
ag3
aa(lp3327
S"FINALLY...I got my lawnmower back last night! It's been in the shop for months. Now I spend the weekend mowing 3 acres of 18&quot; high grass "
p3328
ag3
aa(lp3329
S'tired counting my last credits.. '
p3330
ag3
aa(lp3331
S'@pangpond @boydchan \xe0\xb9\x80\xe0\xb8\xad\xe0\xb9\x88\xe0\xb8\xad \xe0\xb8\x9c\xe0\xb8\xa1\xe0\xb8\xa7\xe0\xb9\x88\xe0\xb8\xb2\xe0\xb8\x9e\xe0\xb8\xa7\xe0\xb8?\xe0\xb9\x80\xe0\xb8\xa3\xe0\xb8\xb2\xe0\xb8\xa1\xe0\xb8\xb2\xe0\xb9\x80\xe0\xb8\x9b\xe0\xb8\xa5\xe0\xb8\xb5\xe0\xb9\x88\xe0\xb8\xa2\xe0\xb8\x99\xe0\xb9\x80\xe0\xb8\xa3\xe0\xb8\xb7\xe0\xb9\x88\xe0\xb8\xad\xe0\xb8\x87\xe0\xb8\x84\xe0\xb8\xb8\xe0\xb8\xa2\xe0\xb8?\xe0\xb8\xb1\xe0\xb8\x99\xe0\xb8\x94\xe0\xb8\xb5\xe0\xb8?\xe0\xb8\xa7\xe0\xb9\x88\xe0\xb8\xb2\xe0\xb8\x99\xe0\xb8\xb0\xe0\xb8\x84\xe0\xb8\xa3\xe0\xb8\xb1\xe0\xb8\x9a '
p3332
ag6
aa(lp3333
S'[Wrong!] @jammyrabbins http://twitpic.com/6s4nw - Jimmy your the most adorable person ever!  http://tinyurl.com/q5x47z'
p3334
ag6
aa(lp3335
S'isPlayer Has Died! Sorry '
p3336
ag3
aa(lp3337
S"M? sent a message to me. She said today doesn't learn English. But i didn't know again . So i had a great time in supermarket "
p3338
ag6
aa(lp3339
S'Jon and kate make me saaadd. Everyone needs to stop tlkn about them '
p3340
ag3
aa(lp3341
S'Is sad for reasons unknown '
p3342
ag3
aa(lp3343
S'Sooo tired today  burning candle at both ends is fun... Up to a point! :-p early night and fix myself tonight. More productive tomorrow..'
p3344
ag3
aa(lp3345
S"here in my cousin's house "
p3346
ag6
aa(lp3347
S'Is at work  http://twitpic.com/5f3rg'
p3348
ag3
aa(lp3349
S"@shevot So HIS (drunk guy's)  #haveyouever is ...ever made a lasting impression on someone? "
p3350
ag6
aa(lp3351
S'Wow i am tired... But i will have money soon and then maybe me @indiecupcake &amp; @arizonaobvious Can go to the atl concert '
p3352
ag6
aa(lp3353
S'@djnice83 track selecting... selecting... It has selected yet? Where are you, b\xc3\xbcd\xc3\xb6s k\xc3\xb6l\xc3\xb6k? '
p3354
ag6
aa(lp3355
S"&quot;Only those who have learned the power of sincere &amp; selfless contribution experience life's deepest joy: true fulfillment.&quot; Tony Robbins "
p3356
ag6
aa(lp3357
S"Gym time  after two weeks didn't go to gym... Haha"
p3358
ag6
aa(lp3359
S'headache '
p3360
ag3
aa(lp3361
S'Jeezus my body hates me right now!! 21 hours awake and still counting! I had fun with my friends tonight. And I miss Cassieface already '
p3362
ag3
aa(lp3363
S"Things that just seem right - Sigur Ros performing for the Dalai Lama. I'm sure his holiness can't wait  http://bit.ly/LLPcv"
p3364
ag6
aa(lp3365
S"@GentleSinner Omgee =/ Go cook some radish  And cauliflower! It's amazinggg!"
p3366
ag6
aa(lp3367
S'I wish you hold my hand, when I was upset '
p3368
ag3
aa(lp3369
S'i experienced another earthquake, scary. cuz i m by myself. cheung went to vegas n left me home alone. '
p3370
ag3
aa(lp3371
S"@mandylulu Girl u have no idea what you're missin out on! Just remember to go slow until u build up a momentum... then go ALL OUT "
p3372
ag6
aa(lp3373
S'@deemeter hi andee! miss you already! '
p3374
ag6
aa(lp3375
S'is having one of those days '
p3376
ag3
aa(lp3377
S"@rolliev2 yeah. you should've texted me or something to remind me that you were coming back. i would've stayed longer, but i forgot you "
p3378
ag3
aa(lp3379
S'Dinner was lovely. Back to revising soon tho '
p3380
ag3
aa(lp3381
S'picked up painted whit3 for cbus '
p3382
ag6
aa(lp3383
S"@hobronto Your guns look like they're almost as thick as my thighs...  but HAWT"
p3384
ag3
aa(lp3385
S"@CloverCakesCxC lol no wonder ur dad put u in bball, u could have been in the WNBA  oh well it'z all about what u wanna do not others"
p3386
ag6
aa(lp3387
S'Waited desperately for my phone to ring at 3pm and no luck '
p3388
ag3
aa(lp3389
S"@JaymEsch Both.  What's Steam? :O"
p3390
ag6
aa(lp3391
S'@shiviee of course I have homework. lots of it. I am just multitasking '
p3392
ag6
aa(lp3393
S'@WandaSHorton nope, not just you '
p3394
ag6
aa(lp3395
S'Yeah!!! My friend on the phone!! Must talk with her. Night people! '
p3396
ag6
aa(lp3397
S'Dell to Discontinue the Mini 9! Noooo!  I kinda wanna pick one up now just to have it before its gone @gizmodo http://digg.com/u14Qao?t'
p3398
ag3
aa(lp3399
S"@caamix94 Yep, i am here... but you're not there "
p3400
ag3
aa(lp3401
S'@lunkwill42 fancy '
p3402
ag6
aa(lp3403
S'Last day blonde  going back to my roots ;)'
p3404
ag3
aa(lp3405
S'@Shash I feel ya. And our boy bathroom has been out of order for a long time, so we have seven people sharing one bathroom. '
p3406
ag3
aa(lp3407
S'@petewentz make me up a horoscope, please '
p3408
ag6
aa(lp3409
S'@v1kthor '
p3410
ag3
aa(lp3411
S"sat's in the morning  booo"
p3412
ag3
aa(lp3413
S"I don't feel good  waaaah!"
p3414
ag3
aa(lp3415
S'@westderby LOLZ hmmm I suppose if you wanna check someones fake thats the quickest was of exposing them '
p3416
ag6
aa(lp3417
S'Just watched the first episode of Conan seems pretty close to the same old conan '
p3418
ag6
aa(lp3419
S"@sexylicious25 ugh i knooo   @BrandyFans g'mornin!"
p3420
ag3
aa(lp3421
S"Meep! @melodicworld is coming and yaaayy  but also quite nervous! :S Argh and my hayfever is properly kicking in and I don't have drugs "
p3422
ag3
aa(lp3423
S"If you see my car behaving strange in traffic, don't worry. It's just @siginutz driving it "
p3424
ag6
aa(lp3425
S'made dinner 4 her n she didnt evn show '
p3426
ag3
aa(lp3427
S"@Edz62 Yep, I'm on the Isle of Long "
p3428
ag3
aa(lp3429
S'She climbed up onto the chair to play with her little animals at the table   http://twitpic.com/6gjpi'
p3430
ag6
aa(lp3431
S'@MGiraudOfficial aretha franklin - wonderful !  http://myloc.me/2a8h'
p3432
ag6
aa(lp3433
S"@IamSpectacular  no because i'm only 17 but i'll be 18 in november "
p3434
ag6
aa(lp3435
S'@Kimmy_Cheyenne I have to list the ppl i love in Spanish...Well I love JB  lmao'
p3436
ag6
aa(lp3437
S'i feel sick and i have a bug bite. not good  sreeeep time day off tomorrow!'
p3438
ag3
aa(lp3439
S'About to eat breakfast for lunch '
p3440
ag6
aa(lp3441
S'@MarinaPWilliams oh yeah, that would be so cool! im glad they did &quot;thinking of you&quot; insteak of &quot;bonkers&quot; haha. nice talking to you! '
p3442
ag6
aa(lp3443
S'@markng Sounds like a plan. Nice to see some positive thinking though rather than the usual &quot;media is dead&quot; tosh '
p3444
ag6
aa(lp3445
S'new to twitter world, thinking ob how to best use it '
p3446
ag6
aa(lp3447
S"@FionaK My family has gone through the flu - tried to avoid getting it, but its hit really bad. Don't think I could get Tamiflu "
p3448
ag3
aa(lp3449
S'tomorrow is going to be so fun... i miss you guys '
p3450
ag6
aa(lp3451
S'Loving my tan   http://twitpic.com/6bxvp'
p3452
ag6
aa(lp3453
S'when i look at u my mind gos on a trip '
p3454
ag3
aa(lp3455
S"The left side of my head could just fall off, i'd be alright with that. My glasses are missing and I could REALLY use them today. "
p3456
ag3
aa(lp3457
S"wondering how to cut out my heart so I can't feel the harshness of heartbreak. "
p3458
ag3
aa(lp3459
S'@ChichiTjandra where r u cici?    aaaaa come heeere'
p3460
ag3
aa(lp3461
S"Is quite tired. I wish summer was here already, and I didn't have finals still. "
p3462
ag3
aa(lp3463
S'@Amberleigh_Jack at EMI music with themz marketing/promo peepzzz '
p3464
ag6
aa(lp3465
S'FOLLOWERS TWEET ME..I DO RESPOND TO YOUR TWEETS LOVES!!! '
p3466
ag6
aa(lp3467
S'@DisIsPeter lmfao when I first startin I thought followin was the cool thin to do.. I guess not '
p3468
ag3
aa(lp3469
S'is upset! forgot to log off my Facebook n some jerk posted &quot;i love getting high&quot; i have work n professional acquaintances on facebook. '
p3470
ag3
aa(lp3471
S'@Netra Wah wah! Wat marketing hai!  but I would encourage everyone to watch the match now!'
p3472
ag6
aa(lp3473
S"Cassidee getting ready for Prom tonite. I think I've got an ear infection. Fevers off and on too.    "
p3474
ag3
aa(lp3475
S'What a day. I am a machine! Almost up to date with work from last week  now home, and to the gym :/'
p3476
ag6
aa(lp3477
S'@miszdaia good night to u too '
p3478
ag6
aa(lp3479
S"I wonder what's in store at E3. Should be an exciting week. Too bad I start college today, lol. Looks like I'll be reading about it "
p3480
ag6
aa(lp3481
S'My head is pounding never experienced pain like this in my head before!!  #squarespace'
p3482
ag3
aa(lp3483
S'@ksekher yup, a fraud mallu architect in chennai  i just moved to chennai in january, more like a re-move, cuz i did my undergrad here.'
p3484
ag6
aa(lp3485
S'want to let him go but it sooo difficult !! '
p3486
ag3
aa(lp3487
S'@ccmatthews icey ice school was actually good today  teehee'
p3488
ag6
aa(lp3489
S'Headin to class then..workin out my Cardiovascular Respiratory System '
p3490
ag6
aa(lp3491
S'about to take the fam to see  Up. '
p3492
ag6
aa(lp3493
S'misses lance already... '
p3494
ag3
aa(lp3495
S"@betsydet I've just noticed you're not following me anymore????!!! "
p3496
ag3
aa(lp3497
S'oh... this is tough '
p3498
ag3
aa(lp3499
S'I just got beat to a &quot;and knowing is half the battle&quot; '
p3500
ag3
aa(lp3501
S"didnt get to cousin's wedding.. after I got clothes &amp; shoes for it &amp; everything.. guess it's just as well, havent seen her in 10+ YEARS.. "
p3502
ag3
aa(lp3503
S'Just woke up. Or better, someome woke me up... Feeling tired '
p3504
ag3
aa(lp3505
S'@mileycyrus http://twitpic.com/6mi2s - omg mitchel looks reallllllly hot here  haha'
p3506
ag6
aa(lp3507
S"Really, eddie...was the 'Jason, I'm PREGNANT' poster necessary?! ...soo awkward "
p3508
ag3
aa(lp3509
S'&quot;Welcome home asshole&quot;  $1,000,000 to the person who understands that, good luck yall'
p3510
ag6
aa(lp3511
S'Crunchy K is on twitter! And aparently the Hard Rock has veggie burgers! Thats friggin awesome, I gotta get one when I go '
p3512
ag6
aa(lp3513
S'@liana_b_nana that wld b so lovely! but i dont have fixins for grilling  im gonna prep early stages for my dishes &amp; cook later in wk.'
p3514
ag3
aa(lp3515
S'need sleep but have 2 do this stupid ancient thingo  damn'
p3516
ag3
aa(lp3517
S"@sdmart I heard!  yeah I've been sick as a dog   and school is killing me right now."
p3518
ag3
aa(lp3519
S'iz packing the last things. Carpets and such.. For fuck sake! I never thought I had sooo manyyyy things! '
p3520
ag3
aa(lp3521
S'Headed to take a quick nap, then off to be productive! '
p3522
ag6
aa(lp3523
S'I miss my hunny* '
p3524
ag3
aa(lp3525
S'@CassieDavenport  Still that sucks though. Sorry about that. '
p3526
ag3
aa(lp3527
S'@blacksocialite i get that almost everyday  and the worst part for me is i get 7 hours of sleep.fml.'
p3528
ag3
aa(lp3529
S"Hahaha oh my goodness  late night txt's make the world go round  xo"
p3530
ag6
aa(lp3531
S'Totally just got kicked off the computer by my brother  which harry potter book should i start for fun tonight?'
p3532
ag3
aa(lp3533
S"@hollowlegs I'm usually the one sleeping at about 6am, so I don't really mind  How's the hair?"
p3534
ag6
aa(lp3535
S'i regret that i slept with my make up on now...panda eyes  lol, busy busy today good times xx'
p3536
ag3
aa(lp3537
S'Almost all the pink has washed out of my hair now '
p3538
ag3
aa(lp3539
S'Bottles of Jones soda and long car rides. '
p3540
ag6
aa(lp3541
S'@KarenMcDade Thanks for the comments. I will check your Behance profile as soon as posible  Have a great day!'
p3542
ag6
aa(lp3543
S'new pics of Gibbs posted to FB &amp; the group! '
p3544
ag6
aa(lp3545
S"@SEXYINDIA Why don't you post a link so the world can see India? What... you scared? "
p3546
ag6
aa(lp3547
S"Haay. School is here. I Don't Wanna Miss a Thing here! "
p3548
ag3
aa(lp3549
S"@EvergreenMusic  Do your thing!! That's exciting... "
p3550
ag6
aa(lp3551
S'Half past midnight and my first twitter entry! Saw local movie &quot;White Wedding&quot; tonight - I love being S-African! '
p3552
ag6
aa(lp3553
S"My mind is awake, but my body won't cooperate  You like my little rhyme? I'm a poet and I didn't know it!   http://myloc.me/2b5p"
p3554
ag3
aa(lp3555
S'i have a busy afternoon!! babysitting, plumbers and my friends all at the same time! oh well '
p3556
ag6
aa(lp3557
S'Going to the lake with Corey today. Sunscreen is a must. '
p3558
ag6
aa(lp3559
S"@Caspian_C oh half ur MSG didn't show  doesn't sound good tho."
p3560
ag3
aa(lp3561
S'nah i couldnt come up with anything  maybe next time'
p3562
ag3
aa(lp3563
S'has had a really busy day and is now doing the dishes '
p3564
ag6
aa(lp3565
S'Batista just beat Randy Orton! WTF! '
p3566
ag3
aa(lp3567
S"@KayKayInYoFace just told me that I'm a tweetaholic  but I think she's right!"
p3568
ag3
aa(lp3569
S"@AshLuvsOhSnap I'm gonna need the visual please.  It's been a while...  "
p3570
ag6
aa(lp3571
S'http://twitpic.com/6itni - Mee and bj asleep yesterdayy. My daddyy thought we looked cute  i look like i am strangling himm :|'
p3572
ag6
aa(lp3573
S"@Xbox360Fanatics cool, i'll keep an eye out as well  exciting stuff "
p3574
ag6
aa(lp3575
S'@vindee You should! I have nothing but good things to say about @doriegreenspan cookbook '
p3576
ag6
aa(lp3577
S'Just hit 30 finally  right going to stop and browse the net for a bit before i head off to work'
p3578
ag6
aa(lp3579
S'had a good day '
p3580
ag6
aa(lp3581
S'Done Jack in the Green today, it was good, a killer walking up the West Hill though! Listening to Will and the People '
p3582
ag6
aa(lp3583
S"@ProperTalks Aww the link isn't working  oh wel"
p3584
ag3
aa(lp3585
S'@theOlsens Heyy Girls, Its So Cool How Your Twins I Am Two xD My Twin Sister Is 20 Minutes Older Then Me  Hows Your Morning?'
p3586
ag3
aa(lp3587
S"in bed being taken care of by nurse cat. she's wonderful! watching the sunshine outside wistfully "
p3588
ag3
aa(lp3589
S'Another day, another dolly shot. Get to play with some fun filmmaking toys today. Sure beats working for a living. '
p3590
ag6
aa(lp3591
S'oh my goshhh '
p3592
ag3
aa(lp3593
S"waiting for sissy to come home and make me dinner. I don't want to go back to wollongong tomorrow. "
p3594
ag3
aa(lp3595
S'Im so sick of working every weekend  and not allowed any holiday time off'
p3596
ag3
aa(lp3597
S'Activity made on: Not for me  http://tinyurl.com/dbkz9m'
p3598
ag3
aa(lp3599
S'@cystsfts and an anemic offense '
p3600
ag6
aa(lp3601
S'@jcOMFG youre deffinantly not the only one! '
p3602
ag6
aa(lp3603
S"Night At The Museum - totally adorable. I can't believe I haven't seen that movie before now. Looking forward to next one "
p3604
ag6
aa(lp3605
S"@sidlefan8 Oh, that's awesome!  Thanks. "
p3606
ag6
aa(lp3607
S'@QUiN_NB would u really like me 2 change it... '
p3608
ag3
aa(lp3609
S'today was the last day of school so i really miss my Jaron!!!! '
p3610
ag3
aa(lp3611
S'@Joseph_A_Jonas hey joe, how was sydney, australia? you should come to melbourne you will like it so much better down here  xoxo laura'
p3612
ag6
aa(lp3613
S"@milkbarnick  It was great to see you too! I really miss hanging out, hopefully i'll see you again soon "
p3614
ag6
aa(lp3615
S'Watching Mythbusters  Oh, how i love Jamie and Adam! &lt;3'
p3616
ag6
aa(lp3617
S"I'm getting in the shower and going to to show tonight...gonna have a BOOT-STOMPIN' HOEDOWN!! yeehaw! I still miss certain people tho "
p3618
ag3
aa(lp3619
S'Workk 6:30-1:30 '
p3620
ag3
aa(lp3621
S'is doing boring accounts stuff '
p3622
ag3
aa(lp3623
S'@spazzysam thanks. Feel like my biggest enemy is myself. I am totally blocking my words  ok. Hitting the hay. First thing after PK 2morrow'
p3624
ag3
aa(lp3625
S'immm soooo bored and missing my bby and im sooo cold  why cant he come here and give me cuddles '
p3626
ag3
aa(lp3627
S'not til june 12th '
p3628
ag3
aa(lp3629
S"@scrappinmichele Its super Mild.. The Ranch base helps.. It's worth a try for sure  #salsaranch"
p3630
ag6
aa(lp3631
S'There has been to much seismic activity in California for my comfort recently  !!!'
p3632
ag3
aa(lp3633
S'@carolinajesslyn no honey definetely jauh dari itu ngak lah hh~ it was my old doll whom now is his &quot;friend&quot; kasian dia pengen punya pacar '
p3634
ag3
aa(lp3635
S"@roya_57 I've done that, I moved it to the new profile, but its not cozy there  maybe I'll start a real blog!"
p3636
ag3
aa(lp3637
S'@hkFoodGeek  r u feeling inspired to do food polling now? b&amp;w pepper crab sounds delicious '
p3638
ag6
aa(lp3639
S"talked my ma into sending me to louisiana for my birthday!!!!  Excited doesn't begin to explain it!!!"
p3640
ag6
aa(lp3641
S'UGH! RAIN! I just had to go and save the washing from the line! '
p3642
ag3
aa(lp3643
S'@CATCHmetal COOL! Nice new look '
p3644
ag6
aa(lp3645
S"@killingbacteria i've got one of them "
p3646
ag3
aa(lp3647
S'Alysha in, she stayed over night '
p3648
ag6
aa(lp3649
S'@aparajuli yaaaaayyy... you got a crumpler bag  can you take a pic and post?'
p3650
ag6
aa(lp3651
S"people judging other people are heck of a sh*t!  they aren't perfect anyways!!!"
p3652
ag3
aa(lp3653
S'Watering the plant day '
p3654
ag6
aa(lp3655
S'This Stars in Their Eyes song reminds me of the time I rented a room in Benhil '
p3656
ag6
aa(lp3657
S'@AngelsMind thanks '
p3658
ag6
aa(lp3659
S'@donkeyts  *Hand up in the air*  '
p3660
ag6
aa(lp3661
S'@chamcircuit so how was Up? '
p3662
ag6
aa(lp3663
S'@FlashdaJagwar  u got girls across da country...'
p3664
ag6
aa(lp3665
S'@highforties I love how you manage to find this stuff '
p3666
ag6
aa(lp3667
S"This whole thing just makes me mad bc I can't play any of this "
p3668
ag3
aa(lp3669
S'listening to enchanted soundtrack '
p3670
ag6
aa(lp3671
S'i want to go out, '
p3672
ag3
aa(lp3673
S"@MyCheMicALmuse BECAUSE HE'S A TEASE LOL. "
p3674
ag6
aa(lp3675
S'Stupid character limits! '
p3676
ag3
aa(lp3677
S'Hello all new followers '
p3678
ag6
aa(lp3679
S'@dannywood oh Danny that is awesome...my eyes welled up when i read this...i wish she was here for you too '
p3680
ag3
aa(lp3681
S'@Tyrone17 haha.yeah.and that would be awesome to see her appear on there. '
p3682
ag6
aa(lp3683
S'Babysitting later tonite.  Makin Money '
p3684
ag6
aa(lp3685
S'this is for never ever ever getting back at you like i wanted to, ohh this is for everyone who breathes.  &lt;3 school boy humor (;'
p3686
ag6
aa(lp3687
S'just hanging out at my parents house watching tv with kenny. poor guy is all scraped up and broken '
p3688
ag3
aa(lp3689
S'@Stefachino tell her I said, &quot;hi&quot;   lol'
p3690
ag6
aa(lp3691
S'Coloring my scene hair! It looks amazingg! '
p3692
ag6
aa(lp3693
S"just ate Arby's my mom brought me she's so thoughtful "
p3694
ag6
aa(lp3695
S'@adamtal yes  how can I help?'
p3696
ag6
aa(lp3697
S'@Thorney88 i have tried Bulmers Pear Cider - Yuk and it made me bad for a few days!! '
p3698
ag3
aa(lp3699
S"@TruthTweet Heeey! @MrPattinson is still alive!! do something... poor girls, they're still tweeting to that faker "
p3700
ag3
aa(lp3701
S'wishing i was at the brad paisley concert and that mike was home '
p3702
ag3
aa(lp3703
S'Take a bow, Roger! Long time coming... but how sweet it is! 6-1, 7-6 (7-1), 6-4 -- dominating performance. Onto winning the W now. '
p3704
ag6
aa(lp3705
S'@Stitchlinks -- DId you buy the knitting board from Les of Silkwood?  I was going to start teaching looming classes but moved to the US :/'
p3706
ag6
aa(lp3707
S'@tdobbo its because of the interesting use of mustard applied to a sleeping drunk, who just so happened to leave his shoes on '
p3708
ag6
aa(lp3709
S'A whole bunch of things in my life seem so irrelavant now...life is important. Although I lost my favorite aldo shoes in the wreck. '
p3710
ag3
aa(lp3711
S'@bennylicious Hubby thought you were Prince John in Robin Hood last night, told him you were too busy chasing dinosaurs... Lol! '
p3712
ag6
aa(lp3713
S'@jackyan maybeee they have been eating more treeeee '
p3714
ag6
aa(lp3715
S'  i miss my brother.. i worry about him.'
p3716
ag3
aa(lp3717
S'i need a hug '
p3718
ag3
aa(lp3719
S'@wheresanne as always i have to decide '
p3720
ag3
aa(lp3721
S'Gonna be another sleepless nite for me if @girisrini does not answer his phone. Am not comfortable at all......!!!!   @girisrini pls ans'
p3722
ag3
aa(lp3723
S'@Nurul54  @GodChaserHank    With warm gratitude!  Thank you for your kind  friendship, fellow Twitterers! '
p3724
ag6
aa(lp3725
S'shopping with @curlysue69x tonight, cant wait!  Lucky bastard @jayrunway has already finished work  im stuck here forever!'
p3726
ag3
aa(lp3727
S'@crse HAH!! I was tweeting that instead of doing something i said i would do '
p3728
ag6
aa(lp3729
S"@joycerica I know. Fudges, I want them to come here too but that's too much to ask. I wanna meet The Rock and Stone Cold. Period. "
p3730
ag3
aa(lp3731
S"@paris_b I couldn't stand the smell, and it didn't look that nice on me.  Hope it's fine for your tho!"
p3732
ag3
aa(lp3733
S"want a new mobile phone! but my parents say I don't need a new Mobil phone ! So bad !!   "
p3734
ag3
aa(lp3735
S'On the skyway. '
p3736
ag3
aa(lp3737
S'at work on the lunch break...5 hours still 2 go before I get 2 play in the sun '
p3738
ag3
aa(lp3739
S'@TheRealJordin fingers crossed that it comes back. '
p3740
ag6
aa(lp3741
S'@awesomefellow hehe '
p3742
ag6
aa(lp3743
S'Missed TCAF due to sickness and soccer....  #tcaf'
p3744
ag3
aa(lp3745
S'@nickdunn Thanks, Nick. Means a lot coming from a designer of your caliber  #symphonycms'
p3746
ag6
aa(lp3747
S'@stevenmitchellw nuuuuu! i wanted to see you in melbourne! '
p3748
ag3
aa(lp3749
S'first twitter comment..hmmmn? ! TWEET TWEET '
p3750
ag6
aa(lp3751
S"@alexandraduggan Too bad we didn't shoot some hoops while you were here.  That would have been fun.    You'd have schooled me."
p3752
ag6
aa(lp3753
S'yeah twittering on the phone can get to to mispell things @javiboi @makeupbymo...lol @makeupbymo what plans are u talking about? '
p3754
ag3
aa(lp3755
S'weather is crap  but fuck it, cant wait for tonight!'
p3756
ag3
aa(lp3757
S'@brilliantenigma - Just keep on tacking on those internet accounts... LOL '
p3758
ag6
aa(lp3759
S'@jakeashley already done haha '
p3760
ag6
aa(lp3761
S"I never fight with my close friends. So far i've duked it out with two of my closest this week. Sad "
p3762
ag3
aa(lp3763
S"@Lilayy hi.wanna see 17 again again with me ;) i'll fly to cali and see it with you "
p3764
ag6
aa(lp3765
S'@TrapCast_Jenn - Thanks - I think I got it! '
p3766
ag6
aa(lp3767
S'@aditimohan14 Enlighting is here   ha ha ha.. just joking.'
p3768
ag6
aa(lp3769
S'so alone in the world... '
p3770
ag3
aa(lp3771
S"I pickd a shitty drink  &quot;you're sheltered sophia&quot; but island root beer sounded good  but darkrumabita craft root beer and housemade"
p3772
ag3
aa(lp3773
S"@ woman_within I LOVE the catalog and my new dress - I NEED more work clothes but can't afford to shop anymore for now "
p3774
ag3
aa(lp3775
S"just downloaded @quickoffice update. glad for the search feature! now I've got to 'convert' my OO files to DOC format so I can edit. "
p3776
ag6
aa(lp3777
S'not my day today i guess. i just hope today gets a little better  '
p3778
ag3
aa(lp3779
S'@MCRmuffin: thanks I always need to talk '
p3780
ag3
aa(lp3781
S'@roxiijonas i know so confusing  no i dont think so, well actually i dont know :S i keep getting teleological &amp; design mixed up :S this'
p3782
ag3
aa(lp3783
S'@imhoturenot ohh he left already? i didnt say goodbye...  what are u up? im leaving home now.. leme know if u around centre xoxo'
p3784
ag3
aa(lp3785
S'shaving.... '
p3786
ag6
aa(lp3787
S'Just got back from Chicago, fun weekend, lottts of walking, saw the sears tower, will post pics soon!! I love that city '
p3788
ag6
aa(lp3789
S"Watching MasterChef... It's just not the same without Kate... "
p3790
ag3
aa(lp3791
S'@TerrenceMyles thanks  posted onne similiar to that on myspace just now'
p3792
ag6
aa(lp3793
S'@mcarvin Of course. Nice one '
p3794
ag6
aa(lp3795
S"@trvsbrkr that is so sweet. I'm sure he appreciates it  your kids are so freaking adorable and seem so fun and sweet."
p3796
ag6
aa(lp3797
S"I didn't ask to star in it. I'm EP'ing it. Doesn't seem like I'm directing anything. It's all part of the show. Film. Saga. EPIC "
p3798
ag3
aa(lp3799
S'I am trying my best to be on Twitter more often  FB is getting boring'
p3800
ag6
aa(lp3801
S"@do0dlebugdebz debz! u're gona study icpu @ taylor's?  im there im there..lol"
p3802
ag6
aa(lp3803
S"homework's killing me. if it weren't for grades and exemptions on exams, i wouldn't do this. "
p3804
ag3
aa(lp3805
S'just had my breakfast  my hair looks like i have been dragged through a hedge. LOAAAAADS to do today like my french oral. i hate exams !'
p3806
ag6
aa(lp3807
S'@jayLOVELY And i told her about u afta we passed u so no sneakyness here...i told u i dont cheat or creep...im faithful '
p3808
ag6
aa(lp3809
S" why can't people understand when you want to keep a wedding small that you can't invite everyone you know?"
p3810
ag3
aa(lp3811
S'Boredddd at work  text meee'
p3812
ag3
aa(lp3813
S'@mbaizer Why, thank you '
p3814
ag6
aa(lp3815
S"Exhausted! Bridal shower = SUCCESS! I'm getting used to the country again "
p3816
ag6
aa(lp3817
S"now i have to wait for the next album of mcfly, which will probably take ages!!  will be mind-blowing though i'm sure...can't wait!!"
p3818
ag3
aa(lp3819
S'kinda nice i was talked about here and i didnt even do anything today '
p3820
ag6
aa(lp3821
S'Fuck the Green button. '
p3822
ag3
aa(lp3823
S"@DAEONE haha wtf is that! You don't want me to leave "
p3824
ag3
aa(lp3825
S"@DebbieFletcher i'm trying to vote for tom, but it isn't working here! "
p3826
ag3
aa(lp3827
S'Nomming a bacon roll with a cup of tea at the bike breakfast  nice and sunny too'
p3828
ag6
aa(lp3829
S'@Anddh do you feel better fishy??? '
p3830
ag3
aa(lp3831
S'Gorgeous Spring rain today.  Everything is so green.    Engagement session tomorrow.   Yeah!!'
p3832
ag6
aa(lp3833
S'i broke my ipod  for real this time..'
p3834
ag3
aa(lp3835
S'http://twitpic.com/5osik - Drinks with the team, last time before we leave '
p3836
ag3
aa(lp3837
S'Yayness! Finished my painting of a man getting eaten by a komodo dragon! Need to scan and show now '
p3838
ag6
aa(lp3839
S'Late night gaming. Time to hit the sack @ev whiskom.com? Sounds interesting need somebody to run it? IT guy looking for a new job '
p3840
ag6
aa(lp3841
S'It is possible to frown while eating a Frosty '
p3842
ag3
aa(lp3843
S'Ooh, @tdavidson is digging up some old posts of mine ... thanks for reviving that  !'
p3844
ag6
aa(lp3845
S'Bored, please talk to me '
p3846
ag6
aa(lp3847
S'@mulder8scully5 Castle Howard Temple of the Four Winds.. former name was &quot;Temple of Diana&quot;. That pic was worth 3 pts '
p3848
ag3
aa(lp3849
S'just had the most relaxing bath for an hour mmmmmm now gettin ready 2 hit the town!  xjoeyx'
p3850
ag6
aa(lp3851
S"Long weekends means custom orders!! Let me know what you'd like!! "
p3852
ag6
aa(lp3853
S"@mjtls No-not yet, but I will keep you posted. There is more to come. We'll see what happens-I can only say so much right now. "
p3854
ag6
aa(lp3855
S'@kassielassie I think 7 and on CBS '
p3856
ag6
aa(lp3857
S'Just got out of work '
p3858
ag3
aa(lp3859
S"http://twitpic.com/7jn90 - @DonnieWahlberg 2 DAYS till we meet again- yeah I'd say we got the same SWAGGER- took that pic of u in Niagara "
p3860
ag6
aa(lp3861
S"UGH I HATE MR RESCH  Why must an AP Bio final be monstrously difficult AFTER the AP? Last year's average was a D; expect it to decline."
p3862
ag3
aa(lp3863
S'Vlogging live for a bit log onto my site to chat '
p3864
ag6
aa(lp3865
S'@mom4lifecom your pics are gorgeous! Wishing you a beautiful delivery tomorrow '
p3866
ag6
aa(lp3867
S'is going to work again  !!! xxx'
p3868
ag3
aa(lp3869
S"rehearsals all day!! i'm exhausted.. going to see Carmeen to the funeral of her grandpa..  baby i love yoou! U.u"
p3870
ag3
aa(lp3871
S'@sstipo no I just left for the lake like an hour ago '
p3872
ag3
aa(lp3873
S"One week until Race for the Cure! Please donate if you're able http://bit.ly/UFR1U and wish me luck on my 5 mile training run tomorrow "
p3874
ag3
aa(lp3875
S'@Arod4FullVerse Trillz '
p3876
ag6
aa(lp3877
S'@AdrianZain They desire an internal homogeneity because there is comfort in the familiar? '
p3878
ag6
aa(lp3879
S"I am trying to find people that i actually know..... It's really hard "
p3880
ag3
aa(lp3881
S"Wordpress is being a bitch-ass bitch! Otherwise there'd be a new Silence remix up "
p3882
ag3
aa(lp3883
S'Got a bad back '
p3884
ag3
aa(lp3885
S'Having bro-lights with g.Soll  CHEERS!  http://twitpic.com/4wjrs'
p3886
ag6
aa(lp3887
S'@jessdontstop  Ya.... I did that yesterday    There are some really annoying people out there'
p3888
ag6
aa(lp3889
S"@BrazillofBLAK Hey hey that was an affectionate &quot;Punks&quot; I'm like you're older sis now "
p3890
ag6
aa(lp3891
S'For the record, I was not twittering in the midst of passionate throes. I was clearly quoting alternate lyrics to a song '
p3892
ag6
aa(lp3893
S'@simyiwen okieeeee!!, i dont want t go airport BS only  hahahahahaha!!!'
p3894
ag3
aa(lp3895
S'oic my bad '
p3896
ag3
aa(lp3897
S"@teresajusino I'm heading down to NYC this weekend!  wanted to send e-mail, but can't find your contact info... DM me? or e-mail me?"
p3898
ag6
aa(lp3899
S'@PandaMayhem cool!  Would luv that '
p3900
ag6
aa(lp3901
S"@sueessh HI SUE MAY! Your darling Lyana here  I followed you back! Weee! Do you play Sims? The third one is out! I'm so excited! K BYE! (:"
p3902
ag6
aa(lp3903
S'beginning to wonder if my @ messages are getting seen...  i should probably aim for non celebrities, though...  haha '
p3904
ag6
aa(lp3905
S'@jaydems awww, i remember when my dog got desexed i was too scared to touch her '
p3906
ag3
aa(lp3907
S'@Hezzington aww  i hate those days! i like wake up at like 9 everyday now ... stupid work   i need my beauty sleep!'
p3908
ag3
aa(lp3909
S'Dinner with Gma and the big sis by the water!  yummmmmm'
p3910
ag6
aa(lp3911
S'Dave pearce was wicked last nite, cant go out for a while now tho... No money '
p3912
ag3
aa(lp3913
S"@tommcfly I don't think you lost fans, we all know this kind of this happen and  know it's not your fault, true fans will understand this "
p3914
ag6
aa(lp3915
S"haven 't tweeted all day ; i been in the bed sick "
p3916
ag3
aa(lp3917
S"nite all well really I'm not going to bed, but I don't have my own compt. &amp; I'm leaving skool lib I will say parting is such sweet sorrow "
p3918
ag3
aa(lp3919
S'@asot400 I strongly reccomend to listen audio through audio-only stream then from a video '
p3920
ag6
aa(lp3921
S'im really scared off the thunder its right above my house wish i had a boy to hold me '
p3922
ag3
aa(lp3923
S'@mamapigeon I dunno.... As I was telling a friend of mine, I was shocked to discover that some Sobe lifewater is NOT vegetarian. '
p3924
ag3
aa(lp3925
S'My boys are wheels up. '
p3926
ag3
aa(lp3927
S"I broked the television at the Turmans.  I didn't really break it...we just can't get it back on cable. Oops. No Nick at Nite for me."
p3928
ag3
aa(lp3929
S'@BananasMel  try to rest as much as you can      sweet/fab/great dreams.'
p3930
ag6
aa(lp3931
S'its so cold outside.... not looking forward to winter '
p3932
ag3
aa(lp3933
S'@annegomez16 why is everyone mad at LA?? hahahaha '
p3934
ag6
aa(lp3935
S'@MattDeanUK  hi there, hope you will have pleasant day '
p3936
ag6
aa(lp3937
S'@hannahpoulton oh crap! I hate those  have you tried syndol?'
p3938
ag3
aa(lp3939
S'@mspecht i hav to cull  v v few ppl @ me 4x anyway. they tend to learn quickly! ;)'
p3940
ag6
aa(lp3941
S"@JayaPremHangout Hey hun, still awake? I'm having a nice and quiet day today "
p3942
ag6
aa(lp3943
S'is wearing leggings, dry socks and slippers '
p3944
ag6
aa(lp3945
S'@AdeleComputer nice 1 ,bribery is definitely the way to go '
p3946
ag6
aa(lp3947
S"@jonathan_cruz hwahahah joke lang. don't frown "
p3948
ag3
aa(lp3949
S'Tomoro have to list all the participants for the LC -09 Bangalore  Have a lot of work...'
p3950
ag3
aa(lp3951
S"It's night and it's dark and cold waiting to pick my sisters up.. I'm scared "
p3952
ag3
aa(lp3953
S'@kusasi I had it before, but not sure it is on this phone  I will check with you before then, we will go down for the weekend I think!'
p3954
ag3
aa(lp3955
S'UP is about to start '
p3956
ag6
aa(lp3957
S'finally finishing this business letter. any1 interested in helpin a school email me @ sk8brdjade@tmail.com or dm me ur aim name '
p3958
ag6
aa(lp3959
S'@BT I rescued a Pit Bull 9 years ago &amp; she is the Love of my life  Her name is Zulu Nation!'
p3960
ag6
aa(lp3961
S'It seriously needs to stop raining.  Where is summer at?  '
p3962
ag3
aa(lp3963
S'survived my 1st day back at work.i hav loads of planning 2 do that i should have done over half term,its not fair,i wanna sit in the sun '
p3964
ag3
aa(lp3965
S"@aceblack Noooo don't leave me "
p3966
ag3
aa(lp3967
S'i missed wearing jeans '
p3968
ag6
aa(lp3969
S'I am bored. '
p3970
ag3
aa(lp3971
S'my gums are throbbing '
p3972
ag3
aa(lp3973
S'I need new music to listen to  .'
p3974
ag3
aa(lp3975
S"At my daughters' cheerleading showcase ... &lt;groan&gt; But they are cute.  #fb"
p3976
ag6
aa(lp3977
S'just had lime cous-cous with @SarahMoran and @Ehon at my place '
p3978
ag6
aa(lp3979
S'Yeah....our big class project @ school finished 2day  #projectaward'
p3980
ag6
aa(lp3981
S'@iheartrachael hay  im probs not coming im throwing up '
p3982
ag3
aa(lp3983
S'@LadyDivina I REALLY, REALLY, REALLY wish I was there. '
p3984
ag3
aa(lp3985
S'@Henaxxru I wanna meet you too!!! '
p3986
ag6
aa(lp3987
S'http://twitpic.com/7gr3s Taking him to see matt '
p3988
ag6
aa(lp3989
S'@justsoraira how did ur test go? i hope u made a 100 like u did on ur quizzes '
p3990
ag6
aa(lp3991
S"@ work laughing my ass off ! There's a 55 year old woman dancing her ass off to DROP and give me 50! Bustin it WIDE OPEN! Lmao "
p3992
ag6
aa(lp3993
S'@Gbd951 i wish me and paige could come! I hope you guys have a fun time today! '
p3994
ag6
aa(lp3995
S'Home! Missed all of Neighbours '
p3996
ag3
aa(lp3997
S'outside in the yard starting a veggie garden '
p3998
ag6
aa(lp3999
S'@josianna It is still made and it still tastes horrible '
p4000
ag3
aa.