(lp0
(lp1
S'I wish more people would follow me '
p2
aS'negative'
p3
aa(lp4
S'@leahcurtis  thanks. its so bloody hot here though. Still a little jet lagged. Heading out for dinner in Bandra.'
p5
aS'positive'
p6
aa(lp7
S'http://twitpic.com/7j8vf - Killing time at light installation '
p8
ag6
aa(lp9
S'HOORAY!!! Its Friday EVE!!! or Thirsty Thursday!!!  or... Well I really got no other word/phrase for Thursday...  O well...'
p10
ag3
aa(lp11
S'im in austin with nothing to do until like 11. cant call or text anyone cause my phone is broke.... '
p12
ag3
aa(lp13
S'ended up having a wonderful day '
p14
ag6
aa(lp15
S'@anythingpotato crappy love thingy... sumasabay pa sa ulan! di ba lalung nakaka-depress?  will make kwento tomorrow! i need a power hug!!'
p16
ag3
aa(lp17
S'on the around the world in a day album cover - he has strawberry-blonde hair? LMAOOOOOOOOOOOOO  ~XO*OX~  aaoowwaa!!'
p18
ag6
aa(lp19
S'@tastethenate @adorkablex erm, magic. '
p20
ag6
aa(lp21
S'So fucking bored '
p22
ag3
aa(lp23
S'needs to find money to actually go out tomorrowwww. ughhh. i need drinks &amp; fun!! i hate being broke '
p24
ag3
aa(lp25
S"@davidbeking k - you tell 10 friends and I'll tell 10 friends and by Thursday (at the latest) you should pretty much OWN the internet "
p26
ag6
aa(lp27
S"Getting ready for work this afternoon  I hope  that there's a bus on a Sunday to come home on ....hmmm"
p28
ag3
aa(lp29
S"Good Morning everyone!!! Let's have a wonderful Apple day LOL "
p30
ag6
aa(lp31
S"Ah spent the night at Chris's with Matthew and woke up waayy to early "
p32
ag3
aa(lp33
S'@Masterface Is that tomorrow? OMG have fun! And give Ianto a hug from me. '
p34
ag6
aa(lp35
S'Matthh Assesss Todayyy '
p36
ag3
aa(lp37
S'back from the hairdressers  staying in until tonite, BBQ for a birthday  '
p38
ag6
aa(lp39
S'@freeiphoneapps  iPod touch 1G  want to give me a free 2G?'
p40
ag3
aa(lp41
S"@thetricktolife I'm listening! Give me a shout out lol "
p42
ag6
aa(lp43
S'@ashleytisdale  So happy for you Ashley! Congratulations on the award!'
p44
ag6
aa(lp45
S'at sunny panama city beach..*sigh* how niiice '
p46
ag6
aa(lp47
S'Dam just got buzzed by another HUGE fly! This time it landed on my head...not impressed '
p48
ag3
aa(lp49
S"@MajorDodson Y thank U, I'm glad you feel that way "
p50
ag6
aa(lp51
S'KITCH; DOMO KUN!!! chase; i dont have any homeowrk? '
p52
ag3
aa(lp53
S"is praying for the people in Franklin County, Virginia...there's a tornado warning   Moving east to Pittsylvania County."
p54
ag3
aa(lp55
S'@vampirefreak101 Katie! I couldnt read any reply of you!  I hope you had a good trip! Summer is here!!'
p56
ag3
aa(lp57
S'@OliviaWilder Sorry I laugh, but was very funny   @ModelSupplies got me in trouble lol'
p58
ag6
aa(lp59
S"@jc_a You know what they say...it takes a 4.0 product before it's truly &quot;mature&quot; and perfected "
p60
ag6
aa(lp61
S'@kimla310 Yeah I miss her  But she will visit often and I always want an excuse to visit LV lol'
p62
ag3
aa(lp63
S'wants and needs some sleep, but instead sitting in pain in type class!! '
p64
ag3
aa(lp65
S'I just talked to my mom ad my dogs are howling in the background. I miss them SO much '
p66
ag3
aa(lp67
S"great quote- 'every hot blooded woman needs an object to crave' - "
p68
ag6
aa(lp69
S'i got stung by a bee. '
p70
ag3
aa(lp71
S'@Wossy  Morning Rossy, talking of dogs.....any chance you can do a shout out for @BellaGthePug  she only has a few followers    '
p72
ag3
aa(lp73
S'http://twitpic.com/7ia4h - LOOK! Something bite me under my ear last night! It was redder if thats a word, and all itchy '
p74
ag3
aa(lp75
S"saw someone using my aiba non-no's translation in her LJ with proper credits  nice!"
p76
ag6
aa(lp77
S"@jonessamonique I've been well. Grinding. Hope all is good with u! I want to hear ur music "
p78
ag6
aa(lp79
S'@OhCost yeah, this twitter cell phone app sucks! Se me hace mas dificil y no pd nii ver a mis followers ni reply '
p80
ag3
aa(lp81
S'@Drattigan I can finish it on my own too '
p82
ag3
aa(lp83
S"@RaeveenBrawla I think Nicholas' teeth are the only thing that gives us a heads-up that he's human because everything else is perfect. "
p84
ag6
aa(lp85
S"@grandjoke Ice cream sounds good! But vegan-ized!  I vote that adventure for tomorrow. You didn't sound mean, I just talk about my"
p86
ag6
aa(lp87
S'@dawngeary ouch! '
p88
ag3
aa(lp89
S'@ymaethetrinket citin hotel is just opposite pala puduraya bus station (so ok punta na tayo malacca talaga, hehe). '
p90
ag6
aa(lp91
S'Just woke up. Felt so good too.  i needed it. Whitnee wore me out last night!'
p92
ag6
aa(lp93
S"Making labels for Mae and Justine's books and notebooks. "
p94
ag6
aa(lp95
S'@acadnurul daaappppppp nyee. You made me want to fly home right now knurl~~  Oh come July quickk.'
p96
ag3
aa(lp97
S'All is well '
p98
ag6
aa(lp99
S'Missing Will '
p100
ag3
aa(lp101
S'@gemmak500 argh. The thunder woke me too. I love storms, but not at 6:30 when I went to bed at 2:00! Just woke up again now '
p102
ag3
aa(lp103
S"@Recordman7 you mean it's not 2pm EST?  it's already 3am here!!! arghhh"
p104
ag3
aa(lp105
S'At beerfest to watch vertical horizon  hope it is great!'
p106
ag6
aa(lp107
S'I think the yeast hate me. '
p108
ag3
aa(lp109
S"@beezan I've to admit..... I did a tiny bit of shopping. Whilst of course spending most of my time doing cultural things "
p110
ag6
aa(lp111
S'OMG its tooo quiet...someone say something... '
p112
ag3
aa(lp113
S'the new myspace is officially launched  myspace.com/cyanidedrunk'
p114
ag6
aa(lp115
S'Is playing tha wii '
p116
ag6
aa(lp117
S'Truth in advertising.  Hmm, might work  http://bit.ly/absMN #humor'
p118
ag6
aa(lp119
S"Don't want to go to work today. "
p120
ag3
aa(lp121
S'Just spent the evening at the shooting gallery. SO AWESOME  http://yfrog.com/earbkj'
p122
ag6
aa(lp123
S'ugh 2 hardiest exams tomorrow  hope i get atleast a B in both of them!'
p124
ag3
aa(lp125
S'@lulyz Yup I agree '
p126
ag3
aa(lp127
S'I miss accounting '
p128
ag3
aa(lp129
S'@figh Ah decent excuse... '
p130
ag6
aa(lp131
S'@EmilyYoung09 hey... morning... u gt any olans 4 2day? xx '
p132
ag6
aa(lp133
S"by the way.. it's johnny depp's birthday!!! happy birthday to him!! "
p134
ag6
aa(lp135
S"@migs_karlo yeah, but it's so hot - we're going to the beach later on "
p136
ag6
aa(lp137
S"@mvidaurri ok but if you need me I'm here  oie sorry q I didn't go with you I wanted pero my mom wasn't in the best of moods! i love u ok?"
p138
ag6
aa(lp139
S'@johncmayer and now you can sing free falling  which is better than the original! I love it!'
p140
ag6
aa(lp141
S'@marks thank you! you made me in a better mood for sure '
p142
ag6
aa(lp143
S'&quot;Those who provoke [North Korea] once will not be able to escape its unimaginable and merciless punishment.&quot; Oh dear, not lookin good '
p144
ag3
aa(lp145
S'It`s awesome following people because you get to see all the tweets on one page !   '
p146
ag6
aa(lp147
S"aw! I'm gonna miss my old username... nick jonas, shontelle layne, and sean kingston replied to my OLD USERNAME!  I'm gonna start all over"
p148
ag3
aa(lp149
S'@ohhaikelly sounds good to me '
p150
ag6
aa(lp151
S'Nothing to do today   any idea?'
p152
ag3
aa(lp153
S"um... so I don't think my text msgs have a &quot;subject line&quot; ... I fail "
p154
ag3
aa(lp155
S"@bnththespinlite i would love to but i'm busy tonight "
p156
ag3
aa(lp157
S"Hello twitterworld! I'm sooo sad! Failed my biology test! "
p158
ag3
aa(lp159
S'I think I need to invent a minus scale to describe my current training motivation '
p160
ag3
aa(lp161
S'Bought my ticket to SF! #WWDC here I come '
p162
ag6
aa(lp163
S'@Kerred I like it quite a bit.  The wife and I can discuss bills, and I can see my 13-week old to cheer me on a bad day.  '
p164
ag6
aa(lp165
S'just watched kellie pickler on ellen! aw man funny stuff! loe both of them! '
p166
ag6
aa(lp167
S"@Angelfan Praying for you to warm up too!!!  It wasn't bad tempwise here today, but if you are cold today-it must be headed my way!!  "
p168
ag3
aa(lp169
S'@dannywood You really gonna do a song on summer tour!?  Just  1  Cant wait to hear it, comin from Scotland UK to see ya!'
p170
ag3
aa(lp171
S'@followcassidy why are you upset? '
p172
ag3
aa(lp173
S"this week had been the best week i'd ever had (so far)  "
p174
ag6
aa(lp175
S'failed history, mom gonna kill me, dad too '
p176
ag3
aa(lp177
S'Omg its cold out side! Now getting out thee drive away! And be heading home! Texas here i come back home! '
p178
ag6
aa(lp179
S'Still recovering from my cold '
p180
ag3
aa(lp181
S'@TessMorris Thank you for your lovely message. I feel really encouraged by it.  It would be lovely to be walking with you all. '
p182
ag6
aa(lp183
S"@stylist24 oh smh Lord heal her n Jesus name smh U gonna get betta I'd I got anything Esay bout it  lol"
p184
ag6
aa(lp185
S'forgot to wake little one up for toilet before I went to bed last night, now I have lots  of bedding to wash. '
p186
ag3
aa(lp187
S"ok, so it looks like everyone else is out having a life tonight, i guess i'll go and watch conspiracy theory or something "
p188
ag3
aa(lp189
S"OMG today's the day hahah but not here  buuh1"
p190
ag3
aa(lp191
S'cant beat one boss on her Mario game... this is extremely frustrating. '
p192
ag3
aa(lp193
S"Thanks to @JimCim, @BarbaraBretton, and @KP_eezy for the writing encouragement. You'll support me, until you read my stories. HA "
p194
ag6
aa(lp195
S'@JohnhampsonUK Nicely done - I hope all goes well '
p196
ag6
aa(lp197
S'@backstreetboys Hi boys!! How are u?? Hey my birthday is in June 4th!!  I love you so much guys!! Kisses from Puebla, M\xc3\xa9xico!! '
p198
ag6
aa(lp199
S'@glsmeltr and thank you so much for your hospitality  I appreciate it!'
p200
ag6
aa(lp201
S'Why is there a crying Bumblee in Transformers 2?  DO NOT WANT '
p202
ag3
aa(lp203
S'Is having a superfanfabtastic weekend '
p204
ag6
aa(lp205
S'So getting ready, then moving the rest of my stuff to the house  boyfriend coming over today  Pumpkin (:'
p206
ag6
aa(lp207
S'@thesoftlanding I would love to see that, how exciting!!! YAY '
p208
ag6
aa(lp209
S"@ilindsay That's very cute! "
p210
ag6
aa(lp211
S'Waiting for JNU-ANC flight.  Some lady stole my $4 hat.  I liked that hat.  '
p212
ag3
aa(lp213
S'Twilight swept up five awards. whoa. '
p214
ag6
aa(lp215
S"@BoomerangPR Why am I not surprised it's raining  About to enjoy my first cup of coffee *happy face*, then off to play some golf."
p216
ag6
aa(lp217
S'@beezan it really is! just gonna make scrambled eggs and bacon...want some? and nice cuppa taye?  '
p218
ag6
aa(lp219
S'@juttayy  wizards of waverly place '
p220
ag6
aa(lp221
S'without net...bad times '
p222
ag3
aa(lp223
S'@riotlainie haha i was so frustrated i just looked it up. thanks, i was freaking out about that. and i still think you like coberst more '
p224
ag3
aa(lp225
S'Sarah Conner Chronicles canceled  -- http://tinyurl.com/onn5gd'
p226
ag3
aa(lp227
S'something in my hall smells and the smell is reminding me of Tokyo and making me a bit  sad '
p228
ag3
aa(lp229
S"Sitting in the urgent care center waiting on mom and daddy to come back out with nate. Baby brother isn't feeling great. "
p230
ag3
aa(lp231
S'I miss my Friends. I miss Joo and Bitches '
p232
ag3
aa(lp233
S"@mary_tina I could but I think I shouldn't. I have a 7am class tomorrow! "
p234
ag3
aa(lp235
S'@playitagain_sam this sucks '
p236
ag3
aa(lp237
S'Posted 1st Etsy Artist Feature: http://jenellsjewelryblog.blogspot.com/ Need more followers! '
p238
ag6
aa(lp239
S"I didn't want the night to end. "
p240
ag3
aa(lp241
S'oooh razzmatazz and BBQ baked chips are thee best!  thanks love @knoqueturnal'
p242
ag6
aa(lp243
S"@VICnJB123 im sori  HEy He's another word for a butt...plus thats just helpn us girls learn how to chose someone even better next time "
p244
ag3
aa(lp245
S"@stalkerchanning  Just trying to help? Write 'em a nasty letter... Sometimes Twitter is too popular for its own functionality."
p246
ag3
aa(lp247
S'It feels amazing to be able to sleep late.  Yay for weekends and pretty weather.'
p248
ag6
aa(lp249
S':: internets down once more  but gave me enough time to start planning my next move ::'
p250
ag3
aa(lp251
S'@memoirofagaysha Try 7 to 377 '
p252
ag6
aa(lp253
S'@plastichandgun i see. ok '
p254
ag3
aa(lp255
S'Hehe, 2-0 now '
p256
ag6
aa(lp257
S'trying to recover from my adventures with vodka and wii tennis.... good times '
p258
ag6
aa(lp259
S'@purplefae What a shithead. '
p260
ag3
aa(lp261
S'going out now.. missing the pens parade '
p262
ag3
aa(lp263
S'@tuxorhasboobs what happened? '
p264
ag3
aa(lp265
S'in a few minute the power has been stopped. '
p266
ag6
aa(lp267
S'going to sleep gotta get up early and watch the richmond race tonight, but of course work is going to keep me from watching the end of it '
p268
ag3
aa(lp269
S'@Whatakicker thanks. And nope. '
p270
ag3
aa(lp271
S'@dtabachnick OMG are you ok?!?  Is that the glass from your bathroom?  Agh I really thought I cleaned it '
p272
ag3
aa(lp273
S'@Bridget_CooKs Oh no...I meant walking!!! oh dear '
p274
ag6
aa(lp275
S'@tommcfly #TOMEATBRIGADEIRO i can cook for you, if you want  haha love you!'
p276
ag6
aa(lp277
S'Blah  cramps'
p278
ag3
aa(lp279
S'@spike1989 noooo  when do your exams finish?'
p280
ag3
aa(lp281
S"Listening to @mitchelmusso 'hey'. I don't feel lik that right now. "
p282
ag3
aa(lp283
S'When I say Jump, you say how high!! '
p284
ag6
aa(lp285
S'im offcially broke '
p286
ag3
aa(lp287
S'I WANT MY LUUUUUUUUNCH '
p288
ag3
aa(lp289
S'borring wants too go out but no 1 out  how depressing the weathers ok but nothing too do '
p290
ag3
aa(lp291
S'waiting for manang merienda is killing me '
p292
ag6
aa(lp293
S'@rachelgab wow. i have 2. for the longest time, i only had one. but I hate to shop. i may not actually be a girl. hahaha.  '
p294
ag6
aa(lp295
S"@emmaskrnjug Hope it isn't he swine flu  Oink Oink"
p296
ag6
aa(lp297
S"as if the day couldn't get any worse, I ran out of Easy Cheese "
p298
ag3
aa(lp299
S"coincidence that the @katyperry gig was postponed just as adie said she couldn't see me until august, the new date is august25th "
p300
ag6
aa(lp301
S'@skinnylatte @willyfoo i believe willy has a setup something like that.  #awaresg'
p302
ag6
aa(lp303
S'@amyn_8t cus Youre a poor, lonely child  Hahaha! What song is that? I forgot'
p304
ag3
aa(lp305
S"@BoyNamedDavid I want to but Rockky and Dale haven't texted me back. "
p306
ag3
aa(lp307
S'@MinDillard thanks a lot for the #followfriday '
p308
ag6
aa(lp309
S'is leaving portsmouth forever today! '
p310
ag3
aa(lp311
S"@LILthomasWAYNE You realllllllllly just said that didn't you? "
p312
ag6
aa(lp313
S'I have defensive driving class tonight  no so happy!!'
p314
ag3
aa(lp315
S"@WhitPR lol... i've been in Bk for over a year... going on 2 and u haven't come yet!!! "
p316
ag3
aa(lp317
S'Urgh, internet has been slowed down again  How am I supposed to get any research done now?'
p318
ag3
aa(lp319
S" It's an ugly day"
p320
ag6
aa(lp321
S"@francescaa i don't use the tub. it's too small "
p322
ag3
aa(lp323
S'thought..we will all die someday ..thats sad  ..guess we have to enjoy life..'
p324
ag3
aa(lp325
S"@plymouthgooner Don't worry let's tweet about Arsenal who's not signing anyone "
p326
ag3
aa(lp327
S"Awwwww man &quot;he&quot; fell asleep  what's new?"
p328
ag3
aa(lp329
S'Almost finished ikea-ing the pool. Also finished -almost- all 6 crates of beer '
p330
ag3
aa(lp331
S'watching one tree hill   got soaked on the way home even though i had an umbrella '
p332
ag3
aa(lp333
S'Too tired to leave bed. '
p334
ag3
aa(lp335
S'Did u?     RE: TanyaAX: I think I just killed a rabbit '
p336
ag3
aa(lp337
S"Shouldn't have sat down, shattered again "
p338
ag3
aa(lp339
S'I just finnished my amazing Vanilla Bean Frapp made by my girl @kelliebritton! soooo good '
p340
ag6
aa(lp341
S"his sister comes out to see what's goin on and she gives me a death stare lol. Clearly I'm not liked by that fam "
p342
ag3
aa(lp343
S'i miss mcfly  I WANT THEM BACK!!! NOW !!!!!! '
p344
ag3
aa(lp345
S'@rumoko bro, come pick me up and we can go together! '
p346
ag6
aa(lp347
S'Very happy about the traffic on my site www.designforless.eu '
p348
ag6
aa(lp349
S"I'm hungry lol What an annoying backache! awwwww "
p350
ag3
aa(lp351
S'Why does hayfever always play up at night '
p352
ag3
aa(lp353
S'GOOD MORNING TWITTER FAM '
p354
ag6
aa(lp355
S'@beregulina  \xd0\xbc\xd0\xbe\xd0\xb6\xd0\xbd\xd0\xbe \xd0\xb8 \xd1\x82\xd0\xb0\xd0\xba \xd1?\xd0\xba\xd0\xb0\xd0\xb7\xd0\xb0\xd1\x82\xd1\x8c ))'
p356
ag6
aa(lp357
S"The rub is that i can't touch any of the felt sculpture @ the cooper-hewitt. "
p358
ag3
aa(lp359
S'Eatting bacon pizza now...super hungry '
p360
ag3
aa(lp361
S'@senor_carlos  lol....that is silly.  '
p362
ag6
aa(lp363
S'friends cant spend the night '
p364
ag3
aa(lp365
S"Animated gems#19 'Dimensions of Dialogue' by Jan Svankmajer. Surrealist veg-e-mation extravaganza!  http://is.gd/13hDd"
p366
ag6
aa(lp367
S"@HappyMomAmy No... sadly I haven't heard back yet... I may pitch it again to a different person next week "
p368
ag6
aa(lp369
S'@razorbackrandy If I am... so are U, my friend.  HA!  But the thing is... WE make old look GOOD!  '
p370
ag6
aa(lp371
S"Heeeey!! i'm listening now to the new single &quot;its alright its O&quot; by ashley tisdale and it totally ROX!! she's awesome "
p372
ag6
aa(lp373
S'@DarynTufts  Welcome! @alyssa_milano speaks highly of ya! '
p374
ag6
aa(lp375
S'And I have no power at my house due to the storm '
p376
ag3
aa(lp377
S'@crazytales how mean  I hope u have a good bday though.'
p378
ag3
aa(lp379
S"@MsBunni LOL that will be you cuz my bedroom set won't be ready til the end of the month, and I can't have a party in an unfinished apt "
p380
ag3
aa(lp381
S'@zackdft So are we!!!! They better be writing new songs for us!  Unless it was a coincidence, in that case get some food.'
p382
ag6
aa(lp383
S"Not feeling well* wish it would stop rainging! Maybe I wouldn't feel so groggy! "
p384
ag3
aa(lp385
S"I'm starving!! This diet is killing me but I can't eat after 8pm "
p386
ag3
aa(lp387
S"@martinroyds morning mate, you don't seem to be in the best of moods, woke to a stream of twitter texts from you being "
p388
ag3
aa(lp389
S'my iPod touch keeps freezing '
p390
ag3
aa(lp391
S"wondering whether my class is actually running, or if i've stayed at uni an extra hour for no reason "
p392
ag3
aa(lp393
S'@RosemaryConley I love love love! M&amp;S food shops, they do the most loveliest fruit &amp; veg! yum. I hope you enjoyed your hair apt. '
p394
ag6
aa(lp395
S'carless  AGAIN.'
p396
ag3
aa(lp397
S"@Nia78 I'm pretty good about to lay it down in a sec . Had a long day &amp; night  Thanks for asking . And you ?"
p398
ag6
aa(lp399
S'waiting on this steamed shrimp... daydreamin and thinkin of him! I know my babe is NOT eatin this good rite now...  Damn Airforcers LLs'
p400
ag3
aa(lp401
S'@lalulorlor I wish I could just drive to new York. '
p402
ag3
aa(lp403
S'All of my posters and photos are down now except jb rolling stone! Byebye funny little joe pics and notes from @karinaemma '
p404
ag3
aa(lp405
S"SAT II. much more focused. let's hope for no modern history "
p406
ag6
aa(lp407
S'Ahhh algebra, english honors, and biology finals today '
p408
ag3
aa(lp409
S'@ABeautifulMind1 haha. i like that '
p410
ag6
aa(lp411
S"@matty_clark @bryangwin you guys need to come back to socal again. it's been foreverrrr!! "
p412
ag3
aa(lp413
S'@Grooveecar  hope u find it soon'
p414
ag3
aa(lp415
S"My eyes are stinging &amp; my belly is killing. All I wanna' do is sleep + take your money "
p416
ag3
aa(lp417
S"@sarah_janes I've made about 10 bucks so far, its been slow too "
p418
ag3
aa(lp419
S"Man, I really hope they aren't done in 10 wks  ONE MORE SHOW ONE MORE SHOW! no more roadtripping 4 this girl    so they hafta come here"
p420
ag3
aa(lp421
S'@Conscious I love people that love me '
p422
ag6
aa(lp423
S"its mid-day!! just woke-up!! Had a beautiful dream! Can't help smiling!! "
p424
ag6
aa(lp425
S'@sunbot sorry to hear you are sick.. hope you get better '
p426
ag6
aa(lp427
S'My dad is cooler than your dad. My dad gets to meet the president on Thursday. '
p428
ag6
aa(lp429
S"@Odrep that's great to hear. family members are out now. Tib and McB are together in LA, El's still in France I think. Bug's studying "
p430
ag6
aa(lp431
S"I haven't unpacked my suitcase yet and I just spilled juice on my last pair of clean jeans  - Laundry just became official!"
p432
ag3
aa(lp433
S"@SEXYTIMElove actually i didn't even see him @ church today "
p434
ag3
aa(lp435
S'@AnneAAM have u listen to the clip David confirming bout his album? eh? albums to be precise. '
p436
ag6
aa(lp437
S'@bagfetish well hope we both sleep better 2 nite!! '
p438
ag6
aa(lp439
S'twitter is wack yo. but im bound by boredom. '
p440
ag3
aa(lp441
S'@benjibrum what pigs?! where ARE you! '
p442
ag6
aa(lp443
S'@SoCal Trip Members. Please bring a sleeping bag or blanket AND a pillow please '
p444
ag6
aa(lp445
S'Thrift store shopping with my baby soon '
p446
ag6
aa(lp447
S'my computer is acting weird and now its deleting all my files today is not gonna be a good day '
p448
ag3
aa(lp449
S'@woaiberry123 awww can i eat with you guys too? '
p450
ag6
aa(lp451
S'Listening to: &quot;Jack Penate Have I Been A Fool Music Video on IMEEM Video&quot;irony...  ( http://bit.ly/12yxa2 )'
p452
ag3
aa(lp453
S"@strangetymes awesome!2 months!..but i go on holiday with some friends so..that's 10 days less,and on camp,thats another 10 days "
p454
ag3
aa(lp455
S'@FrankRamblings Yes Babby steps for eating meat. Too much meat makes me ill  I miss meat so much!'
p456
ag3
aa(lp457
S'@hortovdaciti I hear you love...same here '
p458
ag6
aa(lp459
S'@keeperofdreams Awesome...........finally..........good work!................ '
p460
ag6
aa(lp461
S"@TheRealJordin awe I met you today with kidkradic and I didn't get to take a picture with you  I'm like so heartbroken but happy I saw you"
p462
ag3
aa(lp463
S'@UlteriorAvesha good night '
p464
ag6
aa(lp465
S"WHY have twitter done the 'fix'?? Why........ "
p466
ag3
aa(lp467
S'Just finished updating my myspace page, with pictures of my baby... he is such a cute kitten, he cries when he wants his mommy! '
p468
ag6
aa(lp469
S'@nandiaramos *comes in rattling pots and pans and then quick;y regrets it* My heeaaaaadddd '
p470
ag3
aa(lp471
S"@buckhollywood I'm watching my Will &amp; Grace DVD's! And eating a lean pocket! "
p472
ag6
aa(lp473
S'new video up soon...sorry for the delay  . -lindsay'
p474
ag3
aa(lp475
S'@RMNH thnx for video! '
p476
ag6
aa(lp477
S'@JustA_Girl go join them '
p478
ag6
aa(lp479
S"just watched the women. cute! who didn't like it... men? pshawww. i saw the play last year too, love the idea of all women. liberating! "
p480
ag6
aa(lp481
S'is having an intense fat day '
p482
ag3
aa(lp483
S'@totalrapture Just commented your post - I liked that entry '
p484
ag6
aa(lp485
S"@ddlovato listening to your song don't forget. It's my favorite off your album. "
p486
ag6
aa(lp487
S'Listening to song that bring back memories  and chatting with repo friends'
p488
ag6
aa(lp489
S'@bets_carabuena dear! sa friday pa dito  thursday ang game '
p490
ag6
aa(lp491
S"@amymarie2534 Oooooh I can't wait. Have a good one darlin' "
p492
ag6
aa(lp493
S"@LucieMinor I Am SOOOOOOOOOOOOOOO jealous  wants to go beach. :'("
p494
ag3
aa(lp495
S'looooooooong day at work .. glad I have my 4th Twilight book '
p496
ag6
aa(lp497
S'@Fallen_Reason heh I know feeling '
p498
ag3
aa(lp499
S"When life hands you lemons you should make lemonade, right. But what if you feel that making lemonade won't make a difference? "
p500
ag3
aa(lp501
S'Good Morning everyone! Ready to start another exciting week. What? 59 degrees outside???? '
p502
ag6
aa(lp503
S'nothin on msn and talkin to people!!! '
p504
ag6
aa(lp505
S'@_amberlovely as in sicky sick, yeah '
p506
ag3
aa(lp507
S'I have an ear infection    so I played hookie from work and here I am a twitter-holic lol'
p508
ag3
aa(lp509
S'@megansu anytime miss Su. '
p510
ag6
aa(lp511
S'@AFineFrenzy wich colour do you painted your nails  ?'
p512
ag6
aa(lp513
S'http://twitpic.com/6q1hs - Fav of the day '
p514
ag6
aa(lp515
S"@LISAAASTHOUGHTS we're so coolish  hahaha, that is my new favourite word! "
p516
ag6
aa(lp517
S"Hi @NameCheap - out of interest what is the rule of you mis-spell something and re-enter your answer? I've done it twice in 24 hr "
p518
ag3
aa(lp519
S"Feeling really good- had a great workout  Now tackling these Sunday chores. Waiting for my personal assistant's @MissMillions assistance!"
p520
ag6
aa(lp521
S' i got yelled at 4 helping the cats by my neighbor'
p522
ag3
aa(lp523
S'has her maths exam this morning '
p524
ag3
aa(lp525
S'is looking at a blackberry curve 8900 '
p526
ag6
aa(lp527
S"@z0mbie_ I'm en route to the bar. No one wants to stop to the mall "
p528
ag3
aa(lp529
S'doing assignment .. due monday so i can watch my bf tomorrow '
p530
ag6
aa(lp531
S"@lastyearsgirl_ I think so. She's got a strange look in her eye. I kinda half wanted her to come out with her cat tonight, crazy cat lazy "
p532
ag6
aa(lp533
S'Have to take macbook in for service  The encasing broke. AGAIN. Guess I will have to work on windows for the remainder of the evening '
p534
ag3
aa(lp535
S'First tweet of the day is a rant at the stupid bus driver who was not gonna accept my ticket till I kicked up a fuss!!! Mean man! '
p536
ag3
aa(lp537
S'@MelissaGuei I wish I had korean bbq... all I had for dinner was a turkey sandwich  I feel poor'
p538
ag3
aa(lp539
S"@esoterismo You're welcome. "
p540
ag6
aa(lp541
S"@teajeni Am useless at stuff like that - can't do pastry or bake cakes "
p542
ag3
aa(lp543
S'I am heartbroken '
p544
ag3
aa(lp545
S'18 degrees at 10 in the morning, home office is like a sauna! Pulled several different muscles yesterday. '
p546
ag3
aa(lp547
S'oh where, o where, did my Buhbie go? oh where, oh where, can he be? back down to 161 folks '
p548
ag3
aa(lp549
S"Holy shit!?! 01.25am and I've got school tomorrow? :o I think I have to drop Heroes today!  where did the time go? Goodnight then xx"
p550
ag3
aa(lp551
S'@daphnemaia Guten Appetit  Have a good time there. The pineapple is simply divine.'
p552
ag6
aa(lp553
S"@pipupipu That's twitter client for Nokia fones "
p554
ag6
aa(lp555
S'@brianna_v Haha I bet you are uber happy about that '
p556
ag6
aa(lp557
S'@princessa_the1 congrats on getting your paper in  em is going to join us at robarts later...the more the merrier, even if its em :p'
p558
ag6
aa(lp559
S'just had a shower, so shes nice and clean '
p560
ag6
aa(lp561
S"@backpedalling @katherinekenny Recently bought everything by them on iTunes. Well worth it. Playing Electric Picnic but I'm not going "
p562
ag3
aa(lp563
S"RIP Acer Aspire 2010, you've been great to me for 4 years of my undergrad! Everyone say bye to lappie! "
p564
ag3
aa(lp565
S"@KeatWave We purchased PS3, had PS2 before that, &amp; then won the Xbox so I'd consider myself unbiased &amp; Xbox just blows the PS3 away sadly "
p566
ag3
aa(lp567
S"sad then @kennykillah didn't send me a morning email "
p568
ag3
aa(lp569
S'God I wish I could sleep more than 3 hours a night after I go out '
p570
ag3
aa(lp571
S'@casiestewart I dont know how to drive a stick OR auromatic lol '
p572
ag3
aa(lp573
S'@silvermarquis Sure thing.    We can also compare notes between sessions.'
p574
ag6
aa(lp575
S'@tommcfly Why did he have to kiss her?? And I wish if he did have to kiss her it was me '
p576
ag6
aa(lp577
S'@jimmyfallon you are doing an amazing job with the show, keep up the great work! you always make me laugh no matter what '
p578
ag6
aa(lp579
S"Can't wait for Toy Story 3 too. LOL "
p580
ag6
aa(lp581
S'@TEYANATAYLOR yeahhhhhhhh!!!!!!!!!!! lmfaoooooooooooo kobeeeeeeeeeee '
p582
ag6
aa(lp583
S'@spaceisgood Hey, some really great shots! Well done! '
p584
ag6
aa(lp585
S"I've got three other days not in school, and this means much science h/w from mcguinness. "
p586
ag3
aa(lp587
S'man.... cant just have this sitting around. bout to go lay it down. heading to the studio in a few. [ yes. im still in ATL] see about me. '
p588
ag6
aa(lp589
S'@scarletmandy well you are far to kind! and THAT is why I LOVE you  So when are ya coming to Toronto so I can LIFT you?'
p590
ag6
aa(lp591
S'@casparterhorst put in your fakes and receive reals  fresh money is popular in China, especially around NY, so change old notes for new.'
p592
ag6
aa(lp593
S"@trixie360 I'm glad I could have breakfast with you sweetie. "
p594
ag6
aa(lp595
S'flying to Dorchester all on my own '
p596
ag6
aa(lp597
S"Looks like it's going to storm. No bike to work "
p598
ag3
aa(lp599
S'this day turned into not such a good day. tear '
p600
ag3
aa(lp601
S'i HATE working out  i feel like crying when i do it :L:L:L so tireed and hungry now  woooo foood'
p602
ag3
aa(lp603
S'@jennydavis LOL! I thought that was a NY accent he picked up from all those years out there. '
p604
ag6
aa(lp605
S'@stonernation Wait I posted my post 7 minutes ago during the first.. does it make it invalid? You just announced it 27 minutes ago '
p606
ag3
aa(lp607
S'@Daxter80000 oh okay.  I got scared in the hospital morgue. I swear I heard someone grunting.'
p608
ag6
aa(lp609
S'@dorkexposed thanks.... I do take my drinking seriously when I do   the days of cheap ass beer are long gone'
p610
ag6
aa(lp611
S'Walking w jacks n alexis! No salsa lessons today!!! Ahahahhaha '
p612
ag3
aa(lp613
S"@Psychic09 Oh ok, then don't worry about it if you can't see anything. "
p614
ag6
aa(lp615
S'Getting ready for work 830am-130pm. And then class at 4. How DO I do it folks '
p616
ag6
aa(lp617
S"@kellyhines I'm on episode 5 of Lie to Me! It really is a very good show  Thanks for the suggestion!"
p618
ag6
aa(lp619
S'@chelleysmiles come come saturday.  if you guys can. '
p620
ag6
aa(lp621
S"We are headed up to Fremont today. Tomorrow is the viewing and then Tuesday is my Grandpa's funeral. It'll be a rough couple of days. "
p622
ag3
aa(lp623
S'Repos update always takes time when you are in hurry.. '
p624
ag3
aa(lp625
S"I'm eating now ...ouch my stomach hurts "
p626
ag3
aa(lp627
S'shower...ride to buggy... '
p628
ag6
aa(lp629
S"decided to go with soup cos the final ingredient i have, blackberry sponge pudding mix, doesn't go with my others "
p630
ag6
aa(lp631
S"Redbox, Hardee's and then home! "
p632
ag6
aa(lp633
S'I Really Wanna Go Bowling '
p634
ag3
aa(lp635
S'Goodafternoon twitter fam '
p636
ag6
aa(lp637
S"@stratosphear I missed this tweet.. but I understand. I'm being prodded by others  they are obviously not in favor, no mat'r whats said"
p638
ag6
aa(lp639
S"ugh. only half way home and we have been driving for ages  and macca's internet is sooo slow"
p640
ag3
aa(lp641
S'looking forward to karaoke session after work today ^^ no swimming this week '
p642
ag3
aa(lp643
S"I swam. It hurts. It's a good kind of hurt. Apart from that. That's the bad kind of hurt. owwww "
p644
ag3
aa(lp645
S'my mum was doing waitressing last night @ a wedding,julian rhind-tutt aka mac from green wing was a guest there! i have his place name '
p646
ag6
aa(lp647
S'I miss everyone from K4 '
p648
ag3
aa(lp649
S'@Hedgewytch @exsanguinator loves all things scifi fantasy and comics so should be able to engage over such things as well as being a geek '
p650
ag6
aa(lp651
S"me and jesse just made the most delicious cup cakes! ...combined with criminal minds s3 and coffee and i'm in my happy place "
p652
ag6
aa(lp653
S'@PJA4ever kl ok,  yay GO GO Paula , thank u'
p654
ag6
aa(lp655
S'I am realising I know nothing of popular culture - hahaha '
p656
ag6
aa(lp657
S"@rxrrazorblade Poor you.  I just finished work. You'll get through the day."
p658
ag3
aa(lp659
S"@tennisDijana That's it! FEDERER's the CHAMP!  6-1; 7-6; 6-4"
p660
ag6
aa(lp661
S'@Mattdavelewis Awesome new picture '
p662
ag6
aa(lp663
S'people make me smile. '
p664
ag6
aa(lp665
S'@NUfBXH Thanks '
p666
ag6
aa(lp667
S'man man man ....   R.I.P. TO MY 4th 360 And ED MCMHAN .... or however u spell the las name Sorry!! lol'
p668
ag3
aa(lp669
S'This day is a total let down. '
p670
ag3
aa(lp671
S'@courtneyjayneee preety keen for snuggles/big spooning...its soo cold out.!  what you up too fangz? '
p672
ag6
aa(lp673
S'@ddlovato R u doin the brimingham(uk) concert with the jb ? cuz i wana cum c u in concert so bad but u ent doin concerts in the uk '
p674
ag3
aa(lp675
S'interview this evening '
p676
ag6
aa(lp677
S'@ksaim @jasonloucks It was self assigned homework. Gotta stay on top of things. '
p678
ag6
aa(lp679
S'my grandparents are leaving today. '
p680
ag3
aa(lp681
S"so hungry! but there's no food "
p682
ag3
aa(lp683
S'Just arrived at school... Late again '
p684
ag3
aa(lp685
S'gorgie- why do you swear, me- BECAUSE. ur reaction to it is funny  gorgie then got a pissed off face and chased me round the house '
p686
ag6
aa(lp687
S'@LeighanneReena Thats great Brian came home. My husband is deploying for 4 months come June 8th. Not looking forward to that. '
p688
ag3
aa(lp689
S'today has not had a good start but i think itll get better. im hopeful '
p690
ag6
aa(lp691
S'@avl94 Surprising? Am i that bad  haha.'
p692
ag3
aa(lp693
S'Vital Information #2: Space travel will make people ugly  http://tinyurl.com/p3u8n3'
p694
ag3
aa(lp695
S'@geri1980 oh yeh it will be eh. i cant wait '
p696
ag6
aa(lp697
S'Awww my Whitestrips are not staying on '
p698
ag3
aa(lp699
S'All folk are speaking about is theman found dead on highstreet '
p700
ag3
aa(lp701
S"@itszMC I am going to Fairfax, VA.. probably nowhere near where you'll be   It was so great to meet you in Lancaster!!!"
p702
ag3
aa(lp703
S"Don't like black used as base (for most cases)... It's sinister  and it's hard for the eyes to relax - the readability's compromised..."
p704
ag6
aa(lp705
S'@whelming lol ok then ...im guessing she didnt. lol..i have forgoten to come on here :O im a bad tweeter.. '
p706
ag3
aa(lp707
S'@MissKatiePrice DId u enjoy the fashion sohw was it fun  x'
p708
ag6
aa(lp709
S'what do you think?  Hum........workin.....  '
p710
ag3
aa(lp711
S'I hear the ice cream man!!!!!!!  and its actually going slow!! '
p712
ag6
aa(lp713
S'@rxmxa sad, we never see Dan Dance anymore. '
p714
ag3
aa(lp715
S"@topdan Oh heck no shame Nev.  Tx for playing The Love Game by Lady Kaka tho... it's a fun song. ;-) Hope the queues are short! xx"
p716
ag3
aa(lp717
S'\xe2\x99\xab Working on a new Single for someone speshull ^^ Shhhhhhhhhh...should be done by today  http://tr.im/nyfY'
p718
ag6
aa(lp719
S"@TiphTiph I'm fine.  Did a crazy dip last night and a back muscle went, quote, &quot;sproing&quot;. But ice and a good night's sleep worked OK."
p720
ag6
aa(lp721
S'Missed all my Sunday night cartoons as the parents and myself were hanging my ceiling fan '
p722
ag6
aa(lp723
S'We lost  . what a day.'
p724
ag3
aa(lp725
S'@rapslikeportman BK sounds hella good  can we go after 6 ?'
p726
ag6
aa(lp727
S'Sooooooooooooooooooo cold '
p728
ag3
aa(lp729
S'Ah crap, work is becoming more difficult. Nethack and TV off to the side now '
p730
ag3
aa(lp731
S"I'm confused as to what to do with twitter haha "
p732
ag3
aa(lp733
S"is so very very tired, but can't sleep after a creepy day.  Meanwhile Abby is snoring it up  lucky dog!"
p734
ag3
aa(lp735
S'looking forward to June 12th '
p736
ag6
aa(lp737
S"Ok its 5am n I can't go to sleep!! Ugh!! Gotta be up in 4 hrs!! "
p738
ag3
aa(lp739
S'@trayceeking Wish you were here!  '
p740
ag3
aa(lp741
S"2.12am and i'm still doing my work. must wake up on time tomorrow "
p742
ag3
aa(lp743
S'likes the lyrics and is moving to the music...  '
p744
ag6
aa(lp745
S'well,i finished taking care of grandma. now,im relaxing in my room as im listening to music '
p746
ag6
aa(lp747
S'Weather is AWESOME in Phoenix!! Heading to First Friday '
p748
ag6
aa(lp749
S"is heading to bed - going to the silent breakfast in Edmond in the morning, then Ri's Peter Pan Production week begins "
p750
ag6
aa(lp751
S'@Rachecullen  *Hugs* '
p752
ag6
aa(lp753
S"@CherilynnKaye a family party but didn't invite family "
p754
ag3
aa(lp755
S'is getting teary-eyed because of GLOOMY SUNDAY... dang this song is so depressing... '
p756
ag3
aa(lp757
S"@rlich8 did you get any? My friend tried for us since I'm on the road...struck out "
p758
ag3
aa(lp759
S'@MikeDriehorst Always thinking....this is actually going somewhere. '
p760
ag6
aa(lp761
S'thundering again  glad i ran earlier'
p762
ag3
aa(lp763
S"i'm thinking kris allen has more talent than he's getting credit for,i wish he'd win ai, doubt he will. "
p764
ag3
aa(lp765
S'picking up my wardrobe '
p766
ag6
aa(lp767
S'@DonnieWahlberg i wont b  lol x'
p768
ag3
aa(lp769
S'yeah my ish is on the radio..silversun pickups i want to see them live  http://sml.vg/Bk2rXQ'
p770
ag3
aa(lp771
S'Real world is lonely at 4am when you wanna talk to people about your day '
p772
ag3
aa(lp773
S'work gets crapper and crapper every day '
p774
ag3
aa(lp775
S'@ladygagafan1 the stuff that you keep a secret.  once again, im not keeping up with replies. im lammmmmme!'
p776
ag6
aa(lp777
S'@Joecas71 Can I come? '
p778
ag6
aa(lp779
S"Can you believe it:Tomorrow Night will be Jay Leno's last episode of the Tonight Show  I encourage everyone to watch it and welcome Conan."
p780
ag3
aa(lp781
S"@siana_mia Hi sweetie! Great morning here! I hope you're having a good day too. "
p782
ag6
aa(lp783
S"@EczemaTreatment Yeah, a steroid cream and a moisturiser. It does help a bit but I'm still left with it on my arms. "
p784
ag3
aa(lp785
S"Really hoping Watase decides not to kill off my bb Tomite first and that he ends up with Takiko.  I'm so ~delusional..."
p786
ag3
aa(lp787
S'i hope my best frand doesnt move to kenucky!!!! '
p788
ag3
aa(lp789
S"Oh what a busy day this is going to be  now it's time for graduation practice!"
p790
ag6
aa(lp791
S"Morning everyone  looks like it's gonna be nice out today "
p792
ag6
aa(lp793
S"@missjorge you are going to have the most amazing time and accomplish so much while you're over there - i only wish i was coming with you "
p794
ag3
aa(lp795
S'@lucy1568 yeah i looked bad in thht one ! '
p796
ag3
aa(lp797
S"@fia_PWNS I'm so sorry that happened  That's TERRIBLE.  I &lt;3 you!"
p798
ag3
aa(lp799
S"@LorrainesLife watch out for the rusty chain - my 2 week old chain wasn't happy when i didn't clean it "
p800
ag3
aa(lp801
S"You start to see who cares and who doesn't. "
p802
ag6
aa(lp803
S'@Tcell1 -- . Yes '
p804
ag6
aa(lp805
S'Discussing with @ellewhite who should get Carlisle and who should get Jasper '
p806
ag6
aa(lp807
S'Just got done talking about how delicious sweet tea is... And I want some now... Pronto!!!! '
p808
ag3
aa(lp809
S"@venessagarza omg some how I'm sick or allergies or something was not up to partying on strand can't breathe  hows Arizona?"
p810
ag3
aa(lp811
S"have an overwhelming urge to shout 'MOVE IT, MOVE IT, MOVE IT' through a megaphone while standing up in an open topped jeep "
p812
ag6
aa(lp813
S'done packing for Baton Rouge, ready to leave '
p814
ag6
aa(lp815
S"@ jenjele thanks i hope so tooo! i can't believe you guys are graduating tomorrow...ahh "
p816
ag3
aa(lp817
S"@bjornyeo yeah  it's way more fun being &quot;hot, hot, hot&quot; in Boracay than Sg"
p818
ag3
aa(lp819
S'probably batting for other team '
p820
ag3
aa(lp821
S'@chandlervdw I was going anyway, but now...can I smack you with a big PC tower?   #Ta5'
p822
ag6
aa(lp823
S'@stacey79 ...I guess Booth decided to go home...yeah in the middle of the night...hello...so stupid...but yet I still watch... '
p824
ag6
aa(lp825
S"@gerimoran Re the kid kissing the pig - I would have stopped the kid just for the pig's sake. "
p826
ag6
aa(lp827
S'Goood night twweeeterr!! I just ate so much my tummy really hurts!  !'
p828
ag3
aa(lp829
S'@jshe lolz '
p830
ag6
aa(lp831
S'@clarisseCHICKEN aim, please '
p832
ag6
aa(lp833
S'@ANF16 ur silly. '
p834
ag6
aa(lp835
S'why am i alot sicker today than i was yesterday?  if i was this sick yesterday i wudda been able to miss school. . .'
p836
ag3
aa(lp837
S"@chrisdejabet http://bit.ly/KDkvO  twitter can't tell time  #getoffmylawn"
p838
ag3
aa(lp839
S"@persiflage It's not just you. "
p840
ag3
aa(lp841
S'going out is too much effort man  damn this week!!!'
p842
ag3
aa(lp843
S'Just got up getting ready for school '
p844
ag3
aa(lp845
S'Without electricity for 9hrs and counting '
p846
ag3
aa(lp847
S"@gmgcam sounds like a great day  Today I'm waiting for a friend, he looks after my Computer &quot;problem&quot; and I want to learn for some exams"
p848
ag6
aa(lp849
S'heigh-ho, heigh-ho, to feed the hungry i will go!!! want to join?  Hit me up! (214) 317-0485  @ Cathedral Of ... http://loopt.us/UjcNkw.t'
p850
ag6
aa(lp851
S"@pugofwar It Sucked and then I Cried by Heather Armstrong. It's no Twilight  What book are you on now?"
p852
ag6
aa(lp853
S"let's all think about @randomflowers who is today going to secure her place at her first choice uni "
p854
ag6
aa(lp855
S'What a great weekend.... and now im abusing my brothers new laptop... and this is my 500th twitter..... '
p856
ag6
aa(lp857
S"@joshcook83 Weird, huh? I guess my mind's in the gutter. "
p858
ag6
aa(lp859
S'@juliesauce why thank you '
p860
ag6
aa(lp861
S'@ChristinaGayle I was recently at a local event where @zarbees was talking about  a mom who took the medicine. just found out it was you! '
p862
ag6
aa(lp863
S'@Earl52 Tell us what fire ants are then maybe we can come up with suggestion '
p864
ag6
aa(lp865
S'hates Live being down, at least I have Broken Steel to support me. I miss World at War '
p866
ag3
aa(lp867
S"@coreyperlman I would if I could, it's for my husband and I'm not excited about the plans! But we've put it off for 2 Fridays now. "
p868
ag3
aa(lp869
S'Is tired but so much to do '
p870
ag3
aa(lp871
S'Afternoon folks!No tweets from me yesterday due to my excruciatingly painful sunburn  I officially hate the sun,bring back the rainy days!'
p872
ag3
aa(lp873
S'Somewhat dreading my graduation ceremony. '
p874
ag3
aa(lp875
S'Ahh Graduation was The BESSt!! wooot-woot  Cant Wait For Summer!'
p876
ag6
aa(lp877
S'my laptop is now somewhere. but not here.  hopfully it will get fixed.'
p878
ag3
aa(lp879
S'is now stressed about history  GREAT'
p880
ag3
aa(lp881
S'Sitting in a dentist chair getting two cavities filled  I am very unhappy'
p882
ag3
aa(lp883
S'@cherry_darling haha i agree.. @GamerManiac512 see gamer naps are nice '
p884
ag6
aa(lp885
S'@langfordperry The reader was good..................Im still traumatized '
p886
ag6
aa(lp887
S"Alright, can't do much with this fuckin' headache so I'm just going to pass out. Agh, paaaain. "
p888
ag3
aa(lp889
S'its that time of month again... newsletter writing time  it always makes me so sleepy!'
p890
ag3
aa(lp891
S'just finish doin a mile... its officially my everyday routine '
p892
ag6
aa(lp893
S"@gerdaduring LOL, so ur 'supervising' and providing encouraging support then. Like your style "
p894
ag6
aa(lp895
S"@allisondean hmmm nope, but I'll look it up on iTunes  thanks for the recommendation!!!!"
p896
ag6
aa(lp897
S"@evanslusher - I'll take mine medium-rare please.  With mustard on the side.  Thks!  "
p898
ag6
aa(lp899
S'hmmm. should i take a nap and then watch the MTV movie awards?? ... dont think sooo  way too tired. its 1:27am'
p900
ag3
aa(lp901
S'&quot; And how you can find love in un-expected places, and how best friends can become un-familar faces&quot;-Lina Reaffalli  it saddens me '
p902
ag3
aa(lp903
S'Oh my god I am addicted to tweeting already '
p904
ag6
aa(lp905
S'dad took max for a walk '
p906
ag6
aa(lp907
S"@ldntown yes, i'm very happy to be coming up there. i miss u &amp; arch &amp; lady barksalot. "
p908
ag6
aa(lp909
S'@YoungQ I told you we will go thru a 12 step tweeting program. '
p910
ag6
aa(lp911
S'wish this stupid flu would go away already! ; doctor didnt help it at all '
p912
ag3
aa(lp913
S"just woke up and I am wishing today wasn't suck a busy day      Too much to do"
p914
ag3
aa(lp915
S'is gutted that the GreenDay RockBand is only down load and 3 song waz hopein for a sepcial addition full on GreenDay RockBand game '
p916
ag3
aa(lp917
S"I barfed on the floor and Momma is mad.  I'm sorry, Momma, I'm sorry.  "
p918
ag3
aa(lp919
S'@StephanieFrank total synchronicity my friend - I was JUST looking at your name on my calendar this week &amp; smiling. '
p920
ag6
aa(lp921
S'riding in cars with boys... my pinched nerve is killing me '
p922
ag3
aa(lp923
S'Thats was ment to be really like, with a space in the middle '
p924
ag6
aa(lp925
S"@SimplySib oh the joys of stalking people....seriously it just becomes easier and easier. Booo Jimmy Carr didn't reply to you "
p926
ag3
aa(lp927
S"I've got something to say... "
p928
ag6
aa(lp929
S"i was just kicked out of @youripoddoc 's live chat for doing nothing "
p930
ag3
aa(lp931
S'@DiannePulham OOOOOOOO who with? (im not neither but thats because i need to study  )'
p932
ag3
aa(lp933
S'I am sooo hungry!! 2 hours till my next meal '
p934
ag3
aa(lp935
S"@questlove wait..how can you, if i'm here? "
p936
ag6
aa(lp937
S'Sad making! Bought Guitar Hero Metallica for my hard working soldier and it is not reading disc! '
p938
ag3
aa(lp939
S'@aileen2u2 I have permanent bad hair whatever the weather '
p940
ag6
aa(lp941
S'The Purple Turtle was VERY dark last night. I got some good videos of the bands but they are a bit dingy  Will upload later.'
p942
ag3
aa(lp943
S'just watched the new moon trailer, i like it '
p944
ag6
aa(lp945
S'setting up my music youtube '
p946
ag6
aa(lp947
S'@Dunkndisorderly Who the HELL is Duncndisorderly? '
p948
ag6
aa(lp949
S'Bored and tired + my ipods nearly dead and the charger is at home '
p950
ag3
aa(lp951
S'@LittleFletcher http://twitpic.com/6go2v - haha hlove your face!  and your hair is AMAZIIIING *----*'
p952
ag6
aa(lp953
S'I wish Scotland was going to the World Cup next year in South Africa - we need a miracle    #England'
p954
ag3
aa(lp955
S"@philaskew rocks doesn't it? i'm pretty much on @evernote 24x7x365 follow them too for ron's tips every few days "
p956
ag6
aa(lp957
S'off to work '
p958
ag3
aa(lp959
S"@MissysNoAngel aaahhh ok, i'll check that out, thanks! "
p960
ag6
aa(lp961
S'@JonDoll thank u I can always count onuto make me smile  x x'
p962
ag6
aa(lp963
S'turkey sandwich, rocky road and a rocket to the moon make revising seem tolerable '
p964
ag6
aa(lp965
S'@walthern thanks for your welcoming '
p966
ag6
aa(lp967
S'hair and makeup '
p968
ag6
aa(lp969
S"LOVED worship practice today! Lenny, Kelsey, Woodward &amp; Jordan- you rock! Now i'm at work.. Total damper on my good day "
p970
ag3
aa(lp971
S'Good Morning All '
p972
ag6
aa(lp973
S'It would be perfect if @mitchelmusso @mileycyrus @themasonmusso and @tracecyrus ALL touring together! '
p974
ag6
aa(lp975
S'Bacardi &amp; fruit punch.... wtf did Moob give me? Lol. &lt;333 WEEE! Mobile party to the Gates of Hell tonight '
p976
ag6
aa(lp977
S'Still at work. '
p978
ag3
aa(lp979
S'@jordanknight I voted Love ya guys. Love Renee '
p980
ag6
aa(lp981
S'Need to buy a bluetooth device for machine '
p982
ag3
aa(lp983
S'@mollydaniele you need an Edward '
p984
ag6
aa(lp985
S'Backing up your iphone cannot be more boring and annoying!!! '
p986
ag3
aa(lp987
S"@onetootwee That's cuz you are the amazing "
p988
ag6
aa(lp989
S"@Preaka Hey  I kind of am, I'm listening to Coldplay and just a bunch of stuff. Hope you have a great weekend "
p990
ag6
aa(lp991
S'So proud of @henrygerson for his decision to be under water. Congratulation!! '
p992
ag6
aa(lp993
S'Damn!!!!! Why did I have to have a good heart..... I gave up the big room!!!!!!!! '
p994
ag3
aa(lp995
S'@heybobnanna I tried to go, but it was sold out  Like early this week too! Have fun!'
p996
ag3
aa(lp997
S"@thatsjustmee haha i didn't sleep more than that myself  and now i'm at school, i'm sooo bored, and i have 5 hrs left.."
p998
ag3
aa(lp999
S"Haha sister and I were just yelling in anger at the tv so loudly. Puppy did not approve. I can't believe they killed him "
p1000
ag3
aa.